
pgm_comtage.elf:     file format elf32-littlearm

Sections:
Idx Name          Size      VMA       LMA       File off  Algn
  0 .isr_vector   000000c0  08000000  08000000  00010000  2**0
                  CONTENTS, ALLOC, LOAD, READONLY, DATA
  1 .text         00006a88  080000c0  080000c0  000100c0  2**2
                  CONTENTS, ALLOC, LOAD, READONLY, CODE
  2 .rodata       000002cc  08006b48  08006b48  00016b48  2**2
                  CONTENTS, ALLOC, LOAD, READONLY, DATA
  3 .ARM.extab    00000000  08006e14  08006e14  000202ec  2**0
                  CONTENTS
  4 .ARM          00000008  08006e14  08006e14  00016e14  2**2
                  CONTENTS, ALLOC, LOAD, READONLY, DATA
  5 .preinit_array 00000000  08006e1c  08006e1c  000202ec  2**0
                  CONTENTS, ALLOC, LOAD, DATA
  6 .init_array   00000004  08006e1c  08006e1c  00016e1c  2**2
                  CONTENTS, ALLOC, LOAD, DATA
  7 .fini_array   00000004  08006e20  08006e20  00016e20  2**2
                  CONTENTS, ALLOC, LOAD, DATA
  8 .data         000002ec  20000000  08006e24  00020000  2**2
                  CONTENTS, ALLOC, LOAD, DATA
  9 .bss          00000474  200002f0  08007110  000202f0  2**3
                  ALLOC
 10 ._user_heap_stack 00000604  20000764  08007110  00020764  2**0
                  ALLOC
 11 .ARM.attributes 00000028  00000000  00000000  000202ec  2**0
                  CONTENTS, READONLY
 12 .debug_info   00011173  00000000  00000000  00020314  2**0
                  CONTENTS, READONLY, DEBUGGING, OCTETS
 13 .debug_abbrev 0000232f  00000000  00000000  00031487  2**0
                  CONTENTS, READONLY, DEBUGGING, OCTETS
 14 .debug_aranges 00000e20  00000000  00000000  000337b8  2**3
                  CONTENTS, READONLY, DEBUGGING, OCTETS
 15 .debug_ranges 00000d48  00000000  00000000  000345d8  2**3
                  CONTENTS, READONLY, DEBUGGING, OCTETS
 16 .debug_macro  00014edc  00000000  00000000  00035320  2**0
                  CONTENTS, READONLY, DEBUGGING, OCTETS
 17 .debug_line   0001084c  00000000  00000000  0004a1fc  2**0
                  CONTENTS, READONLY, DEBUGGING, OCTETS
 18 .debug_str    00085324  00000000  00000000  0005aa48  2**0
                  CONTENTS, READONLY, DEBUGGING, OCTETS
 19 .comment      00000053  00000000  00000000  000dfd6c  2**0
                  CONTENTS, READONLY
 20 .debug_frame  00003b94  00000000  00000000  000dfdc0  2**2
                  CONTENTS, READONLY, DEBUGGING, OCTETS

Disassembly of section .text:

080000c0 <__do_global_dtors_aux>:
 80000c0:	b510      	push	{r4, lr}
 80000c2:	4c06      	ldr	r4, [pc, #24]	; (80000dc <__do_global_dtors_aux+0x1c>)
 80000c4:	7823      	ldrb	r3, [r4, #0]
 80000c6:	2b00      	cmp	r3, #0
 80000c8:	d107      	bne.n	80000da <__do_global_dtors_aux+0x1a>
 80000ca:	4b05      	ldr	r3, [pc, #20]	; (80000e0 <__do_global_dtors_aux+0x20>)
 80000cc:	2b00      	cmp	r3, #0
 80000ce:	d002      	beq.n	80000d6 <__do_global_dtors_aux+0x16>
 80000d0:	4804      	ldr	r0, [pc, #16]	; (80000e4 <__do_global_dtors_aux+0x24>)
 80000d2:	e000      	b.n	80000d6 <__do_global_dtors_aux+0x16>
 80000d4:	bf00      	nop
 80000d6:	2301      	movs	r3, #1
 80000d8:	7023      	strb	r3, [r4, #0]
 80000da:	bd10      	pop	{r4, pc}
 80000dc:	200002f0 	.word	0x200002f0
 80000e0:	00000000 	.word	0x00000000
 80000e4:	08006b30 	.word	0x08006b30

080000e8 <frame_dummy>:
 80000e8:	4b04      	ldr	r3, [pc, #16]	; (80000fc <frame_dummy+0x14>)
 80000ea:	b510      	push	{r4, lr}
 80000ec:	2b00      	cmp	r3, #0
 80000ee:	d003      	beq.n	80000f8 <frame_dummy+0x10>
 80000f0:	4903      	ldr	r1, [pc, #12]	; (8000100 <frame_dummy+0x18>)
 80000f2:	4804      	ldr	r0, [pc, #16]	; (8000104 <frame_dummy+0x1c>)
 80000f4:	e000      	b.n	80000f8 <frame_dummy+0x10>
 80000f6:	bf00      	nop
 80000f8:	bd10      	pop	{r4, pc}
 80000fa:	46c0      	nop			; (mov r8, r8)
 80000fc:	00000000 	.word	0x00000000
 8000100:	200002f4 	.word	0x200002f4
 8000104:	08006b30 	.word	0x08006b30

08000108 <strlen>:
 8000108:	2300      	movs	r3, #0
 800010a:	5cc2      	ldrb	r2, [r0, r3]
 800010c:	3301      	adds	r3, #1
 800010e:	2a00      	cmp	r2, #0
 8000110:	d1fb      	bne.n	800010a <strlen+0x2>
 8000112:	1e58      	subs	r0, r3, #1
 8000114:	4770      	bx	lr
	...

08000118 <__gnu_thumb1_case_shi>:
 8000118:	b403      	push	{r0, r1}
 800011a:	4671      	mov	r1, lr
 800011c:	0849      	lsrs	r1, r1, #1
 800011e:	0040      	lsls	r0, r0, #1
 8000120:	0049      	lsls	r1, r1, #1
 8000122:	5e09      	ldrsh	r1, [r1, r0]
 8000124:	0049      	lsls	r1, r1, #1
 8000126:	448e      	add	lr, r1
 8000128:	bc03      	pop	{r0, r1}
 800012a:	4770      	bx	lr

0800012c <__udivsi3>:
 800012c:	2200      	movs	r2, #0
 800012e:	0843      	lsrs	r3, r0, #1
 8000130:	428b      	cmp	r3, r1
 8000132:	d374      	bcc.n	800021e <__udivsi3+0xf2>
 8000134:	0903      	lsrs	r3, r0, #4
 8000136:	428b      	cmp	r3, r1
 8000138:	d35f      	bcc.n	80001fa <__udivsi3+0xce>
 800013a:	0a03      	lsrs	r3, r0, #8
 800013c:	428b      	cmp	r3, r1
 800013e:	d344      	bcc.n	80001ca <__udivsi3+0x9e>
 8000140:	0b03      	lsrs	r3, r0, #12
 8000142:	428b      	cmp	r3, r1
 8000144:	d328      	bcc.n	8000198 <__udivsi3+0x6c>
 8000146:	0c03      	lsrs	r3, r0, #16
 8000148:	428b      	cmp	r3, r1
 800014a:	d30d      	bcc.n	8000168 <__udivsi3+0x3c>
 800014c:	22ff      	movs	r2, #255	; 0xff
 800014e:	0209      	lsls	r1, r1, #8
 8000150:	ba12      	rev	r2, r2
 8000152:	0c03      	lsrs	r3, r0, #16
 8000154:	428b      	cmp	r3, r1
 8000156:	d302      	bcc.n	800015e <__udivsi3+0x32>
 8000158:	1212      	asrs	r2, r2, #8
 800015a:	0209      	lsls	r1, r1, #8
 800015c:	d065      	beq.n	800022a <__udivsi3+0xfe>
 800015e:	0b03      	lsrs	r3, r0, #12
 8000160:	428b      	cmp	r3, r1
 8000162:	d319      	bcc.n	8000198 <__udivsi3+0x6c>
 8000164:	e000      	b.n	8000168 <__udivsi3+0x3c>
 8000166:	0a09      	lsrs	r1, r1, #8
 8000168:	0bc3      	lsrs	r3, r0, #15
 800016a:	428b      	cmp	r3, r1
 800016c:	d301      	bcc.n	8000172 <__udivsi3+0x46>
 800016e:	03cb      	lsls	r3, r1, #15
 8000170:	1ac0      	subs	r0, r0, r3
 8000172:	4152      	adcs	r2, r2
 8000174:	0b83      	lsrs	r3, r0, #14
 8000176:	428b      	cmp	r3, r1
 8000178:	d301      	bcc.n	800017e <__udivsi3+0x52>
 800017a:	038b      	lsls	r3, r1, #14
 800017c:	1ac0      	subs	r0, r0, r3
 800017e:	4152      	adcs	r2, r2
 8000180:	0b43      	lsrs	r3, r0, #13
 8000182:	428b      	cmp	r3, r1
 8000184:	d301      	bcc.n	800018a <__udivsi3+0x5e>
 8000186:	034b      	lsls	r3, r1, #13
 8000188:	1ac0      	subs	r0, r0, r3
 800018a:	4152      	adcs	r2, r2
 800018c:	0b03      	lsrs	r3, r0, #12
 800018e:	428b      	cmp	r3, r1
 8000190:	d301      	bcc.n	8000196 <__udivsi3+0x6a>
 8000192:	030b      	lsls	r3, r1, #12
 8000194:	1ac0      	subs	r0, r0, r3
 8000196:	4152      	adcs	r2, r2
 8000198:	0ac3      	lsrs	r3, r0, #11
 800019a:	428b      	cmp	r3, r1
 800019c:	d301      	bcc.n	80001a2 <__udivsi3+0x76>
 800019e:	02cb      	lsls	r3, r1, #11
 80001a0:	1ac0      	subs	r0, r0, r3
 80001a2:	4152      	adcs	r2, r2
 80001a4:	0a83      	lsrs	r3, r0, #10
 80001a6:	428b      	cmp	r3, r1
 80001a8:	d301      	bcc.n	80001ae <__udivsi3+0x82>
 80001aa:	028b      	lsls	r3, r1, #10
 80001ac:	1ac0      	subs	r0, r0, r3
 80001ae:	4152      	adcs	r2, r2
 80001b0:	0a43      	lsrs	r3, r0, #9
 80001b2:	428b      	cmp	r3, r1
 80001b4:	d301      	bcc.n	80001ba <__udivsi3+0x8e>
 80001b6:	024b      	lsls	r3, r1, #9
 80001b8:	1ac0      	subs	r0, r0, r3
 80001ba:	4152      	adcs	r2, r2
 80001bc:	0a03      	lsrs	r3, r0, #8
 80001be:	428b      	cmp	r3, r1
 80001c0:	d301      	bcc.n	80001c6 <__udivsi3+0x9a>
 80001c2:	020b      	lsls	r3, r1, #8
 80001c4:	1ac0      	subs	r0, r0, r3
 80001c6:	4152      	adcs	r2, r2
 80001c8:	d2cd      	bcs.n	8000166 <__udivsi3+0x3a>
 80001ca:	09c3      	lsrs	r3, r0, #7
 80001cc:	428b      	cmp	r3, r1
 80001ce:	d301      	bcc.n	80001d4 <__udivsi3+0xa8>
 80001d0:	01cb      	lsls	r3, r1, #7
 80001d2:	1ac0      	subs	r0, r0, r3
 80001d4:	4152      	adcs	r2, r2
 80001d6:	0983      	lsrs	r3, r0, #6
 80001d8:	428b      	cmp	r3, r1
 80001da:	d301      	bcc.n	80001e0 <__udivsi3+0xb4>
 80001dc:	018b      	lsls	r3, r1, #6
 80001de:	1ac0      	subs	r0, r0, r3
 80001e0:	4152      	adcs	r2, r2
 80001e2:	0943      	lsrs	r3, r0, #5
 80001e4:	428b      	cmp	r3, r1
 80001e6:	d301      	bcc.n	80001ec <__udivsi3+0xc0>
 80001e8:	014b      	lsls	r3, r1, #5
 80001ea:	1ac0      	subs	r0, r0, r3
 80001ec:	4152      	adcs	r2, r2
 80001ee:	0903      	lsrs	r3, r0, #4
 80001f0:	428b      	cmp	r3, r1
 80001f2:	d301      	bcc.n	80001f8 <__udivsi3+0xcc>
 80001f4:	010b      	lsls	r3, r1, #4
 80001f6:	1ac0      	subs	r0, r0, r3
 80001f8:	4152      	adcs	r2, r2
 80001fa:	08c3      	lsrs	r3, r0, #3
 80001fc:	428b      	cmp	r3, r1
 80001fe:	d301      	bcc.n	8000204 <__udivsi3+0xd8>
 8000200:	00cb      	lsls	r3, r1, #3
 8000202:	1ac0      	subs	r0, r0, r3
 8000204:	4152      	adcs	r2, r2
 8000206:	0883      	lsrs	r3, r0, #2
 8000208:	428b      	cmp	r3, r1
 800020a:	d301      	bcc.n	8000210 <__udivsi3+0xe4>
 800020c:	008b      	lsls	r3, r1, #2
 800020e:	1ac0      	subs	r0, r0, r3
 8000210:	4152      	adcs	r2, r2
 8000212:	0843      	lsrs	r3, r0, #1
 8000214:	428b      	cmp	r3, r1
 8000216:	d301      	bcc.n	800021c <__udivsi3+0xf0>
 8000218:	004b      	lsls	r3, r1, #1
 800021a:	1ac0      	subs	r0, r0, r3
 800021c:	4152      	adcs	r2, r2
 800021e:	1a41      	subs	r1, r0, r1
 8000220:	d200      	bcs.n	8000224 <__udivsi3+0xf8>
 8000222:	4601      	mov	r1, r0
 8000224:	4152      	adcs	r2, r2
 8000226:	4610      	mov	r0, r2
 8000228:	4770      	bx	lr
 800022a:	e7ff      	b.n	800022c <__udivsi3+0x100>
 800022c:	b501      	push	{r0, lr}
 800022e:	2000      	movs	r0, #0
 8000230:	f000 f8f0 	bl	8000414 <__aeabi_idiv0>
 8000234:	bd02      	pop	{r1, pc}
 8000236:	46c0      	nop			; (mov r8, r8)

08000238 <__aeabi_uidivmod>:
 8000238:	2900      	cmp	r1, #0
 800023a:	d0f7      	beq.n	800022c <__udivsi3+0x100>
 800023c:	e776      	b.n	800012c <__udivsi3>
 800023e:	4770      	bx	lr

08000240 <__divsi3>:
 8000240:	4603      	mov	r3, r0
 8000242:	430b      	orrs	r3, r1
 8000244:	d47f      	bmi.n	8000346 <__divsi3+0x106>
 8000246:	2200      	movs	r2, #0
 8000248:	0843      	lsrs	r3, r0, #1
 800024a:	428b      	cmp	r3, r1
 800024c:	d374      	bcc.n	8000338 <__divsi3+0xf8>
 800024e:	0903      	lsrs	r3, r0, #4
 8000250:	428b      	cmp	r3, r1
 8000252:	d35f      	bcc.n	8000314 <__divsi3+0xd4>
 8000254:	0a03      	lsrs	r3, r0, #8
 8000256:	428b      	cmp	r3, r1
 8000258:	d344      	bcc.n	80002e4 <__divsi3+0xa4>
 800025a:	0b03      	lsrs	r3, r0, #12
 800025c:	428b      	cmp	r3, r1
 800025e:	d328      	bcc.n	80002b2 <__divsi3+0x72>
 8000260:	0c03      	lsrs	r3, r0, #16
 8000262:	428b      	cmp	r3, r1
 8000264:	d30d      	bcc.n	8000282 <__divsi3+0x42>
 8000266:	22ff      	movs	r2, #255	; 0xff
 8000268:	0209      	lsls	r1, r1, #8
 800026a:	ba12      	rev	r2, r2
 800026c:	0c03      	lsrs	r3, r0, #16
 800026e:	428b      	cmp	r3, r1
 8000270:	d302      	bcc.n	8000278 <__divsi3+0x38>
 8000272:	1212      	asrs	r2, r2, #8
 8000274:	0209      	lsls	r1, r1, #8
 8000276:	d065      	beq.n	8000344 <__divsi3+0x104>
 8000278:	0b03      	lsrs	r3, r0, #12
 800027a:	428b      	cmp	r3, r1
 800027c:	d319      	bcc.n	80002b2 <__divsi3+0x72>
 800027e:	e000      	b.n	8000282 <__divsi3+0x42>
 8000280:	0a09      	lsrs	r1, r1, #8
 8000282:	0bc3      	lsrs	r3, r0, #15
 8000284:	428b      	cmp	r3, r1
 8000286:	d301      	bcc.n	800028c <__divsi3+0x4c>
 8000288:	03cb      	lsls	r3, r1, #15
 800028a:	1ac0      	subs	r0, r0, r3
 800028c:	4152      	adcs	r2, r2
 800028e:	0b83      	lsrs	r3, r0, #14
 8000290:	428b      	cmp	r3, r1
 8000292:	d301      	bcc.n	8000298 <__divsi3+0x58>
 8000294:	038b      	lsls	r3, r1, #14
 8000296:	1ac0      	subs	r0, r0, r3
 8000298:	4152      	adcs	r2, r2
 800029a:	0b43      	lsrs	r3, r0, #13
 800029c:	428b      	cmp	r3, r1
 800029e:	d301      	bcc.n	80002a4 <__divsi3+0x64>
 80002a0:	034b      	lsls	r3, r1, #13
 80002a2:	1ac0      	subs	r0, r0, r3
 80002a4:	4152      	adcs	r2, r2
 80002a6:	0b03      	lsrs	r3, r0, #12
 80002a8:	428b      	cmp	r3, r1
 80002aa:	d301      	bcc.n	80002b0 <__divsi3+0x70>
 80002ac:	030b      	lsls	r3, r1, #12
 80002ae:	1ac0      	subs	r0, r0, r3
 80002b0:	4152      	adcs	r2, r2
 80002b2:	0ac3      	lsrs	r3, r0, #11
 80002b4:	428b      	cmp	r3, r1
 80002b6:	d301      	bcc.n	80002bc <__divsi3+0x7c>
 80002b8:	02cb      	lsls	r3, r1, #11
 80002ba:	1ac0      	subs	r0, r0, r3
 80002bc:	4152      	adcs	r2, r2
 80002be:	0a83      	lsrs	r3, r0, #10
 80002c0:	428b      	cmp	r3, r1
 80002c2:	d301      	bcc.n	80002c8 <__divsi3+0x88>
 80002c4:	028b      	lsls	r3, r1, #10
 80002c6:	1ac0      	subs	r0, r0, r3
 80002c8:	4152      	adcs	r2, r2
 80002ca:	0a43      	lsrs	r3, r0, #9
 80002cc:	428b      	cmp	r3, r1
 80002ce:	d301      	bcc.n	80002d4 <__divsi3+0x94>
 80002d0:	024b      	lsls	r3, r1, #9
 80002d2:	1ac0      	subs	r0, r0, r3
 80002d4:	4152      	adcs	r2, r2
 80002d6:	0a03      	lsrs	r3, r0, #8
 80002d8:	428b      	cmp	r3, r1
 80002da:	d301      	bcc.n	80002e0 <__divsi3+0xa0>
 80002dc:	020b      	lsls	r3, r1, #8
 80002de:	1ac0      	subs	r0, r0, r3
 80002e0:	4152      	adcs	r2, r2
 80002e2:	d2cd      	bcs.n	8000280 <__divsi3+0x40>
 80002e4:	09c3      	lsrs	r3, r0, #7
 80002e6:	428b      	cmp	r3, r1
 80002e8:	d301      	bcc.n	80002ee <__divsi3+0xae>
 80002ea:	01cb      	lsls	r3, r1, #7
 80002ec:	1ac0      	subs	r0, r0, r3
 80002ee:	4152      	adcs	r2, r2
 80002f0:	0983      	lsrs	r3, r0, #6
 80002f2:	428b      	cmp	r3, r1
 80002f4:	d301      	bcc.n	80002fa <__divsi3+0xba>
 80002f6:	018b      	lsls	r3, r1, #6
 80002f8:	1ac0      	subs	r0, r0, r3
 80002fa:	4152      	adcs	r2, r2
 80002fc:	0943      	lsrs	r3, r0, #5
 80002fe:	428b      	cmp	r3, r1
 8000300:	d301      	bcc.n	8000306 <__divsi3+0xc6>
 8000302:	014b      	lsls	r3, r1, #5
 8000304:	1ac0      	subs	r0, r0, r3
 8000306:	4152      	adcs	r2, r2
 8000308:	0903      	lsrs	r3, r0, #4
 800030a:	428b      	cmp	r3, r1
 800030c:	d301      	bcc.n	8000312 <__divsi3+0xd2>
 800030e:	010b      	lsls	r3, r1, #4
 8000310:	1ac0      	subs	r0, r0, r3
 8000312:	4152      	adcs	r2, r2
 8000314:	08c3      	lsrs	r3, r0, #3
 8000316:	428b      	cmp	r3, r1
 8000318:	d301      	bcc.n	800031e <__divsi3+0xde>
 800031a:	00cb      	lsls	r3, r1, #3
 800031c:	1ac0      	subs	r0, r0, r3
 800031e:	4152      	adcs	r2, r2
 8000320:	0883      	lsrs	r3, r0, #2
 8000322:	428b      	cmp	r3, r1
 8000324:	d301      	bcc.n	800032a <__divsi3+0xea>
 8000326:	008b      	lsls	r3, r1, #2
 8000328:	1ac0      	subs	r0, r0, r3
 800032a:	4152      	adcs	r2, r2
 800032c:	0843      	lsrs	r3, r0, #1
 800032e:	428b      	cmp	r3, r1
 8000330:	d301      	bcc.n	8000336 <__divsi3+0xf6>
 8000332:	004b      	lsls	r3, r1, #1
 8000334:	1ac0      	subs	r0, r0, r3
 8000336:	4152      	adcs	r2, r2
 8000338:	1a41      	subs	r1, r0, r1
 800033a:	d200      	bcs.n	800033e <__divsi3+0xfe>
 800033c:	4601      	mov	r1, r0
 800033e:	4152      	adcs	r2, r2
 8000340:	4610      	mov	r0, r2
 8000342:	4770      	bx	lr
 8000344:	e05d      	b.n	8000402 <__divsi3+0x1c2>
 8000346:	0fca      	lsrs	r2, r1, #31
 8000348:	d000      	beq.n	800034c <__divsi3+0x10c>
 800034a:	4249      	negs	r1, r1
 800034c:	1003      	asrs	r3, r0, #32
 800034e:	d300      	bcc.n	8000352 <__divsi3+0x112>
 8000350:	4240      	negs	r0, r0
 8000352:	4053      	eors	r3, r2
 8000354:	2200      	movs	r2, #0
 8000356:	469c      	mov	ip, r3
 8000358:	0903      	lsrs	r3, r0, #4
 800035a:	428b      	cmp	r3, r1
 800035c:	d32d      	bcc.n	80003ba <__divsi3+0x17a>
 800035e:	0a03      	lsrs	r3, r0, #8
 8000360:	428b      	cmp	r3, r1
 8000362:	d312      	bcc.n	800038a <__divsi3+0x14a>
 8000364:	22fc      	movs	r2, #252	; 0xfc
 8000366:	0189      	lsls	r1, r1, #6
 8000368:	ba12      	rev	r2, r2
 800036a:	0a03      	lsrs	r3, r0, #8
 800036c:	428b      	cmp	r3, r1
 800036e:	d30c      	bcc.n	800038a <__divsi3+0x14a>
 8000370:	0189      	lsls	r1, r1, #6
 8000372:	1192      	asrs	r2, r2, #6
 8000374:	428b      	cmp	r3, r1
 8000376:	d308      	bcc.n	800038a <__divsi3+0x14a>
 8000378:	0189      	lsls	r1, r1, #6
 800037a:	1192      	asrs	r2, r2, #6
 800037c:	428b      	cmp	r3, r1
 800037e:	d304      	bcc.n	800038a <__divsi3+0x14a>
 8000380:	0189      	lsls	r1, r1, #6
 8000382:	d03a      	beq.n	80003fa <__divsi3+0x1ba>
 8000384:	1192      	asrs	r2, r2, #6
 8000386:	e000      	b.n	800038a <__divsi3+0x14a>
 8000388:	0989      	lsrs	r1, r1, #6
 800038a:	09c3      	lsrs	r3, r0, #7
 800038c:	428b      	cmp	r3, r1
 800038e:	d301      	bcc.n	8000394 <__divsi3+0x154>
 8000390:	01cb      	lsls	r3, r1, #7
 8000392:	1ac0      	subs	r0, r0, r3
 8000394:	4152      	adcs	r2, r2
 8000396:	0983      	lsrs	r3, r0, #6
 8000398:	428b      	cmp	r3, r1
 800039a:	d301      	bcc.n	80003a0 <__divsi3+0x160>
 800039c:	018b      	lsls	r3, r1, #6
 800039e:	1ac0      	subs	r0, r0, r3
 80003a0:	4152      	adcs	r2, r2
 80003a2:	0943      	lsrs	r3, r0, #5
 80003a4:	428b      	cmp	r3, r1
 80003a6:	d301      	bcc.n	80003ac <__divsi3+0x16c>
 80003a8:	014b      	lsls	r3, r1, #5
 80003aa:	1ac0      	subs	r0, r0, r3
 80003ac:	4152      	adcs	r2, r2
 80003ae:	0903      	lsrs	r3, r0, #4
 80003b0:	428b      	cmp	r3, r1
 80003b2:	d301      	bcc.n	80003b8 <__divsi3+0x178>
 80003b4:	010b      	lsls	r3, r1, #4
 80003b6:	1ac0      	subs	r0, r0, r3
 80003b8:	4152      	adcs	r2, r2
 80003ba:	08c3      	lsrs	r3, r0, #3
 80003bc:	428b      	cmp	r3, r1
 80003be:	d301      	bcc.n	80003c4 <__divsi3+0x184>
 80003c0:	00cb      	lsls	r3, r1, #3
 80003c2:	1ac0      	subs	r0, r0, r3
 80003c4:	4152      	adcs	r2, r2
 80003c6:	0883      	lsrs	r3, r0, #2
 80003c8:	428b      	cmp	r3, r1
 80003ca:	d301      	bcc.n	80003d0 <__divsi3+0x190>
 80003cc:	008b      	lsls	r3, r1, #2
 80003ce:	1ac0      	subs	r0, r0, r3
 80003d0:	4152      	adcs	r2, r2
 80003d2:	d2d9      	bcs.n	8000388 <__divsi3+0x148>
 80003d4:	0843      	lsrs	r3, r0, #1
 80003d6:	428b      	cmp	r3, r1
 80003d8:	d301      	bcc.n	80003de <__divsi3+0x19e>
 80003da:	004b      	lsls	r3, r1, #1
 80003dc:	1ac0      	subs	r0, r0, r3
 80003de:	4152      	adcs	r2, r2
 80003e0:	1a41      	subs	r1, r0, r1
 80003e2:	d200      	bcs.n	80003e6 <__divsi3+0x1a6>
 80003e4:	4601      	mov	r1, r0
 80003e6:	4663      	mov	r3, ip
 80003e8:	4152      	adcs	r2, r2
 80003ea:	105b      	asrs	r3, r3, #1
 80003ec:	4610      	mov	r0, r2
 80003ee:	d301      	bcc.n	80003f4 <__divsi3+0x1b4>
 80003f0:	4240      	negs	r0, r0
 80003f2:	2b00      	cmp	r3, #0
 80003f4:	d500      	bpl.n	80003f8 <__divsi3+0x1b8>
 80003f6:	4249      	negs	r1, r1
 80003f8:	4770      	bx	lr
 80003fa:	4663      	mov	r3, ip
 80003fc:	105b      	asrs	r3, r3, #1
 80003fe:	d300      	bcc.n	8000402 <__divsi3+0x1c2>
 8000400:	4240      	negs	r0, r0
 8000402:	b501      	push	{r0, lr}
 8000404:	2000      	movs	r0, #0
 8000406:	f000 f805 	bl	8000414 <__aeabi_idiv0>
 800040a:	bd02      	pop	{r1, pc}

0800040c <__aeabi_idivmod>:
 800040c:	2900      	cmp	r1, #0
 800040e:	d0f8      	beq.n	8000402 <__divsi3+0x1c2>
 8000410:	e716      	b.n	8000240 <__divsi3>
 8000412:	4770      	bx	lr

08000414 <__aeabi_idiv0>:
 8000414:	4770      	bx	lr
 8000416:	46c0      	nop			; (mov r8, r8)

08000418 <__aeabi_uldivmod>:
 8000418:	2b00      	cmp	r3, #0
 800041a:	d111      	bne.n	8000440 <__aeabi_uldivmod+0x28>
 800041c:	2a00      	cmp	r2, #0
 800041e:	d10f      	bne.n	8000440 <__aeabi_uldivmod+0x28>
 8000420:	2900      	cmp	r1, #0
 8000422:	d100      	bne.n	8000426 <__aeabi_uldivmod+0xe>
 8000424:	2800      	cmp	r0, #0
 8000426:	d002      	beq.n	800042e <__aeabi_uldivmod+0x16>
 8000428:	2100      	movs	r1, #0
 800042a:	43c9      	mvns	r1, r1
 800042c:	1c08      	adds	r0, r1, #0
 800042e:	b407      	push	{r0, r1, r2}
 8000430:	4802      	ldr	r0, [pc, #8]	; (800043c <__aeabi_uldivmod+0x24>)
 8000432:	a102      	add	r1, pc, #8	; (adr r1, 800043c <__aeabi_uldivmod+0x24>)
 8000434:	1840      	adds	r0, r0, r1
 8000436:	9002      	str	r0, [sp, #8]
 8000438:	bd03      	pop	{r0, r1, pc}
 800043a:	46c0      	nop			; (mov r8, r8)
 800043c:	ffffffd9 	.word	0xffffffd9
 8000440:	b403      	push	{r0, r1}
 8000442:	4668      	mov	r0, sp
 8000444:	b501      	push	{r0, lr}
 8000446:	9802      	ldr	r0, [sp, #8]
 8000448:	f000 f82e 	bl	80004a8 <__udivmoddi4>
 800044c:	9b01      	ldr	r3, [sp, #4]
 800044e:	469e      	mov	lr, r3
 8000450:	b002      	add	sp, #8
 8000452:	bc0c      	pop	{r2, r3}
 8000454:	4770      	bx	lr
 8000456:	46c0      	nop			; (mov r8, r8)

08000458 <__aeabi_lmul>:
 8000458:	b5f0      	push	{r4, r5, r6, r7, lr}
 800045a:	0415      	lsls	r5, r2, #16
 800045c:	0c2d      	lsrs	r5, r5, #16
 800045e:	000f      	movs	r7, r1
 8000460:	0001      	movs	r1, r0
 8000462:	002e      	movs	r6, r5
 8000464:	46c6      	mov	lr, r8
 8000466:	4684      	mov	ip, r0
 8000468:	0400      	lsls	r0, r0, #16
 800046a:	0c14      	lsrs	r4, r2, #16
 800046c:	0c00      	lsrs	r0, r0, #16
 800046e:	0c09      	lsrs	r1, r1, #16
 8000470:	4346      	muls	r6, r0
 8000472:	434d      	muls	r5, r1
 8000474:	4360      	muls	r0, r4
 8000476:	4361      	muls	r1, r4
 8000478:	1940      	adds	r0, r0, r5
 800047a:	0c34      	lsrs	r4, r6, #16
 800047c:	1824      	adds	r4, r4, r0
 800047e:	b500      	push	{lr}
 8000480:	42a5      	cmp	r5, r4
 8000482:	d903      	bls.n	800048c <__aeabi_lmul+0x34>
 8000484:	2080      	movs	r0, #128	; 0x80
 8000486:	0240      	lsls	r0, r0, #9
 8000488:	4680      	mov	r8, r0
 800048a:	4441      	add	r1, r8
 800048c:	0c25      	lsrs	r5, r4, #16
 800048e:	186d      	adds	r5, r5, r1
 8000490:	4661      	mov	r1, ip
 8000492:	4359      	muls	r1, r3
 8000494:	437a      	muls	r2, r7
 8000496:	0430      	lsls	r0, r6, #16
 8000498:	1949      	adds	r1, r1, r5
 800049a:	0424      	lsls	r4, r4, #16
 800049c:	0c00      	lsrs	r0, r0, #16
 800049e:	1820      	adds	r0, r4, r0
 80004a0:	1889      	adds	r1, r1, r2
 80004a2:	bc80      	pop	{r7}
 80004a4:	46b8      	mov	r8, r7
 80004a6:	bdf0      	pop	{r4, r5, r6, r7, pc}

080004a8 <__udivmoddi4>:
 80004a8:	b5f0      	push	{r4, r5, r6, r7, lr}
 80004aa:	4657      	mov	r7, sl
 80004ac:	464e      	mov	r6, r9
 80004ae:	4645      	mov	r5, r8
 80004b0:	46de      	mov	lr, fp
 80004b2:	b5e0      	push	{r5, r6, r7, lr}
 80004b4:	0004      	movs	r4, r0
 80004b6:	000d      	movs	r5, r1
 80004b8:	4692      	mov	sl, r2
 80004ba:	4699      	mov	r9, r3
 80004bc:	b083      	sub	sp, #12
 80004be:	428b      	cmp	r3, r1
 80004c0:	d830      	bhi.n	8000524 <__udivmoddi4+0x7c>
 80004c2:	d02d      	beq.n	8000520 <__udivmoddi4+0x78>
 80004c4:	4649      	mov	r1, r9
 80004c6:	4650      	mov	r0, sl
 80004c8:	f000 f8ba 	bl	8000640 <__clzdi2>
 80004cc:	0029      	movs	r1, r5
 80004ce:	0006      	movs	r6, r0
 80004d0:	0020      	movs	r0, r4
 80004d2:	f000 f8b5 	bl	8000640 <__clzdi2>
 80004d6:	1a33      	subs	r3, r6, r0
 80004d8:	4698      	mov	r8, r3
 80004da:	3b20      	subs	r3, #32
 80004dc:	469b      	mov	fp, r3
 80004de:	d433      	bmi.n	8000548 <__udivmoddi4+0xa0>
 80004e0:	465a      	mov	r2, fp
 80004e2:	4653      	mov	r3, sl
 80004e4:	4093      	lsls	r3, r2
 80004e6:	4642      	mov	r2, r8
 80004e8:	001f      	movs	r7, r3
 80004ea:	4653      	mov	r3, sl
 80004ec:	4093      	lsls	r3, r2
 80004ee:	001e      	movs	r6, r3
 80004f0:	42af      	cmp	r7, r5
 80004f2:	d83a      	bhi.n	800056a <__udivmoddi4+0xc2>
 80004f4:	42af      	cmp	r7, r5
 80004f6:	d100      	bne.n	80004fa <__udivmoddi4+0x52>
 80004f8:	e078      	b.n	80005ec <__udivmoddi4+0x144>
 80004fa:	465b      	mov	r3, fp
 80004fc:	1ba4      	subs	r4, r4, r6
 80004fe:	41bd      	sbcs	r5, r7
 8000500:	2b00      	cmp	r3, #0
 8000502:	da00      	bge.n	8000506 <__udivmoddi4+0x5e>
 8000504:	e075      	b.n	80005f2 <__udivmoddi4+0x14a>
 8000506:	2200      	movs	r2, #0
 8000508:	2300      	movs	r3, #0
 800050a:	9200      	str	r2, [sp, #0]
 800050c:	9301      	str	r3, [sp, #4]
 800050e:	2301      	movs	r3, #1
 8000510:	465a      	mov	r2, fp
 8000512:	4093      	lsls	r3, r2
 8000514:	9301      	str	r3, [sp, #4]
 8000516:	2301      	movs	r3, #1
 8000518:	4642      	mov	r2, r8
 800051a:	4093      	lsls	r3, r2
 800051c:	9300      	str	r3, [sp, #0]
 800051e:	e028      	b.n	8000572 <__udivmoddi4+0xca>
 8000520:	4282      	cmp	r2, r0
 8000522:	d9cf      	bls.n	80004c4 <__udivmoddi4+0x1c>
 8000524:	2200      	movs	r2, #0
 8000526:	2300      	movs	r3, #0
 8000528:	9200      	str	r2, [sp, #0]
 800052a:	9301      	str	r3, [sp, #4]
 800052c:	9b0c      	ldr	r3, [sp, #48]	; 0x30
 800052e:	2b00      	cmp	r3, #0
 8000530:	d001      	beq.n	8000536 <__udivmoddi4+0x8e>
 8000532:	601c      	str	r4, [r3, #0]
 8000534:	605d      	str	r5, [r3, #4]
 8000536:	9800      	ldr	r0, [sp, #0]
 8000538:	9901      	ldr	r1, [sp, #4]
 800053a:	b003      	add	sp, #12
 800053c:	bcf0      	pop	{r4, r5, r6, r7}
 800053e:	46bb      	mov	fp, r7
 8000540:	46b2      	mov	sl, r6
 8000542:	46a9      	mov	r9, r5
 8000544:	46a0      	mov	r8, r4
 8000546:	bdf0      	pop	{r4, r5, r6, r7, pc}
 8000548:	4642      	mov	r2, r8
 800054a:	2320      	movs	r3, #32
 800054c:	1a9b      	subs	r3, r3, r2
 800054e:	4652      	mov	r2, sl
 8000550:	40da      	lsrs	r2, r3
 8000552:	4641      	mov	r1, r8
 8000554:	0013      	movs	r3, r2
 8000556:	464a      	mov	r2, r9
 8000558:	408a      	lsls	r2, r1
 800055a:	0017      	movs	r7, r2
 800055c:	4642      	mov	r2, r8
 800055e:	431f      	orrs	r7, r3
 8000560:	4653      	mov	r3, sl
 8000562:	4093      	lsls	r3, r2
 8000564:	001e      	movs	r6, r3
 8000566:	42af      	cmp	r7, r5
 8000568:	d9c4      	bls.n	80004f4 <__udivmoddi4+0x4c>
 800056a:	2200      	movs	r2, #0
 800056c:	2300      	movs	r3, #0
 800056e:	9200      	str	r2, [sp, #0]
 8000570:	9301      	str	r3, [sp, #4]
 8000572:	4643      	mov	r3, r8
 8000574:	2b00      	cmp	r3, #0
 8000576:	d0d9      	beq.n	800052c <__udivmoddi4+0x84>
 8000578:	07fb      	lsls	r3, r7, #31
 800057a:	0872      	lsrs	r2, r6, #1
 800057c:	431a      	orrs	r2, r3
 800057e:	4646      	mov	r6, r8
 8000580:	087b      	lsrs	r3, r7, #1
 8000582:	e00e      	b.n	80005a2 <__udivmoddi4+0xfa>
 8000584:	42ab      	cmp	r3, r5
 8000586:	d101      	bne.n	800058c <__udivmoddi4+0xe4>
 8000588:	42a2      	cmp	r2, r4
 800058a:	d80c      	bhi.n	80005a6 <__udivmoddi4+0xfe>
 800058c:	1aa4      	subs	r4, r4, r2
 800058e:	419d      	sbcs	r5, r3
 8000590:	2001      	movs	r0, #1
 8000592:	1924      	adds	r4, r4, r4
 8000594:	416d      	adcs	r5, r5
 8000596:	2100      	movs	r1, #0
 8000598:	3e01      	subs	r6, #1
 800059a:	1824      	adds	r4, r4, r0
 800059c:	414d      	adcs	r5, r1
 800059e:	2e00      	cmp	r6, #0
 80005a0:	d006      	beq.n	80005b0 <__udivmoddi4+0x108>
 80005a2:	42ab      	cmp	r3, r5
 80005a4:	d9ee      	bls.n	8000584 <__udivmoddi4+0xdc>
 80005a6:	3e01      	subs	r6, #1
 80005a8:	1924      	adds	r4, r4, r4
 80005aa:	416d      	adcs	r5, r5
 80005ac:	2e00      	cmp	r6, #0
 80005ae:	d1f8      	bne.n	80005a2 <__udivmoddi4+0xfa>
 80005b0:	9800      	ldr	r0, [sp, #0]
 80005b2:	9901      	ldr	r1, [sp, #4]
 80005b4:	465b      	mov	r3, fp
 80005b6:	1900      	adds	r0, r0, r4
 80005b8:	4169      	adcs	r1, r5
 80005ba:	2b00      	cmp	r3, #0
 80005bc:	db24      	blt.n	8000608 <__udivmoddi4+0x160>
 80005be:	002b      	movs	r3, r5
 80005c0:	465a      	mov	r2, fp
 80005c2:	4644      	mov	r4, r8
 80005c4:	40d3      	lsrs	r3, r2
 80005c6:	002a      	movs	r2, r5
 80005c8:	40e2      	lsrs	r2, r4
 80005ca:	001c      	movs	r4, r3
 80005cc:	465b      	mov	r3, fp
 80005ce:	0015      	movs	r5, r2
 80005d0:	2b00      	cmp	r3, #0
 80005d2:	db2a      	blt.n	800062a <__udivmoddi4+0x182>
 80005d4:	0026      	movs	r6, r4
 80005d6:	409e      	lsls	r6, r3
 80005d8:	0033      	movs	r3, r6
 80005da:	0026      	movs	r6, r4
 80005dc:	4647      	mov	r7, r8
 80005de:	40be      	lsls	r6, r7
 80005e0:	0032      	movs	r2, r6
 80005e2:	1a80      	subs	r0, r0, r2
 80005e4:	4199      	sbcs	r1, r3
 80005e6:	9000      	str	r0, [sp, #0]
 80005e8:	9101      	str	r1, [sp, #4]
 80005ea:	e79f      	b.n	800052c <__udivmoddi4+0x84>
 80005ec:	42a3      	cmp	r3, r4
 80005ee:	d8bc      	bhi.n	800056a <__udivmoddi4+0xc2>
 80005f0:	e783      	b.n	80004fa <__udivmoddi4+0x52>
 80005f2:	4642      	mov	r2, r8
 80005f4:	2320      	movs	r3, #32
 80005f6:	2100      	movs	r1, #0
 80005f8:	1a9b      	subs	r3, r3, r2
 80005fa:	2200      	movs	r2, #0
 80005fc:	9100      	str	r1, [sp, #0]
 80005fe:	9201      	str	r2, [sp, #4]
 8000600:	2201      	movs	r2, #1
 8000602:	40da      	lsrs	r2, r3
 8000604:	9201      	str	r2, [sp, #4]
 8000606:	e786      	b.n	8000516 <__udivmoddi4+0x6e>
 8000608:	4642      	mov	r2, r8
 800060a:	2320      	movs	r3, #32
 800060c:	1a9b      	subs	r3, r3, r2
 800060e:	002a      	movs	r2, r5
 8000610:	4646      	mov	r6, r8
 8000612:	409a      	lsls	r2, r3
 8000614:	0023      	movs	r3, r4
 8000616:	40f3      	lsrs	r3, r6
 8000618:	4644      	mov	r4, r8
 800061a:	4313      	orrs	r3, r2
 800061c:	002a      	movs	r2, r5
 800061e:	40e2      	lsrs	r2, r4
 8000620:	001c      	movs	r4, r3
 8000622:	465b      	mov	r3, fp
 8000624:	0015      	movs	r5, r2
 8000626:	2b00      	cmp	r3, #0
 8000628:	dad4      	bge.n	80005d4 <__udivmoddi4+0x12c>
 800062a:	4642      	mov	r2, r8
 800062c:	002f      	movs	r7, r5
 800062e:	2320      	movs	r3, #32
 8000630:	0026      	movs	r6, r4
 8000632:	4097      	lsls	r7, r2
 8000634:	1a9b      	subs	r3, r3, r2
 8000636:	40de      	lsrs	r6, r3
 8000638:	003b      	movs	r3, r7
 800063a:	4333      	orrs	r3, r6
 800063c:	e7cd      	b.n	80005da <__udivmoddi4+0x132>
 800063e:	46c0      	nop			; (mov r8, r8)

08000640 <__clzdi2>:
 8000640:	b510      	push	{r4, lr}
 8000642:	2900      	cmp	r1, #0
 8000644:	d103      	bne.n	800064e <__clzdi2+0xe>
 8000646:	f000 f807 	bl	8000658 <__clzsi2>
 800064a:	3020      	adds	r0, #32
 800064c:	e002      	b.n	8000654 <__clzdi2+0x14>
 800064e:	1c08      	adds	r0, r1, #0
 8000650:	f000 f802 	bl	8000658 <__clzsi2>
 8000654:	bd10      	pop	{r4, pc}
 8000656:	46c0      	nop			; (mov r8, r8)

08000658 <__clzsi2>:
 8000658:	211c      	movs	r1, #28
 800065a:	2301      	movs	r3, #1
 800065c:	041b      	lsls	r3, r3, #16
 800065e:	4298      	cmp	r0, r3
 8000660:	d301      	bcc.n	8000666 <__clzsi2+0xe>
 8000662:	0c00      	lsrs	r0, r0, #16
 8000664:	3910      	subs	r1, #16
 8000666:	0a1b      	lsrs	r3, r3, #8
 8000668:	4298      	cmp	r0, r3
 800066a:	d301      	bcc.n	8000670 <__clzsi2+0x18>
 800066c:	0a00      	lsrs	r0, r0, #8
 800066e:	3908      	subs	r1, #8
 8000670:	091b      	lsrs	r3, r3, #4
 8000672:	4298      	cmp	r0, r3
 8000674:	d301      	bcc.n	800067a <__clzsi2+0x22>
 8000676:	0900      	lsrs	r0, r0, #4
 8000678:	3904      	subs	r1, #4
 800067a:	a202      	add	r2, pc, #8	; (adr r2, 8000684 <__clzsi2+0x2c>)
 800067c:	5c10      	ldrb	r0, [r2, r0]
 800067e:	1840      	adds	r0, r0, r1
 8000680:	4770      	bx	lr
 8000682:	46c0      	nop			; (mov r8, r8)
 8000684:	02020304 	.word	0x02020304
 8000688:	01010101 	.word	0x01010101
	...

08000694 <main>:
/**
  * @brief  The application entry point.
  * @retval int
  */
int main(void)
{
 8000694:	b590      	push	{r4, r7, lr}
 8000696:	b095      	sub	sp, #84	; 0x54
 8000698:	af00      	add	r7, sp, #0
  /* USER CODE END 1 */

  /* MCU Configuration--------------------------------------------------------*/

  /* Reset of all peripherals, Initializes the Flash interface and the Systick. */
  HAL_Init();
 800069a:	f001 fdb9 	bl	8002210 <HAL_Init>
  /* USER CODE BEGIN Init */

  /* USER CODE END Init */

  /* Configure the system clock */
  SystemClock_Config();
 800069e:	f000 fa69 	bl	8000b74 <SystemClock_Config>
  /* USER CODE BEGIN SysInit */

  /* USER CODE END SysInit */

  /* Initialize all configured peripherals */
  MX_GPIO_Init();
 80006a2:	f000 fc1d 	bl	8000ee0 <MX_GPIO_Init>
  MX_USART5_UART_Init();
 80006a6:	f000 fbeb 	bl	8000e80 <MX_USART5_UART_Init>
  MX_USART2_UART_Init();
 80006aa:	f000 fbb9 	bl	8000e20 <MX_USART2_UART_Init>
  MX_TIM3_Init();
 80006ae:	f000 fb5f 	bl	8000d70 <MX_TIM3_Init>
  MX_SPI2_Init();
 80006b2:	f000 fad1 	bl	8000c58 <MX_SPI2_Init>
  MX_TIM2_Init();
 80006b6:	f000 fb07 	bl	8000cc8 <MX_TIM2_Init>
  /* USER CODE BEGIN 2 */

  HAL_TIM_Base_Start_IT(&htim3);
 80006ba:	4bcb      	ldr	r3, [pc, #812]	; (80009e8 <main+0x354>)
 80006bc:	0018      	movs	r0, r3
 80006be:	f003 f9b5 	bl	8003a2c <HAL_TIM_Base_Start_IT>
  HAL_TIM_Base_Start_IT(&htim2);
 80006c2:	4bca      	ldr	r3, [pc, #808]	; (80009ec <main+0x358>)
 80006c4:	0018      	movs	r0, r3
 80006c6:	f003 f9b1 	bl	8003a2c <HAL_TIM_Base_Start_IT>

  HAL_GPIO_WritePin(GPIOB, LED_R, GPIO_PIN_SET);
 80006ca:	4bc9      	ldr	r3, [pc, #804]	; (80009f0 <main+0x35c>)
 80006cc:	2201      	movs	r2, #1
 80006ce:	2104      	movs	r1, #4
 80006d0:	0018      	movs	r0, r3
 80006d2:	f002 f932 	bl	800293a <HAL_GPIO_WritePin>
  HAL_GPIO_WritePin(GPIOB, LED_V, GPIO_PIN_RESET);
 80006d6:	2380      	movs	r3, #128	; 0x80
 80006d8:	00db      	lsls	r3, r3, #3
 80006da:	48c5      	ldr	r0, [pc, #788]	; (80009f0 <main+0x35c>)
 80006dc:	2200      	movs	r2, #0
 80006de:	0019      	movs	r1, r3
 80006e0:	f002 f92b 	bl	800293a <HAL_GPIO_WritePin>
  HAL_GPIO_WritePin(XBEE_SLEEP, 0);
 80006e4:	2380      	movs	r3, #128	; 0x80
 80006e6:	0219      	lsls	r1, r3, #8
 80006e8:	23a0      	movs	r3, #160	; 0xa0
 80006ea:	05db      	lsls	r3, r3, #23
 80006ec:	2200      	movs	r2, #0
 80006ee:	0018      	movs	r0, r3
 80006f0:	f002 f923 	bl	800293a <HAL_GPIO_WritePin>


  HAL_UART_Receive_IT(&huart5, &xbee_rx_last_byte, 1);
 80006f4:	49bf      	ldr	r1, [pc, #764]	; (80009f4 <main+0x360>)
 80006f6:	4bc0      	ldr	r3, [pc, #768]	; (80009f8 <main+0x364>)
 80006f8:	2201      	movs	r2, #1
 80006fa:	0018      	movs	r0, r3
 80006fc:	f003 fe16 	bl	800432c <HAL_UART_Receive_IT>
  {
    /* USER CODE END WHILE */

    /* USER CODE BEGIN 3 */
	  static uint16_t timeout;
	  char string[50] = {0};
 8000700:	1d3b      	adds	r3, r7, #4
 8000702:	2200      	movs	r2, #0
 8000704:	601a      	str	r2, [r3, #0]
 8000706:	3304      	adds	r3, #4
 8000708:	222e      	movs	r2, #46	; 0x2e
 800070a:	2100      	movs	r1, #0
 800070c:	0018      	movs	r0, r3
 800070e:	f005 f8ee 	bl	80058ee <memset>
	  static uint8_t attempts = 0;

	  switch(master_state){
 8000712:	4bba      	ldr	r3, [pc, #744]	; (80009fc <main+0x368>)
 8000714:	781b      	ldrb	r3, [r3, #0]
 8000716:	2b05      	cmp	r3, #5
 8000718:	d900      	bls.n	800071c <main+0x88>
 800071a:	e20f      	b.n	8000b3c <main+0x4a8>
 800071c:	009a      	lsls	r2, r3, #2
 800071e:	4bb8      	ldr	r3, [pc, #736]	; (8000a00 <main+0x36c>)
 8000720:	18d3      	adds	r3, r2, r3
 8000722:	681b      	ldr	r3, [r3, #0]
 8000724:	469f      	mov	pc, r3

	  	  case lora_init:
	  		  signal_state = signal_connecting;
 8000726:	4bb7      	ldr	r3, [pc, #732]	; (8000a04 <main+0x370>)
 8000728:	2202      	movs	r2, #2
 800072a:	701a      	strb	r2, [r3, #0]
	  		  master_state = xbee_init;
 800072c:	4bb3      	ldr	r3, [pc, #716]	; (80009fc <main+0x368>)
 800072e:	2201      	movs	r2, #1
 8000730:	701a      	strb	r2, [r3, #0]
	  	  break;
 8000732:	e20a      	b.n	8000b4a <main+0x4b6>
	  	  case xbee_init:
			  switch(xbee_send_state){
 8000734:	4bb4      	ldr	r3, [pc, #720]	; (8000a08 <main+0x374>)
 8000736:	781b      	ldrb	r3, [r3, #0]
 8000738:	2b05      	cmp	r3, #5
 800073a:	d900      	bls.n	800073e <main+0xaa>
 800073c:	e1c0      	b.n	8000ac0 <main+0x42c>
 800073e:	009a      	lsls	r2, r3, #2
 8000740:	4bb2      	ldr	r3, [pc, #712]	; (8000a0c <main+0x378>)
 8000742:	18d3      	adds	r3, r2, r3
 8000744:	681b      	ldr	r3, [r3, #0]
 8000746:	469f      	mov	pc, r3

				  case enter_command_mode:
					  HAL_GPIO_TogglePin (GPIOB, GPIO_PIN_2);
 8000748:	4ba9      	ldr	r3, [pc, #676]	; (80009f0 <main+0x35c>)
 800074a:	2104      	movs	r1, #4
 800074c:	0018      	movs	r0, r3
 800074e:	f002 f911 	bl	8002974 <HAL_GPIO_TogglePin>
					  HAL_UART_Transmit(&huart5, "+++", 3, 100);
 8000752:	49af      	ldr	r1, [pc, #700]	; (8000a10 <main+0x37c>)
 8000754:	48a8      	ldr	r0, [pc, #672]	; (80009f8 <main+0x364>)
 8000756:	2364      	movs	r3, #100	; 0x64
 8000758:	2203      	movs	r2, #3
 800075a:	f003 fd3f 	bl	80041dc <HAL_UART_Transmit>
					  timeout = 0;
 800075e:	4bad      	ldr	r3, [pc, #692]	; (8000a14 <main+0x380>)
 8000760:	2200      	movs	r2, #0
 8000762:	801a      	strh	r2, [r3, #0]
					  xbee_send_state = command_mode_ok;
 8000764:	4ba8      	ldr	r3, [pc, #672]	; (8000a08 <main+0x374>)
 8000766:	2201      	movs	r2, #1
 8000768:	701a      	strb	r2, [r3, #0]
					  if(attempts >= max_attempts){
 800076a:	4bab      	ldr	r3, [pc, #684]	; (8000a18 <main+0x384>)
 800076c:	781b      	ldrb	r3, [r3, #0]
 800076e:	2b04      	cmp	r3, #4
 8000770:	d905      	bls.n	800077e <main+0xea>
						  signal_state = signal_fault;
 8000772:	4ba4      	ldr	r3, [pc, #656]	; (8000a04 <main+0x370>)
 8000774:	2204      	movs	r2, #4
 8000776:	701a      	strb	r2, [r3, #0]
						  master_state = master_idle;
 8000778:	4ba0      	ldr	r3, [pc, #640]	; (80009fc <main+0x368>)
 800077a:	2202      	movs	r2, #2
 800077c:	701a      	strb	r2, [r3, #0]
					  }
					  attempts++;
 800077e:	4ba6      	ldr	r3, [pc, #664]	; (8000a18 <main+0x384>)
 8000780:	781b      	ldrb	r3, [r3, #0]
 8000782:	3301      	adds	r3, #1
 8000784:	b2da      	uxtb	r2, r3
 8000786:	4ba4      	ldr	r3, [pc, #656]	; (8000a18 <main+0x384>)
 8000788:	701a      	strb	r2, [r3, #0]
				  break;
 800078a:	e1a0      	b.n	8000ace <main+0x43a>

				  case command_mode_ok:
					  if(cr_flag){
 800078c:	4ba3      	ldr	r3, [pc, #652]	; (8000a1c <main+0x388>)
 800078e:	781b      	ldrb	r3, [r3, #0]
 8000790:	2b00      	cmp	r3, #0
 8000792:	d01a      	beq.n	80007ca <main+0x136>
						  if(xbee_rx_buffer[cr_flag-2] == 'O' && xbee_rx_buffer[cr_flag-1] == 'K'){
 8000794:	4ba1      	ldr	r3, [pc, #644]	; (8000a1c <main+0x388>)
 8000796:	781b      	ldrb	r3, [r3, #0]
 8000798:	3b02      	subs	r3, #2
 800079a:	4aa1      	ldr	r2, [pc, #644]	; (8000a20 <main+0x38c>)
 800079c:	5cd3      	ldrb	r3, [r2, r3]
 800079e:	2b4f      	cmp	r3, #79	; 0x4f
 80007a0:	d10f      	bne.n	80007c2 <main+0x12e>
 80007a2:	4b9e      	ldr	r3, [pc, #632]	; (8000a1c <main+0x388>)
 80007a4:	781b      	ldrb	r3, [r3, #0]
 80007a6:	3b01      	subs	r3, #1
 80007a8:	4a9d      	ldr	r2, [pc, #628]	; (8000a20 <main+0x38c>)
 80007aa:	5cd3      	ldrb	r3, [r2, r3]
 80007ac:	2b4b      	cmp	r3, #75	; 0x4b
 80007ae:	d108      	bne.n	80007c2 <main+0x12e>
							  xbee_send_state = single_command;
 80007b0:	4b95      	ldr	r3, [pc, #596]	; (8000a08 <main+0x374>)
 80007b2:	2204      	movs	r2, #4
 80007b4:	701a      	strb	r2, [r3, #0]
							  HAL_Delay(10);
 80007b6:	200a      	movs	r0, #10
 80007b8:	f001 fd9a 	bl	80022f0 <HAL_Delay>
							  timeout = 0;
 80007bc:	4b95      	ldr	r3, [pc, #596]	; (8000a14 <main+0x380>)
 80007be:	2200      	movs	r2, #0
 80007c0:	801a      	strh	r2, [r3, #0]
						  }
						  cr_flag = 0;
 80007c2:	4b96      	ldr	r3, [pc, #600]	; (8000a1c <main+0x388>)
 80007c4:	2200      	movs	r2, #0
 80007c6:	701a      	strb	r2, [r3, #0]
						  HAL_Delay(1);
						  timeout++;
						  if (timeout >= timeout_duration)
							  xbee_send_state = enter_command_mode;
					  }
				  break;
 80007c8:	e17c      	b.n	8000ac4 <main+0x430>
						  HAL_Delay(1);
 80007ca:	2001      	movs	r0, #1
 80007cc:	f001 fd90 	bl	80022f0 <HAL_Delay>
						  timeout++;
 80007d0:	4b90      	ldr	r3, [pc, #576]	; (8000a14 <main+0x380>)
 80007d2:	881b      	ldrh	r3, [r3, #0]
 80007d4:	3301      	adds	r3, #1
 80007d6:	b29a      	uxth	r2, r3
 80007d8:	4b8e      	ldr	r3, [pc, #568]	; (8000a14 <main+0x380>)
 80007da:	801a      	strh	r2, [r3, #0]
						  if (timeout >= timeout_duration)
 80007dc:	4b8d      	ldr	r3, [pc, #564]	; (8000a14 <main+0x380>)
 80007de:	881a      	ldrh	r2, [r3, #0]
 80007e0:	23fa      	movs	r3, #250	; 0xfa
 80007e2:	005b      	lsls	r3, r3, #1
 80007e4:	429a      	cmp	r2, r3
 80007e6:	d200      	bcs.n	80007ea <main+0x156>
 80007e8:	e16c      	b.n	8000ac4 <main+0x430>
							  xbee_send_state = enter_command_mode;
 80007ea:	4b87      	ldr	r3, [pc, #540]	; (8000a08 <main+0x374>)
 80007ec:	2200      	movs	r2, #0
 80007ee:	701a      	strb	r2, [r3, #0]
				  break;
 80007f0:	e168      	b.n	8000ac4 <main+0x430>

				  case single_command:
				  	  if (config[1][1][0] == '\0'){
 80007f2:	4b8c      	ldr	r3, [pc, #560]	; (8000a24 <main+0x390>)
 80007f4:	7f9b      	ldrb	r3, [r3, #30]
 80007f6:	2b00      	cmp	r3, #0
 80007f8:	d106      	bne.n	8000808 <main+0x174>
						  HAL_UART_Transmit(&huart5, "ATSL\r", 5, 100);
 80007fa:	498b      	ldr	r1, [pc, #556]	; (8000a28 <main+0x394>)
 80007fc:	487e      	ldr	r0, [pc, #504]	; (80009f8 <main+0x364>)
 80007fe:	2364      	movs	r3, #100	; 0x64
 8000800:	2205      	movs	r2, #5
 8000802:	f003 fceb 	bl	80041dc <HAL_UART_Transmit>
 8000806:	e00c      	b.n	8000822 <main+0x18e>
				  	  }
					  else if (xbee_reset==0){
 8000808:	4b88      	ldr	r3, [pc, #544]	; (8000a2c <main+0x398>)
 800080a:	781b      	ldrb	r3, [r3, #0]
 800080c:	2b00      	cmp	r3, #0
 800080e:	d108      	bne.n	8000822 <main+0x18e>
						  HAL_UART_Transmit(&huart5, "ATRE\r", 5, 100);
 8000810:	4987      	ldr	r1, [pc, #540]	; (8000a30 <main+0x39c>)
 8000812:	4879      	ldr	r0, [pc, #484]	; (80009f8 <main+0x364>)
 8000814:	2364      	movs	r3, #100	; 0x64
 8000816:	2205      	movs	r2, #5
 8000818:	f003 fce0 	bl	80041dc <HAL_UART_Transmit>
						  xbee_reset = 1;
 800081c:	4b83      	ldr	r3, [pc, #524]	; (8000a2c <main+0x398>)
 800081e:	2201      	movs	r2, #1
 8000820:	701a      	strb	r2, [r3, #0]
					  }
					  timeout = 0;
 8000822:	4b7c      	ldr	r3, [pc, #496]	; (8000a14 <main+0x380>)
 8000824:	2200      	movs	r2, #0
 8000826:	801a      	strh	r2, [r3, #0]
					  xbee_send_state = single_command_ok;
 8000828:	4b77      	ldr	r3, [pc, #476]	; (8000a08 <main+0x374>)
 800082a:	2205      	movs	r2, #5
 800082c:	701a      	strb	r2, [r3, #0]
				  break;
 800082e:	e14e      	b.n	8000ace <main+0x43a>

				  case single_command_ok:
					  if(cr_flag){
 8000830:	4b7a      	ldr	r3, [pc, #488]	; (8000a1c <main+0x388>)
 8000832:	781b      	ldrb	r3, [r3, #0]
 8000834:	2b00      	cmp	r3, #0
 8000836:	d042      	beq.n	80008be <main+0x22a>
						  if(config[1][1][0] == '\0'){
 8000838:	4b7a      	ldr	r3, [pc, #488]	; (8000a24 <main+0x390>)
 800083a:	7f9b      	ldrb	r3, [r3, #30]
 800083c:	2b00      	cmp	r3, #0
 800083e:	d123      	bne.n	8000888 <main+0x1f4>
							  for(uint8_t i = 0; i<8; i++) config[1][1][i] = xbee_rx_buffer[cr_flag+i-8];
 8000840:	234f      	movs	r3, #79	; 0x4f
 8000842:	18fb      	adds	r3, r7, r3
 8000844:	2200      	movs	r2, #0
 8000846:	701a      	strb	r2, [r3, #0]
 8000848:	e015      	b.n	8000876 <main+0x1e2>
 800084a:	4b74      	ldr	r3, [pc, #464]	; (8000a1c <main+0x388>)
 800084c:	781b      	ldrb	r3, [r3, #0]
 800084e:	001a      	movs	r2, r3
 8000850:	204f      	movs	r0, #79	; 0x4f
 8000852:	183b      	adds	r3, r7, r0
 8000854:	781b      	ldrb	r3, [r3, #0]
 8000856:	18d3      	adds	r3, r2, r3
 8000858:	3b08      	subs	r3, #8
 800085a:	001a      	movs	r2, r3
 800085c:	183b      	adds	r3, r7, r0
 800085e:	781b      	ldrb	r3, [r3, #0]
 8000860:	496f      	ldr	r1, [pc, #444]	; (8000a20 <main+0x38c>)
 8000862:	5c89      	ldrb	r1, [r1, r2]
 8000864:	4a6f      	ldr	r2, [pc, #444]	; (8000a24 <main+0x390>)
 8000866:	18d3      	adds	r3, r2, r3
 8000868:	1c0a      	adds	r2, r1, #0
 800086a:	779a      	strb	r2, [r3, #30]
 800086c:	183b      	adds	r3, r7, r0
 800086e:	781a      	ldrb	r2, [r3, #0]
 8000870:	183b      	adds	r3, r7, r0
 8000872:	3201      	adds	r2, #1
 8000874:	701a      	strb	r2, [r3, #0]
 8000876:	234f      	movs	r3, #79	; 0x4f
 8000878:	18fb      	adds	r3, r7, r3
 800087a:	781b      	ldrb	r3, [r3, #0]
 800087c:	2b07      	cmp	r3, #7
 800087e:	d9e4      	bls.n	800084a <main+0x1b6>
							  xbee_send_state = single_command;
 8000880:	4b61      	ldr	r3, [pc, #388]	; (8000a08 <main+0x374>)
 8000882:	2204      	movs	r2, #4
 8000884:	701a      	strb	r2, [r3, #0]
 8000886:	e016      	b.n	80008b6 <main+0x222>
						  }
						  else if(xbee_rx_buffer[cr_flag-2] == 'O' && xbee_rx_buffer[cr_flag-1] == 'K'){
 8000888:	4b64      	ldr	r3, [pc, #400]	; (8000a1c <main+0x388>)
 800088a:	781b      	ldrb	r3, [r3, #0]
 800088c:	3b02      	subs	r3, #2
 800088e:	4a64      	ldr	r2, [pc, #400]	; (8000a20 <main+0x38c>)
 8000890:	5cd3      	ldrb	r3, [r2, r3]
 8000892:	2b4f      	cmp	r3, #79	; 0x4f
 8000894:	d10f      	bne.n	80008b6 <main+0x222>
 8000896:	4b61      	ldr	r3, [pc, #388]	; (8000a1c <main+0x388>)
 8000898:	781b      	ldrb	r3, [r3, #0]
 800089a:	3b01      	subs	r3, #1
 800089c:	4a60      	ldr	r2, [pc, #384]	; (8000a20 <main+0x38c>)
 800089e:	5cd3      	ldrb	r3, [r2, r3]
 80008a0:	2b4b      	cmp	r3, #75	; 0x4b
 80008a2:	d108      	bne.n	80008b6 <main+0x222>
							  xbee_send_state = send_config;
 80008a4:	4b58      	ldr	r3, [pc, #352]	; (8000a08 <main+0x374>)
 80008a6:	2202      	movs	r2, #2
 80008a8:	701a      	strb	r2, [r3, #0]
							  HAL_Delay(10);
 80008aa:	200a      	movs	r0, #10
 80008ac:	f001 fd20 	bl	80022f0 <HAL_Delay>
							  timeout = 0;
 80008b0:	4b58      	ldr	r3, [pc, #352]	; (8000a14 <main+0x380>)
 80008b2:	2200      	movs	r2, #0
 80008b4:	801a      	strh	r2, [r3, #0]
						  }
						  cr_flag = 0;
 80008b6:	4b59      	ldr	r3, [pc, #356]	; (8000a1c <main+0x388>)
 80008b8:	2200      	movs	r2, #0
 80008ba:	701a      	strb	r2, [r3, #0]
						  HAL_Delay(1);
						  timeout++;
						  if (timeout >= timeout_duration)
							  xbee_send_state = enter_command_mode;
					  }
				  break;
 80008bc:	e104      	b.n	8000ac8 <main+0x434>
						  HAL_Delay(1);
 80008be:	2001      	movs	r0, #1
 80008c0:	f001 fd16 	bl	80022f0 <HAL_Delay>
						  timeout++;
 80008c4:	4b53      	ldr	r3, [pc, #332]	; (8000a14 <main+0x380>)
 80008c6:	881b      	ldrh	r3, [r3, #0]
 80008c8:	3301      	adds	r3, #1
 80008ca:	b29a      	uxth	r2, r3
 80008cc:	4b51      	ldr	r3, [pc, #324]	; (8000a14 <main+0x380>)
 80008ce:	801a      	strh	r2, [r3, #0]
						  if (timeout >= timeout_duration)
 80008d0:	4b50      	ldr	r3, [pc, #320]	; (8000a14 <main+0x380>)
 80008d2:	881a      	ldrh	r2, [r3, #0]
 80008d4:	23fa      	movs	r3, #250	; 0xfa
 80008d6:	005b      	lsls	r3, r3, #1
 80008d8:	429a      	cmp	r2, r3
 80008da:	d200      	bcs.n	80008de <main+0x24a>
 80008dc:	e0f4      	b.n	8000ac8 <main+0x434>
							  xbee_send_state = enter_command_mode;
 80008de:	4b4a      	ldr	r3, [pc, #296]	; (8000a08 <main+0x374>)
 80008e0:	2200      	movs	r2, #0
 80008e2:	701a      	strb	r2, [r3, #0]
				  break;
 80008e4:	e0f0      	b.n	8000ac8 <main+0x434>

				  case send_config:

					  if(config_step == config_length){
 80008e6:	4b53      	ldr	r3, [pc, #332]	; (8000a34 <main+0x3a0>)
 80008e8:	781a      	ldrb	r2, [r3, #0]
 80008ea:	4b53      	ldr	r3, [pc, #332]	; (8000a38 <main+0x3a4>)
 80008ec:	781b      	ldrb	r3, [r3, #0]
 80008ee:	429a      	cmp	r2, r3
 80008f0:	d106      	bne.n	8000900 <main+0x26c>
						  sprintf(string, "ATWR\r");
 80008f2:	4a52      	ldr	r2, [pc, #328]	; (8000a3c <main+0x3a8>)
 80008f4:	1d3b      	adds	r3, r7, #4
 80008f6:	0011      	movs	r1, r2
 80008f8:	0018      	movs	r0, r3
 80008fa:	f005 f801 	bl	8005900 <siprintf>
 80008fe:	e018      	b.n	8000932 <main+0x29e>
					  }
					  else sprintf(string, "AT%s%s\r", config[config_step][0], config[config_step][1]);
 8000900:	4b4c      	ldr	r3, [pc, #304]	; (8000a34 <main+0x3a0>)
 8000902:	781b      	ldrb	r3, [r3, #0]
 8000904:	001a      	movs	r2, r3
 8000906:	0013      	movs	r3, r2
 8000908:	009b      	lsls	r3, r3, #2
 800090a:	189b      	adds	r3, r3, r2
 800090c:	009b      	lsls	r3, r3, #2
 800090e:	4a45      	ldr	r2, [pc, #276]	; (8000a24 <main+0x390>)
 8000910:	189c      	adds	r4, r3, r2
 8000912:	4b48      	ldr	r3, [pc, #288]	; (8000a34 <main+0x3a0>)
 8000914:	781b      	ldrb	r3, [r3, #0]
 8000916:	001a      	movs	r2, r3
 8000918:	0013      	movs	r3, r2
 800091a:	009b      	lsls	r3, r3, #2
 800091c:	189b      	adds	r3, r3, r2
 800091e:	009b      	lsls	r3, r3, #2
 8000920:	330a      	adds	r3, #10
 8000922:	001a      	movs	r2, r3
 8000924:	4b3f      	ldr	r3, [pc, #252]	; (8000a24 <main+0x390>)
 8000926:	18d3      	adds	r3, r2, r3
 8000928:	4945      	ldr	r1, [pc, #276]	; (8000a40 <main+0x3ac>)
 800092a:	1d38      	adds	r0, r7, #4
 800092c:	0022      	movs	r2, r4
 800092e:	f004 ffe7 	bl	8005900 <siprintf>


					  HAL_UART_Transmit(&huart5, string, strlen(string), 100);
 8000932:	1d3b      	adds	r3, r7, #4
 8000934:	0018      	movs	r0, r3
 8000936:	f7ff fbe7 	bl	8000108 <strlen>
 800093a:	0003      	movs	r3, r0
 800093c:	b29a      	uxth	r2, r3
 800093e:	1d39      	adds	r1, r7, #4
 8000940:	482d      	ldr	r0, [pc, #180]	; (80009f8 <main+0x364>)
 8000942:	2364      	movs	r3, #100	; 0x64
 8000944:	f003 fc4a 	bl	80041dc <HAL_UART_Transmit>
					  xbee_send_state = config_ok;
 8000948:	4b2f      	ldr	r3, [pc, #188]	; (8000a08 <main+0x374>)
 800094a:	2203      	movs	r2, #3
 800094c:	701a      	strb	r2, [r3, #0]
				  break;
 800094e:	e0be      	b.n	8000ace <main+0x43a>

				  case config_ok:
					  if(cr_flag){
 8000950:	4b32      	ldr	r3, [pc, #200]	; (8000a1c <main+0x388>)
 8000952:	781b      	ldrb	r3, [r3, #0]
 8000954:	2b00      	cmp	r3, #0
 8000956:	d100      	bne.n	800095a <main+0x2c6>
 8000958:	e090      	b.n	8000a7c <main+0x3e8>
						  if(xbee_rx_buffer[cr_flag-2] == 'O' && xbee_rx_buffer[cr_flag-1] == 'K'){
 800095a:	4b30      	ldr	r3, [pc, #192]	; (8000a1c <main+0x388>)
 800095c:	781b      	ldrb	r3, [r3, #0]
 800095e:	3b02      	subs	r3, #2
 8000960:	4a2f      	ldr	r2, [pc, #188]	; (8000a20 <main+0x38c>)
 8000962:	5cd3      	ldrb	r3, [r2, r3]
 8000964:	2b4f      	cmp	r3, #79	; 0x4f
 8000966:	d000      	beq.n	800096a <main+0x2d6>
 8000968:	e085      	b.n	8000a76 <main+0x3e2>
 800096a:	4b2c      	ldr	r3, [pc, #176]	; (8000a1c <main+0x388>)
 800096c:	781b      	ldrb	r3, [r3, #0]
 800096e:	3b01      	subs	r3, #1
 8000970:	4a2b      	ldr	r2, [pc, #172]	; (8000a20 <main+0x38c>)
 8000972:	5cd3      	ldrb	r3, [r2, r3]
 8000974:	2b4b      	cmp	r3, #75	; 0x4b
 8000976:	d000      	beq.n	800097a <main+0x2e6>
 8000978:	e07d      	b.n	8000a76 <main+0x3e2>
							  if(config_step == config_length){
 800097a:	4b2e      	ldr	r3, [pc, #184]	; (8000a34 <main+0x3a0>)
 800097c:	781a      	ldrb	r2, [r3, #0]
 800097e:	4b2e      	ldr	r3, [pc, #184]	; (8000a38 <main+0x3a4>)
 8000980:	781b      	ldrb	r3, [r3, #0]
 8000982:	429a      	cmp	r2, r3
 8000984:	d168      	bne.n	8000a58 <main+0x3c4>
								  HAL_GPIO_WritePin(GPIOB, LED_R, GPIO_PIN_RESET);
 8000986:	4b1a      	ldr	r3, [pc, #104]	; (80009f0 <main+0x35c>)
 8000988:	2200      	movs	r2, #0
 800098a:	2104      	movs	r1, #4
 800098c:	0018      	movs	r0, r3
 800098e:	f001 ffd4 	bl	800293a <HAL_GPIO_WritePin>
								  HAL_GPIO_WritePin(GPIOB, LED_V, GPIO_PIN_SET);
 8000992:	2380      	movs	r3, #128	; 0x80
 8000994:	00db      	lsls	r3, r3, #3
 8000996:	4816      	ldr	r0, [pc, #88]	; (80009f0 <main+0x35c>)
 8000998:	2201      	movs	r2, #1
 800099a:	0019      	movs	r1, r3
 800099c:	f001 ffcd 	bl	800293a <HAL_GPIO_WritePin>
								  xbee_send_state = config_over;
 80009a0:	4b19      	ldr	r3, [pc, #100]	; (8000a08 <main+0x374>)
 80009a2:	2206      	movs	r2, #6
 80009a4:	701a      	strb	r2, [r3, #0]
								  HAL_Delay(10000);
 80009a6:	4b27      	ldr	r3, [pc, #156]	; (8000a44 <main+0x3b0>)
 80009a8:	0018      	movs	r0, r3
 80009aa:	f001 fca1 	bl	80022f0 <HAL_Delay>
								  uint8_t string[20] = {0};
 80009ae:	2438      	movs	r4, #56	; 0x38
 80009b0:	193b      	adds	r3, r7, r4
 80009b2:	2200      	movs	r2, #0
 80009b4:	601a      	str	r2, [r3, #0]
 80009b6:	3304      	adds	r3, #4
 80009b8:	2210      	movs	r2, #16
 80009ba:	2100      	movs	r1, #0
 80009bc:	0018      	movs	r0, r3
 80009be:	f004 ff96 	bl	80058ee <memset>
								  sprintf(string, "O %s\r", config[1][1]);
 80009c2:	4a21      	ldr	r2, [pc, #132]	; (8000a48 <main+0x3b4>)
 80009c4:	4921      	ldr	r1, [pc, #132]	; (8000a4c <main+0x3b8>)
 80009c6:	193b      	adds	r3, r7, r4
 80009c8:	0018      	movs	r0, r3
 80009ca:	f004 ff99 	bl	8005900 <siprintf>
								  xbee_send_string(string);
 80009ce:	193b      	adds	r3, r7, r4
 80009d0:	0018      	movs	r0, r3
 80009d2:	f000 fde7 	bl	80015a4 <xbee_send_string>
								  master_state = fine_polling;
 80009d6:	4b09      	ldr	r3, [pc, #36]	; (80009fc <main+0x368>)
 80009d8:	2204      	movs	r2, #4
 80009da:	701a      	strb	r2, [r3, #0]
								  xbee_rx_read_index = xbee_rx_write_index;
 80009dc:	4b1c      	ldr	r3, [pc, #112]	; (8000a50 <main+0x3bc>)
 80009de:	781a      	ldrb	r2, [r3, #0]
 80009e0:	4b1c      	ldr	r3, [pc, #112]	; (8000a54 <main+0x3c0>)
 80009e2:	701a      	strb	r2, [r3, #0]
 80009e4:	e047      	b.n	8000a76 <main+0x3e2>
 80009e6:	46c0      	nop			; (mov r8, r8)
 80009e8:	200005c8 	.word	0x200005c8
 80009ec:	2000068c 	.word	0x2000068c
 80009f0:	50000400 	.word	0x50000400
 80009f4:	20000322 	.word	0x20000322
 80009f8:	20000608 	.word	0x20000608
 80009fc:	2000030c 	.word	0x2000030c
 8000a00:	08006b9c 	.word	0x08006b9c
 8000a04:	20000429 	.word	0x20000429
 8000a08:	20000428 	.word	0x20000428
 8000a0c:	08006bb4 	.word	0x08006bb4
 8000a10:	08006b48 	.word	0x08006b48
 8000a14:	2000042a 	.word	0x2000042a
 8000a18:	2000042c 	.word	0x2000042c
 8000a1c:	20000321 	.word	0x20000321
 8000a20:	20000324 	.word	0x20000324
 8000a24:	200000e8 	.word	0x200000e8
 8000a28:	08006b4c 	.word	0x08006b4c
 8000a2c:	20000427 	.word	0x20000427
 8000a30:	08006b54 	.word	0x08006b54
 8000a34:	20000426 	.word	0x20000426
 8000a38:	20000278 	.word	0x20000278
 8000a3c:	08006b5c 	.word	0x08006b5c
 8000a40:	08006b64 	.word	0x08006b64
 8000a44:	00002710 	.word	0x00002710
 8000a48:	20000106 	.word	0x20000106
 8000a4c:	08006b6c 	.word	0x08006b6c
 8000a50:	20000425 	.word	0x20000425
 8000a54:	20000424 	.word	0x20000424
							  }
							  else {
								  timeout = 0;
 8000a58:	4b3d      	ldr	r3, [pc, #244]	; (8000b50 <main+0x4bc>)
 8000a5a:	2200      	movs	r2, #0
 8000a5c:	801a      	strh	r2, [r3, #0]
								  config_step++;
 8000a5e:	4b3d      	ldr	r3, [pc, #244]	; (8000b54 <main+0x4c0>)
 8000a60:	781b      	ldrb	r3, [r3, #0]
 8000a62:	3301      	adds	r3, #1
 8000a64:	b2da      	uxtb	r2, r3
 8000a66:	4b3b      	ldr	r3, [pc, #236]	; (8000b54 <main+0x4c0>)
 8000a68:	701a      	strb	r2, [r3, #0]
								  xbee_send_state = send_config;
 8000a6a:	4b3b      	ldr	r3, [pc, #236]	; (8000b58 <main+0x4c4>)
 8000a6c:	2202      	movs	r2, #2
 8000a6e:	701a      	strb	r2, [r3, #0]
								  HAL_Delay(10);
 8000a70:	200a      	movs	r0, #10
 8000a72:	f001 fc3d 	bl	80022f0 <HAL_Delay>
							  }
						  }
						  cr_flag = 0;
 8000a76:	4b39      	ldr	r3, [pc, #228]	; (8000b5c <main+0x4c8>)
 8000a78:	2200      	movs	r2, #0
 8000a7a:	701a      	strb	r2, [r3, #0]
					  }
					  if(xbee_rx_buffer[xbee_rx_write_index-2] == 'O' && xbee_rx_buffer[xbee_rx_write_index-1] == 'K'){
 8000a7c:	4b38      	ldr	r3, [pc, #224]	; (8000b60 <main+0x4cc>)
 8000a7e:	781b      	ldrb	r3, [r3, #0]
 8000a80:	3b02      	subs	r3, #2
 8000a82:	4a38      	ldr	r2, [pc, #224]	; (8000b64 <main+0x4d0>)
 8000a84:	5cd3      	ldrb	r3, [r2, r3]
 8000a86:	2b4f      	cmp	r3, #79	; 0x4f
 8000a88:	d106      	bne.n	8000a98 <main+0x404>
 8000a8a:	4b35      	ldr	r3, [pc, #212]	; (8000b60 <main+0x4cc>)
 8000a8c:	781b      	ldrb	r3, [r3, #0]
 8000a8e:	3b01      	subs	r3, #1
 8000a90:	4a34      	ldr	r2, [pc, #208]	; (8000b64 <main+0x4d0>)
 8000a92:	5cd3      	ldrb	r3, [r2, r3]
 8000a94:	2b4b      	cmp	r3, #75	; 0x4b
 8000a96:	d012      	beq.n	8000abe <main+0x42a>

					  }
					  else {
						  HAL_Delay(1);
 8000a98:	2001      	movs	r0, #1
 8000a9a:	f001 fc29 	bl	80022f0 <HAL_Delay>
						  timeout++;
 8000a9e:	4b2c      	ldr	r3, [pc, #176]	; (8000b50 <main+0x4bc>)
 8000aa0:	881b      	ldrh	r3, [r3, #0]
 8000aa2:	3301      	adds	r3, #1
 8000aa4:	b29a      	uxth	r2, r3
 8000aa6:	4b2a      	ldr	r3, [pc, #168]	; (8000b50 <main+0x4bc>)
 8000aa8:	801a      	strh	r2, [r3, #0]
						  if (timeout >= timeout_duration){
 8000aaa:	4b29      	ldr	r3, [pc, #164]	; (8000b50 <main+0x4bc>)
 8000aac:	881a      	ldrh	r2, [r3, #0]
 8000aae:	23fa      	movs	r3, #250	; 0xfa
 8000ab0:	005b      	lsls	r3, r3, #1
 8000ab2:	429a      	cmp	r2, r3
 8000ab4:	d30a      	bcc.n	8000acc <main+0x438>
							  xbee_send_state = enter_command_mode;
 8000ab6:	4b28      	ldr	r3, [pc, #160]	; (8000b58 <main+0x4c4>)
 8000ab8:	2200      	movs	r2, #0
 8000aba:	701a      	strb	r2, [r3, #0]
							  //config_step = 0;
						  }
					  }
				  break;
 8000abc:	e006      	b.n	8000acc <main+0x438>
 8000abe:	e005      	b.n	8000acc <main+0x438>

				  default:

				  break;
 8000ac0:	46c0      	nop			; (mov r8, r8)
 8000ac2:	e042      	b.n	8000b4a <main+0x4b6>
				  break;
 8000ac4:	46c0      	nop			; (mov r8, r8)
 8000ac6:	e040      	b.n	8000b4a <main+0x4b6>
				  break;
 8000ac8:	46c0      	nop			; (mov r8, r8)
 8000aca:	e03e      	b.n	8000b4a <main+0x4b6>
				  break;
 8000acc:	46c0      	nop			; (mov r8, r8)

			  }
	      break;
 8000ace:	e03c      	b.n	8000b4a <main+0x4b6>

	  	  case master_idle:
	  	  break;

	  	  case sparse_polling:
	  		  signal_state = signal_ok;
 8000ad0:	4b25      	ldr	r3, [pc, #148]	; (8000b68 <main+0x4d4>)
 8000ad2:	2201      	movs	r2, #1
 8000ad4:	701a      	strb	r2, [r3, #0]
	  		  scan_sensors();
 8000ad6:	f000 fb01 	bl	80010dc <scan_sensors>
	  		  HAL_Delay(10); //if a large amount of bees goes in or out
 8000ada:	200a      	movs	r0, #10
 8000adc:	f001 fc08 	bl	80022f0 <HAL_Delay>
	  		  if(bee_rate < -1*bee_rate_fine_polling_threshold || bee_rate > 1*bee_rate_fine_polling_threshold){
 8000ae0:	4b22      	ldr	r3, [pc, #136]	; (8000b6c <main+0x4d8>)
 8000ae2:	2200      	movs	r2, #0
 8000ae4:	5e9b      	ldrsh	r3, [r3, r2]
 8000ae6:	3302      	adds	r3, #2
 8000ae8:	db04      	blt.n	8000af4 <main+0x460>
 8000aea:	4b20      	ldr	r3, [pc, #128]	; (8000b6c <main+0x4d8>)
 8000aec:	2200      	movs	r2, #0
 8000aee:	5e9b      	ldrsh	r3, [r3, r2]
 8000af0:	2b02      	cmp	r3, #2
 8000af2:	dd27      	ble.n	8000b44 <main+0x4b0>
	  			  master_state = fine_polling; //we'll trigger a fine_polling
 8000af4:	4b1e      	ldr	r3, [pc, #120]	; (8000b70 <main+0x4dc>)
 8000af6:	2204      	movs	r2, #4
 8000af8:	701a      	strb	r2, [r3, #0]
	  		  }
	  	  break;
 8000afa:	e023      	b.n	8000b44 <main+0x4b0>

	  	  case fine_polling:
	  		  if(signal_state != signal_swarming) signal_state = signal_ok;
 8000afc:	4b1a      	ldr	r3, [pc, #104]	; (8000b68 <main+0x4d4>)
 8000afe:	781b      	ldrb	r3, [r3, #0]
 8000b00:	2b03      	cmp	r3, #3
 8000b02:	d002      	beq.n	8000b0a <main+0x476>
 8000b04:	4b18      	ldr	r3, [pc, #96]	; (8000b68 <main+0x4d4>)
 8000b06:	2201      	movs	r2, #1
 8000b08:	701a      	strb	r2, [r3, #0]
	  		  scan_sensors();
 8000b0a:	f000 fae7 	bl	80010dc <scan_sensors>
	  		  if(bee_rate < -1*bee_rate_alert_threshold || bee_rate > bee_rate_alert_threshold){
 8000b0e:	4b17      	ldr	r3, [pc, #92]	; (8000b6c <main+0x4d8>)
 8000b10:	2200      	movs	r2, #0
 8000b12:	5e9b      	ldrsh	r3, [r3, r2]
 8000b14:	3305      	adds	r3, #5
 8000b16:	db04      	blt.n	8000b22 <main+0x48e>
 8000b18:	4b14      	ldr	r3, [pc, #80]	; (8000b6c <main+0x4d8>)
 8000b1a:	2200      	movs	r2, #0
 8000b1c:	5e9b      	ldrsh	r3, [r3, r2]
 8000b1e:	2b05      	cmp	r3, #5
 8000b20:	dd12      	ble.n	8000b48 <main+0x4b4>
	  			  xbee_send_alert();
 8000b22:	f000 fe4f 	bl	80017c4 <xbee_send_alert>
	  			  signal_state = signal_swarming;
 8000b26:	4b10      	ldr	r3, [pc, #64]	; (8000b68 <main+0x4d4>)
 8000b28:	2203      	movs	r2, #3
 8000b2a:	701a      	strb	r2, [r3, #0]
	  			  bee_rate = 0;
 8000b2c:	4b0f      	ldr	r3, [pc, #60]	; (8000b6c <main+0x4d8>)
 8000b2e:	2200      	movs	r2, #0
 8000b30:	801a      	strh	r2, [r3, #0]
	  		  }
	  	  break;
 8000b32:	e009      	b.n	8000b48 <main+0x4b4>

	  	  case lora_alert:
	  		  signal_state = signal_swarming;
 8000b34:	4b0c      	ldr	r3, [pc, #48]	; (8000b68 <main+0x4d4>)
 8000b36:	2203      	movs	r2, #3
 8000b38:	701a      	strb	r2, [r3, #0]
	  	  break;
 8000b3a:	e006      	b.n	8000b4a <main+0x4b6>

	  	  default: break;
 8000b3c:	46c0      	nop			; (mov r8, r8)
 8000b3e:	e004      	b.n	8000b4a <main+0x4b6>
	  	  break;
 8000b40:	46c0      	nop			; (mov r8, r8)
 8000b42:	e002      	b.n	8000b4a <main+0x4b6>
	  	  break;
 8000b44:	46c0      	nop			; (mov r8, r8)
 8000b46:	e000      	b.n	8000b4a <main+0x4b6>
	  	  break;
 8000b48:	46c0      	nop			; (mov r8, r8)
	  }

	  read_xbee();
 8000b4a:	f000 fe63 	bl	8001814 <read_xbee>
  {
 8000b4e:	e5d7      	b.n	8000700 <main+0x6c>
 8000b50:	2000042a 	.word	0x2000042a
 8000b54:	20000426 	.word	0x20000426
 8000b58:	20000428 	.word	0x20000428
 8000b5c:	20000321 	.word	0x20000321
 8000b60:	20000425 	.word	0x20000425
 8000b64:	20000324 	.word	0x20000324
 8000b68:	20000429 	.word	0x20000429
 8000b6c:	200005c4 	.word	0x200005c4
 8000b70:	2000030c 	.word	0x2000030c

08000b74 <SystemClock_Config>:
/**
  * @brief System Clock Configuration
  * @retval None
  */
void SystemClock_Config(void)
{
 8000b74:	b590      	push	{r4, r7, lr}
 8000b76:	b09f      	sub	sp, #124	; 0x7c
 8000b78:	af00      	add	r7, sp, #0
  RCC_OscInitTypeDef RCC_OscInitStruct = {0};
 8000b7a:	2440      	movs	r4, #64	; 0x40
 8000b7c:	193b      	adds	r3, r7, r4
 8000b7e:	0018      	movs	r0, r3
 8000b80:	2338      	movs	r3, #56	; 0x38
 8000b82:	001a      	movs	r2, r3
 8000b84:	2100      	movs	r1, #0
 8000b86:	f004 feb2 	bl	80058ee <memset>
  RCC_ClkInitTypeDef RCC_ClkInitStruct = {0};
 8000b8a:	232c      	movs	r3, #44	; 0x2c
 8000b8c:	18fb      	adds	r3, r7, r3
 8000b8e:	0018      	movs	r0, r3
 8000b90:	2314      	movs	r3, #20
 8000b92:	001a      	movs	r2, r3
 8000b94:	2100      	movs	r1, #0
 8000b96:	f004 feaa 	bl	80058ee <memset>
  RCC_PeriphCLKInitTypeDef PeriphClkInit = {0};
 8000b9a:	1d3b      	adds	r3, r7, #4
 8000b9c:	0018      	movs	r0, r3
 8000b9e:	2328      	movs	r3, #40	; 0x28
 8000ba0:	001a      	movs	r2, r3
 8000ba2:	2100      	movs	r1, #0
 8000ba4:	f004 fea3 	bl	80058ee <memset>

  /** Configure the main internal regulator output voltage
  */
  __HAL_PWR_VOLTAGESCALING_CONFIG(PWR_REGULATOR_VOLTAGE_SCALE1);
 8000ba8:	4b29      	ldr	r3, [pc, #164]	; (8000c50 <SystemClock_Config+0xdc>)
 8000baa:	681b      	ldr	r3, [r3, #0]
 8000bac:	4a29      	ldr	r2, [pc, #164]	; (8000c54 <SystemClock_Config+0xe0>)
 8000bae:	401a      	ands	r2, r3
 8000bb0:	4b27      	ldr	r3, [pc, #156]	; (8000c50 <SystemClock_Config+0xdc>)
 8000bb2:	2180      	movs	r1, #128	; 0x80
 8000bb4:	0109      	lsls	r1, r1, #4
 8000bb6:	430a      	orrs	r2, r1
 8000bb8:	601a      	str	r2, [r3, #0]
  /** Initializes the RCC Oscillators according to the specified parameters
  * in the RCC_OscInitTypeDef structure.
  */
  RCC_OscInitStruct.OscillatorType = RCC_OSCILLATORTYPE_HSI;
 8000bba:	0021      	movs	r1, r4
 8000bbc:	187b      	adds	r3, r7, r1
 8000bbe:	2202      	movs	r2, #2
 8000bc0:	601a      	str	r2, [r3, #0]
  RCC_OscInitStruct.HSIState = RCC_HSI_ON;
 8000bc2:	187b      	adds	r3, r7, r1
 8000bc4:	2201      	movs	r2, #1
 8000bc6:	60da      	str	r2, [r3, #12]
  RCC_OscInitStruct.HSICalibrationValue = RCC_HSICALIBRATION_DEFAULT;
 8000bc8:	187b      	adds	r3, r7, r1
 8000bca:	2210      	movs	r2, #16
 8000bcc:	611a      	str	r2, [r3, #16]
  RCC_OscInitStruct.PLL.PLLState = RCC_PLL_ON;
 8000bce:	187b      	adds	r3, r7, r1
 8000bd0:	2202      	movs	r2, #2
 8000bd2:	629a      	str	r2, [r3, #40]	; 0x28
  RCC_OscInitStruct.PLL.PLLSource = RCC_PLLSOURCE_HSI;
 8000bd4:	187b      	adds	r3, r7, r1
 8000bd6:	2200      	movs	r2, #0
 8000bd8:	62da      	str	r2, [r3, #44]	; 0x2c
  RCC_OscInitStruct.PLL.PLLMUL = RCC_PLLMUL_6;
 8000bda:	187b      	adds	r3, r7, r1
 8000bdc:	2280      	movs	r2, #128	; 0x80
 8000bde:	0312      	lsls	r2, r2, #12
 8000be0:	631a      	str	r2, [r3, #48]	; 0x30
  RCC_OscInitStruct.PLL.PLLDIV = RCC_PLLDIV_3;
 8000be2:	187b      	adds	r3, r7, r1
 8000be4:	2280      	movs	r2, #128	; 0x80
 8000be6:	0412      	lsls	r2, r2, #16
 8000be8:	635a      	str	r2, [r3, #52]	; 0x34
  if (HAL_RCC_OscConfig(&RCC_OscInitStruct) != HAL_OK)
 8000bea:	187b      	adds	r3, r7, r1
 8000bec:	0018      	movs	r0, r3
 8000bee:	f001 fedd 	bl	80029ac <HAL_RCC_OscConfig>
 8000bf2:	1e03      	subs	r3, r0, #0
 8000bf4:	d001      	beq.n	8000bfa <SystemClock_Config+0x86>
  {
    Error_Handler();
 8000bf6:	f001 f957 	bl	8001ea8 <Error_Handler>
  }
  /** Initializes the CPU, AHB and APB buses clocks
  */
  RCC_ClkInitStruct.ClockType = RCC_CLOCKTYPE_HCLK|RCC_CLOCKTYPE_SYSCLK
 8000bfa:	212c      	movs	r1, #44	; 0x2c
 8000bfc:	187b      	adds	r3, r7, r1
 8000bfe:	220f      	movs	r2, #15
 8000c00:	601a      	str	r2, [r3, #0]
                              |RCC_CLOCKTYPE_PCLK1|RCC_CLOCKTYPE_PCLK2;
  RCC_ClkInitStruct.SYSCLKSource = RCC_SYSCLKSOURCE_PLLCLK;
 8000c02:	187b      	adds	r3, r7, r1
 8000c04:	2203      	movs	r2, #3
 8000c06:	605a      	str	r2, [r3, #4]
  RCC_ClkInitStruct.AHBCLKDivider = RCC_SYSCLK_DIV1;
 8000c08:	187b      	adds	r3, r7, r1
 8000c0a:	2200      	movs	r2, #0
 8000c0c:	609a      	str	r2, [r3, #8]
  RCC_ClkInitStruct.APB1CLKDivider = RCC_HCLK_DIV1;
 8000c0e:	187b      	adds	r3, r7, r1
 8000c10:	2200      	movs	r2, #0
 8000c12:	60da      	str	r2, [r3, #12]
  RCC_ClkInitStruct.APB2CLKDivider = RCC_HCLK_DIV1;
 8000c14:	187b      	adds	r3, r7, r1
 8000c16:	2200      	movs	r2, #0
 8000c18:	611a      	str	r2, [r3, #16]

  if (HAL_RCC_ClockConfig(&RCC_ClkInitStruct, FLASH_LATENCY_1) != HAL_OK)
 8000c1a:	187b      	adds	r3, r7, r1
 8000c1c:	2101      	movs	r1, #1
 8000c1e:	0018      	movs	r0, r3
 8000c20:	f002 fa98 	bl	8003154 <HAL_RCC_ClockConfig>
 8000c24:	1e03      	subs	r3, r0, #0
 8000c26:	d001      	beq.n	8000c2c <SystemClock_Config+0xb8>
  {
    Error_Handler();
 8000c28:	f001 f93e 	bl	8001ea8 <Error_Handler>
  }
  PeriphClkInit.PeriphClockSelection = RCC_PERIPHCLK_USART2;
 8000c2c:	1d3b      	adds	r3, r7, #4
 8000c2e:	2202      	movs	r2, #2
 8000c30:	601a      	str	r2, [r3, #0]
  PeriphClkInit.Usart2ClockSelection = RCC_USART2CLKSOURCE_PCLK1;
 8000c32:	1d3b      	adds	r3, r7, #4
 8000c34:	2200      	movs	r2, #0
 8000c36:	611a      	str	r2, [r3, #16]
  if (HAL_RCCEx_PeriphCLKConfig(&PeriphClkInit) != HAL_OK)
 8000c38:	1d3b      	adds	r3, r7, #4
 8000c3a:	0018      	movs	r0, r3
 8000c3c:	f002 fcae 	bl	800359c <HAL_RCCEx_PeriphCLKConfig>
 8000c40:	1e03      	subs	r3, r0, #0
 8000c42:	d001      	beq.n	8000c48 <SystemClock_Config+0xd4>
  {
    Error_Handler();
 8000c44:	f001 f930 	bl	8001ea8 <Error_Handler>
  }
}
 8000c48:	46c0      	nop			; (mov r8, r8)
 8000c4a:	46bd      	mov	sp, r7
 8000c4c:	b01f      	add	sp, #124	; 0x7c
 8000c4e:	bd90      	pop	{r4, r7, pc}
 8000c50:	40007000 	.word	0x40007000
 8000c54:	ffffe7ff 	.word	0xffffe7ff

08000c58 <MX_SPI2_Init>:
  * @brief SPI2 Initialization Function
  * @param None
  * @retval None
  */
static void MX_SPI2_Init(void)
{
 8000c58:	b580      	push	{r7, lr}
 8000c5a:	af00      	add	r7, sp, #0

  /* USER CODE BEGIN SPI2_Init 1 */

  /* USER CODE END SPI2_Init 1 */
  /* SPI2 parameter configuration*/
  hspi2.Instance = SPI2;
 8000c5c:	4b18      	ldr	r3, [pc, #96]	; (8000cc0 <MX_SPI2_Init+0x68>)
 8000c5e:	4a19      	ldr	r2, [pc, #100]	; (8000cc4 <MX_SPI2_Init+0x6c>)
 8000c60:	601a      	str	r2, [r3, #0]
  hspi2.Init.Mode = SPI_MODE_MASTER;
 8000c62:	4b17      	ldr	r3, [pc, #92]	; (8000cc0 <MX_SPI2_Init+0x68>)
 8000c64:	2282      	movs	r2, #130	; 0x82
 8000c66:	0052      	lsls	r2, r2, #1
 8000c68:	605a      	str	r2, [r3, #4]
  hspi2.Init.Direction = SPI_DIRECTION_2LINES;
 8000c6a:	4b15      	ldr	r3, [pc, #84]	; (8000cc0 <MX_SPI2_Init+0x68>)
 8000c6c:	2200      	movs	r2, #0
 8000c6e:	609a      	str	r2, [r3, #8]
  hspi2.Init.DataSize = SPI_DATASIZE_8BIT;
 8000c70:	4b13      	ldr	r3, [pc, #76]	; (8000cc0 <MX_SPI2_Init+0x68>)
 8000c72:	2200      	movs	r2, #0
 8000c74:	60da      	str	r2, [r3, #12]
  hspi2.Init.CLKPolarity = SPI_POLARITY_LOW;
 8000c76:	4b12      	ldr	r3, [pc, #72]	; (8000cc0 <MX_SPI2_Init+0x68>)
 8000c78:	2200      	movs	r2, #0
 8000c7a:	611a      	str	r2, [r3, #16]
  hspi2.Init.CLKPhase = SPI_PHASE_1EDGE;
 8000c7c:	4b10      	ldr	r3, [pc, #64]	; (8000cc0 <MX_SPI2_Init+0x68>)
 8000c7e:	2200      	movs	r2, #0
 8000c80:	615a      	str	r2, [r3, #20]
  hspi2.Init.NSS = SPI_NSS_HARD_OUTPUT;
 8000c82:	4b0f      	ldr	r3, [pc, #60]	; (8000cc0 <MX_SPI2_Init+0x68>)
 8000c84:	2280      	movs	r2, #128	; 0x80
 8000c86:	02d2      	lsls	r2, r2, #11
 8000c88:	619a      	str	r2, [r3, #24]
  hspi2.Init.BaudRatePrescaler = SPI_BAUDRATEPRESCALER_2;
 8000c8a:	4b0d      	ldr	r3, [pc, #52]	; (8000cc0 <MX_SPI2_Init+0x68>)
 8000c8c:	2200      	movs	r2, #0
 8000c8e:	61da      	str	r2, [r3, #28]
  hspi2.Init.FirstBit = SPI_FIRSTBIT_MSB;
 8000c90:	4b0b      	ldr	r3, [pc, #44]	; (8000cc0 <MX_SPI2_Init+0x68>)
 8000c92:	2200      	movs	r2, #0
 8000c94:	621a      	str	r2, [r3, #32]
  hspi2.Init.TIMode = SPI_TIMODE_DISABLE;
 8000c96:	4b0a      	ldr	r3, [pc, #40]	; (8000cc0 <MX_SPI2_Init+0x68>)
 8000c98:	2200      	movs	r2, #0
 8000c9a:	625a      	str	r2, [r3, #36]	; 0x24
  hspi2.Init.CRCCalculation = SPI_CRCCALCULATION_DISABLE;
 8000c9c:	4b08      	ldr	r3, [pc, #32]	; (8000cc0 <MX_SPI2_Init+0x68>)
 8000c9e:	2200      	movs	r2, #0
 8000ca0:	629a      	str	r2, [r3, #40]	; 0x28
  hspi2.Init.CRCPolynomial = 7;
 8000ca2:	4b07      	ldr	r3, [pc, #28]	; (8000cc0 <MX_SPI2_Init+0x68>)
 8000ca4:	2207      	movs	r2, #7
 8000ca6:	62da      	str	r2, [r3, #44]	; 0x2c
  if (HAL_SPI_Init(&hspi2) != HAL_OK)
 8000ca8:	4b05      	ldr	r3, [pc, #20]	; (8000cc0 <MX_SPI2_Init+0x68>)
 8000caa:	0018      	movs	r0, r3
 8000cac:	f002 fdea 	bl	8003884 <HAL_SPI_Init>
 8000cb0:	1e03      	subs	r3, r0, #0
 8000cb2:	d001      	beq.n	8000cb8 <MX_SPI2_Init+0x60>
  {
    Error_Handler();
 8000cb4:	f001 f8f8 	bl	8001ea8 <Error_Handler>
  }
  /* USER CODE BEGIN SPI2_Init 2 */

  /* USER CODE END SPI2_Init 2 */

}
 8000cb8:	46c0      	nop			; (mov r8, r8)
 8000cba:	46bd      	mov	sp, r7
 8000cbc:	bd80      	pop	{r7, pc}
 8000cbe:	46c0      	nop			; (mov r8, r8)
 8000cc0:	20000568 	.word	0x20000568
 8000cc4:	40003800 	.word	0x40003800

08000cc8 <MX_TIM2_Init>:
  * @brief TIM2 Initialization Function
  * @param None
  * @retval None
  */
static void MX_TIM2_Init(void)
{
 8000cc8:	b580      	push	{r7, lr}
 8000cca:	b086      	sub	sp, #24
 8000ccc:	af00      	add	r7, sp, #0

  /* USER CODE BEGIN TIM2_Init 0 */

  /* USER CODE END TIM2_Init 0 */

  TIM_ClockConfigTypeDef sClockSourceConfig = {0};
 8000cce:	2308      	movs	r3, #8
 8000cd0:	18fb      	adds	r3, r7, r3
 8000cd2:	0018      	movs	r0, r3
 8000cd4:	2310      	movs	r3, #16
 8000cd6:	001a      	movs	r2, r3
 8000cd8:	2100      	movs	r1, #0
 8000cda:	f004 fe08 	bl	80058ee <memset>
  TIM_MasterConfigTypeDef sMasterConfig = {0};
 8000cde:	003b      	movs	r3, r7
 8000ce0:	0018      	movs	r0, r3
 8000ce2:	2308      	movs	r3, #8
 8000ce4:	001a      	movs	r2, r3
 8000ce6:	2100      	movs	r1, #0
 8000ce8:	f004 fe01 	bl	80058ee <memset>

  /* USER CODE BEGIN TIM2_Init 1 */

  /* USER CODE END TIM2_Init 1 */
  htim2.Instance = TIM2;
 8000cec:	4b1f      	ldr	r3, [pc, #124]	; (8000d6c <MX_TIM2_Init+0xa4>)
 8000cee:	2280      	movs	r2, #128	; 0x80
 8000cf0:	05d2      	lsls	r2, r2, #23
 8000cf2:	601a      	str	r2, [r3, #0]
  htim2.Init.Prescaler = 1600;
 8000cf4:	4b1d      	ldr	r3, [pc, #116]	; (8000d6c <MX_TIM2_Init+0xa4>)
 8000cf6:	22c8      	movs	r2, #200	; 0xc8
 8000cf8:	00d2      	lsls	r2, r2, #3
 8000cfa:	605a      	str	r2, [r3, #4]
  htim2.Init.CounterMode = TIM_COUNTERMODE_UP;
 8000cfc:	4b1b      	ldr	r3, [pc, #108]	; (8000d6c <MX_TIM2_Init+0xa4>)
 8000cfe:	2200      	movs	r2, #0
 8000d00:	609a      	str	r2, [r3, #8]
  htim2.Init.Period = 1000;
 8000d02:	4b1a      	ldr	r3, [pc, #104]	; (8000d6c <MX_TIM2_Init+0xa4>)
 8000d04:	22fa      	movs	r2, #250	; 0xfa
 8000d06:	0092      	lsls	r2, r2, #2
 8000d08:	60da      	str	r2, [r3, #12]
  htim2.Init.ClockDivision = TIM_CLOCKDIVISION_DIV1;
 8000d0a:	4b18      	ldr	r3, [pc, #96]	; (8000d6c <MX_TIM2_Init+0xa4>)
 8000d0c:	2200      	movs	r2, #0
 8000d0e:	611a      	str	r2, [r3, #16]
  htim2.Init.AutoReloadPreload = TIM_AUTORELOAD_PRELOAD_DISABLE;
 8000d10:	4b16      	ldr	r3, [pc, #88]	; (8000d6c <MX_TIM2_Init+0xa4>)
 8000d12:	2200      	movs	r2, #0
 8000d14:	615a      	str	r2, [r3, #20]
  if (HAL_TIM_Base_Init(&htim2) != HAL_OK)
 8000d16:	4b15      	ldr	r3, [pc, #84]	; (8000d6c <MX_TIM2_Init+0xa4>)
 8000d18:	0018      	movs	r0, r3
 8000d1a:	f002 fe47 	bl	80039ac <HAL_TIM_Base_Init>
 8000d1e:	1e03      	subs	r3, r0, #0
 8000d20:	d001      	beq.n	8000d26 <MX_TIM2_Init+0x5e>
  {
    Error_Handler();
 8000d22:	f001 f8c1 	bl	8001ea8 <Error_Handler>
  }
  sClockSourceConfig.ClockSource = TIM_CLOCKSOURCE_INTERNAL;
 8000d26:	2108      	movs	r1, #8
 8000d28:	187b      	adds	r3, r7, r1
 8000d2a:	2280      	movs	r2, #128	; 0x80
 8000d2c:	0152      	lsls	r2, r2, #5
 8000d2e:	601a      	str	r2, [r3, #0]
  if (HAL_TIM_ConfigClockSource(&htim2, &sClockSourceConfig) != HAL_OK)
 8000d30:	187a      	adds	r2, r7, r1
 8000d32:	4b0e      	ldr	r3, [pc, #56]	; (8000d6c <MX_TIM2_Init+0xa4>)
 8000d34:	0011      	movs	r1, r2
 8000d36:	0018      	movs	r0, r3
 8000d38:	f002 ffb2 	bl	8003ca0 <HAL_TIM_ConfigClockSource>
 8000d3c:	1e03      	subs	r3, r0, #0
 8000d3e:	d001      	beq.n	8000d44 <MX_TIM2_Init+0x7c>
  {
    Error_Handler();
 8000d40:	f001 f8b2 	bl	8001ea8 <Error_Handler>
  }
  sMasterConfig.MasterOutputTrigger = TIM_TRGO_RESET;
 8000d44:	003b      	movs	r3, r7
 8000d46:	2200      	movs	r2, #0
 8000d48:	601a      	str	r2, [r3, #0]
  sMasterConfig.MasterSlaveMode = TIM_MASTERSLAVEMODE_DISABLE;
 8000d4a:	003b      	movs	r3, r7
 8000d4c:	2200      	movs	r2, #0
 8000d4e:	605a      	str	r2, [r3, #4]
  if (HAL_TIMEx_MasterConfigSynchronization(&htim2, &sMasterConfig) != HAL_OK)
 8000d50:	003a      	movs	r2, r7
 8000d52:	4b06      	ldr	r3, [pc, #24]	; (8000d6c <MX_TIM2_Init+0xa4>)
 8000d54:	0011      	movs	r1, r2
 8000d56:	0018      	movs	r0, r3
 8000d58:	f003 f98e 	bl	8004078 <HAL_TIMEx_MasterConfigSynchronization>
 8000d5c:	1e03      	subs	r3, r0, #0
 8000d5e:	d001      	beq.n	8000d64 <MX_TIM2_Init+0x9c>
  {
    Error_Handler();
 8000d60:	f001 f8a2 	bl	8001ea8 <Error_Handler>
  }
  /* USER CODE BEGIN TIM2_Init 2 */

  /* USER CODE END TIM2_Init 2 */

}
 8000d64:	46c0      	nop			; (mov r8, r8)
 8000d66:	46bd      	mov	sp, r7
 8000d68:	b006      	add	sp, #24
 8000d6a:	bd80      	pop	{r7, pc}
 8000d6c:	2000068c 	.word	0x2000068c

08000d70 <MX_TIM3_Init>:
  * @brief TIM3 Initialization Function
  * @param None
  * @retval None
  */
static void MX_TIM3_Init(void)
{
 8000d70:	b580      	push	{r7, lr}
 8000d72:	b086      	sub	sp, #24
 8000d74:	af00      	add	r7, sp, #0

  /* USER CODE BEGIN TIM3_Init 0 */

  /* USER CODE END TIM3_Init 0 */

  TIM_ClockConfigTypeDef sClockSourceConfig = {0};
 8000d76:	2308      	movs	r3, #8
 8000d78:	18fb      	adds	r3, r7, r3
 8000d7a:	0018      	movs	r0, r3
 8000d7c:	2310      	movs	r3, #16
 8000d7e:	001a      	movs	r2, r3
 8000d80:	2100      	movs	r1, #0
 8000d82:	f004 fdb4 	bl	80058ee <memset>
  TIM_MasterConfigTypeDef sMasterConfig = {0};
 8000d86:	003b      	movs	r3, r7
 8000d88:	0018      	movs	r0, r3
 8000d8a:	2308      	movs	r3, #8
 8000d8c:	001a      	movs	r2, r3
 8000d8e:	2100      	movs	r1, #0
 8000d90:	f004 fdad 	bl	80058ee <memset>

  /* USER CODE BEGIN TIM3_Init 1 */

  /* USER CODE END TIM3_Init 1 */
  htim3.Instance = TIM3;
 8000d94:	4b1e      	ldr	r3, [pc, #120]	; (8000e10 <MX_TIM3_Init+0xa0>)
 8000d96:	4a1f      	ldr	r2, [pc, #124]	; (8000e14 <MX_TIM3_Init+0xa4>)
 8000d98:	601a      	str	r2, [r3, #0]
  htim3.Init.Prescaler = 65535;
 8000d9a:	4b1d      	ldr	r3, [pc, #116]	; (8000e10 <MX_TIM3_Init+0xa0>)
 8000d9c:	4a1e      	ldr	r2, [pc, #120]	; (8000e18 <MX_TIM3_Init+0xa8>)
 8000d9e:	605a      	str	r2, [r3, #4]
  htim3.Init.CounterMode = TIM_COUNTERMODE_UP;
 8000da0:	4b1b      	ldr	r3, [pc, #108]	; (8000e10 <MX_TIM3_Init+0xa0>)
 8000da2:	2200      	movs	r2, #0
 8000da4:	609a      	str	r2, [r3, #8]
  htim3.Init.Period = 4883;
 8000da6:	4b1a      	ldr	r3, [pc, #104]	; (8000e10 <MX_TIM3_Init+0xa0>)
 8000da8:	4a1c      	ldr	r2, [pc, #112]	; (8000e1c <MX_TIM3_Init+0xac>)
 8000daa:	60da      	str	r2, [r3, #12]
  htim3.Init.ClockDivision = TIM_CLOCKDIVISION_DIV1;
 8000dac:	4b18      	ldr	r3, [pc, #96]	; (8000e10 <MX_TIM3_Init+0xa0>)
 8000dae:	2200      	movs	r2, #0
 8000db0:	611a      	str	r2, [r3, #16]
  htim3.Init.AutoReloadPreload = TIM_AUTORELOAD_PRELOAD_DISABLE;
 8000db2:	4b17      	ldr	r3, [pc, #92]	; (8000e10 <MX_TIM3_Init+0xa0>)
 8000db4:	2200      	movs	r2, #0
 8000db6:	615a      	str	r2, [r3, #20]
  if (HAL_TIM_Base_Init(&htim3) != HAL_OK)
 8000db8:	4b15      	ldr	r3, [pc, #84]	; (8000e10 <MX_TIM3_Init+0xa0>)
 8000dba:	0018      	movs	r0, r3
 8000dbc:	f002 fdf6 	bl	80039ac <HAL_TIM_Base_Init>
 8000dc0:	1e03      	subs	r3, r0, #0
 8000dc2:	d001      	beq.n	8000dc8 <MX_TIM3_Init+0x58>
  {
    Error_Handler();
 8000dc4:	f001 f870 	bl	8001ea8 <Error_Handler>
  }
  sClockSourceConfig.ClockSource = TIM_CLOCKSOURCE_INTERNAL;
 8000dc8:	2108      	movs	r1, #8
 8000dca:	187b      	adds	r3, r7, r1
 8000dcc:	2280      	movs	r2, #128	; 0x80
 8000dce:	0152      	lsls	r2, r2, #5
 8000dd0:	601a      	str	r2, [r3, #0]
  if (HAL_TIM_ConfigClockSource(&htim3, &sClockSourceConfig) != HAL_OK)
 8000dd2:	187a      	adds	r2, r7, r1
 8000dd4:	4b0e      	ldr	r3, [pc, #56]	; (8000e10 <MX_TIM3_Init+0xa0>)
 8000dd6:	0011      	movs	r1, r2
 8000dd8:	0018      	movs	r0, r3
 8000dda:	f002 ff61 	bl	8003ca0 <HAL_TIM_ConfigClockSource>
 8000dde:	1e03      	subs	r3, r0, #0
 8000de0:	d001      	beq.n	8000de6 <MX_TIM3_Init+0x76>
  {
    Error_Handler();
 8000de2:	f001 f861 	bl	8001ea8 <Error_Handler>
  }
  sMasterConfig.MasterOutputTrigger = TIM_TRGO_RESET;
 8000de6:	003b      	movs	r3, r7
 8000de8:	2200      	movs	r2, #0
 8000dea:	601a      	str	r2, [r3, #0]
  sMasterConfig.MasterSlaveMode = TIM_MASTERSLAVEMODE_DISABLE;
 8000dec:	003b      	movs	r3, r7
 8000dee:	2200      	movs	r2, #0
 8000df0:	605a      	str	r2, [r3, #4]
  if (HAL_TIMEx_MasterConfigSynchronization(&htim3, &sMasterConfig) != HAL_OK)
 8000df2:	003a      	movs	r2, r7
 8000df4:	4b06      	ldr	r3, [pc, #24]	; (8000e10 <MX_TIM3_Init+0xa0>)
 8000df6:	0011      	movs	r1, r2
 8000df8:	0018      	movs	r0, r3
 8000dfa:	f003 f93d 	bl	8004078 <HAL_TIMEx_MasterConfigSynchronization>
 8000dfe:	1e03      	subs	r3, r0, #0
 8000e00:	d001      	beq.n	8000e06 <MX_TIM3_Init+0x96>
  {
    Error_Handler();
 8000e02:	f001 f851 	bl	8001ea8 <Error_Handler>
  }
  /* USER CODE BEGIN TIM3_Init 2 */

  /* USER CODE END TIM3_Init 2 */

}
 8000e06:	46c0      	nop			; (mov r8, r8)
 8000e08:	46bd      	mov	sp, r7
 8000e0a:	b006      	add	sp, #24
 8000e0c:	bd80      	pop	{r7, pc}
 8000e0e:	46c0      	nop			; (mov r8, r8)
 8000e10:	200005c8 	.word	0x200005c8
 8000e14:	40000400 	.word	0x40000400
 8000e18:	0000ffff 	.word	0x0000ffff
 8000e1c:	00001313 	.word	0x00001313

08000e20 <MX_USART2_UART_Init>:
  * @brief USART2 Initialization Function
  * @param None
  * @retval None
  */
static void MX_USART2_UART_Init(void)
{
 8000e20:	b580      	push	{r7, lr}
 8000e22:	af00      	add	r7, sp, #0
  /* USER CODE END USART2_Init 0 */

  /* USER CODE BEGIN USART2_Init 1 */

  /* USER CODE END USART2_Init 1 */
  huart2.Instance = USART2;
 8000e24:	4b14      	ldr	r3, [pc, #80]	; (8000e78 <MX_USART2_UART_Init+0x58>)
 8000e26:	4a15      	ldr	r2, [pc, #84]	; (8000e7c <MX_USART2_UART_Init+0x5c>)
 8000e28:	601a      	str	r2, [r3, #0]
  huart2.Init.BaudRate = 115200;
 8000e2a:	4b13      	ldr	r3, [pc, #76]	; (8000e78 <MX_USART2_UART_Init+0x58>)
 8000e2c:	22e1      	movs	r2, #225	; 0xe1
 8000e2e:	0252      	lsls	r2, r2, #9
 8000e30:	605a      	str	r2, [r3, #4]
  huart2.Init.WordLength = UART_WORDLENGTH_8B;
 8000e32:	4b11      	ldr	r3, [pc, #68]	; (8000e78 <MX_USART2_UART_Init+0x58>)
 8000e34:	2200      	movs	r2, #0
 8000e36:	609a      	str	r2, [r3, #8]
  huart2.Init.StopBits = UART_STOPBITS_1;
 8000e38:	4b0f      	ldr	r3, [pc, #60]	; (8000e78 <MX_USART2_UART_Init+0x58>)
 8000e3a:	2200      	movs	r2, #0
 8000e3c:	60da      	str	r2, [r3, #12]
  huart2.Init.Parity = UART_PARITY_NONE;
 8000e3e:	4b0e      	ldr	r3, [pc, #56]	; (8000e78 <MX_USART2_UART_Init+0x58>)
 8000e40:	2200      	movs	r2, #0
 8000e42:	611a      	str	r2, [r3, #16]
  huart2.Init.Mode = UART_MODE_TX_RX;
 8000e44:	4b0c      	ldr	r3, [pc, #48]	; (8000e78 <MX_USART2_UART_Init+0x58>)
 8000e46:	220c      	movs	r2, #12
 8000e48:	615a      	str	r2, [r3, #20]
  huart2.Init.HwFlowCtl = UART_HWCONTROL_NONE;
 8000e4a:	4b0b      	ldr	r3, [pc, #44]	; (8000e78 <MX_USART2_UART_Init+0x58>)
 8000e4c:	2200      	movs	r2, #0
 8000e4e:	619a      	str	r2, [r3, #24]
  huart2.Init.OverSampling = UART_OVERSAMPLING_16;
 8000e50:	4b09      	ldr	r3, [pc, #36]	; (8000e78 <MX_USART2_UART_Init+0x58>)
 8000e52:	2200      	movs	r2, #0
 8000e54:	61da      	str	r2, [r3, #28]
  huart2.Init.OneBitSampling = UART_ONE_BIT_SAMPLE_DISABLE;
 8000e56:	4b08      	ldr	r3, [pc, #32]	; (8000e78 <MX_USART2_UART_Init+0x58>)
 8000e58:	2200      	movs	r2, #0
 8000e5a:	621a      	str	r2, [r3, #32]
  huart2.AdvancedInit.AdvFeatureInit = UART_ADVFEATURE_NO_INIT;
 8000e5c:	4b06      	ldr	r3, [pc, #24]	; (8000e78 <MX_USART2_UART_Init+0x58>)
 8000e5e:	2200      	movs	r2, #0
 8000e60:	625a      	str	r2, [r3, #36]	; 0x24
  if (HAL_UART_Init(&huart2) != HAL_OK)
 8000e62:	4b05      	ldr	r3, [pc, #20]	; (8000e78 <MX_USART2_UART_Init+0x58>)
 8000e64:	0018      	movs	r0, r3
 8000e66:	f003 f965 	bl	8004134 <HAL_UART_Init>
 8000e6a:	1e03      	subs	r3, r0, #0
 8000e6c:	d001      	beq.n	8000e72 <MX_USART2_UART_Init+0x52>
  {
    Error_Handler();
 8000e6e:	f001 f81b 	bl	8001ea8 <Error_Handler>
  }
  /* USER CODE BEGIN USART2_Init 2 */

  /* USER CODE END USART2_Init 2 */

}
 8000e72:	46c0      	nop			; (mov r8, r8)
 8000e74:	46bd      	mov	sp, r7
 8000e76:	bd80      	pop	{r7, pc}
 8000e78:	200006cc 	.word	0x200006cc
 8000e7c:	40004400 	.word	0x40004400

08000e80 <MX_USART5_UART_Init>:
  * @brief USART5 Initialization Function
  * @param None
  * @retval None
  */
static void MX_USART5_UART_Init(void)
{
 8000e80:	b580      	push	{r7, lr}
 8000e82:	af00      	add	r7, sp, #0
  /* USER CODE END USART5_Init 0 */

  /* USER CODE BEGIN USART5_Init 1 */

  /* USER CODE END USART5_Init 1 */
  huart5.Instance = USART5;
 8000e84:	4b14      	ldr	r3, [pc, #80]	; (8000ed8 <MX_USART5_UART_Init+0x58>)
 8000e86:	4a15      	ldr	r2, [pc, #84]	; (8000edc <MX_USART5_UART_Init+0x5c>)
 8000e88:	601a      	str	r2, [r3, #0]
  huart5.Init.BaudRate = 9600;
 8000e8a:	4b13      	ldr	r3, [pc, #76]	; (8000ed8 <MX_USART5_UART_Init+0x58>)
 8000e8c:	2296      	movs	r2, #150	; 0x96
 8000e8e:	0192      	lsls	r2, r2, #6
 8000e90:	605a      	str	r2, [r3, #4]
  huart5.Init.WordLength = UART_WORDLENGTH_8B;
 8000e92:	4b11      	ldr	r3, [pc, #68]	; (8000ed8 <MX_USART5_UART_Init+0x58>)
 8000e94:	2200      	movs	r2, #0
 8000e96:	609a      	str	r2, [r3, #8]
  huart5.Init.StopBits = UART_STOPBITS_1;
 8000e98:	4b0f      	ldr	r3, [pc, #60]	; (8000ed8 <MX_USART5_UART_Init+0x58>)
 8000e9a:	2200      	movs	r2, #0
 8000e9c:	60da      	str	r2, [r3, #12]
  huart5.Init.Parity = UART_PARITY_NONE;
 8000e9e:	4b0e      	ldr	r3, [pc, #56]	; (8000ed8 <MX_USART5_UART_Init+0x58>)
 8000ea0:	2200      	movs	r2, #0
 8000ea2:	611a      	str	r2, [r3, #16]
  huart5.Init.Mode = UART_MODE_TX_RX;
 8000ea4:	4b0c      	ldr	r3, [pc, #48]	; (8000ed8 <MX_USART5_UART_Init+0x58>)
 8000ea6:	220c      	movs	r2, #12
 8000ea8:	615a      	str	r2, [r3, #20]
  huart5.Init.HwFlowCtl = UART_HWCONTROL_NONE;
 8000eaa:	4b0b      	ldr	r3, [pc, #44]	; (8000ed8 <MX_USART5_UART_Init+0x58>)
 8000eac:	2200      	movs	r2, #0
 8000eae:	619a      	str	r2, [r3, #24]
  huart5.Init.OverSampling = UART_OVERSAMPLING_16;
 8000eb0:	4b09      	ldr	r3, [pc, #36]	; (8000ed8 <MX_USART5_UART_Init+0x58>)
 8000eb2:	2200      	movs	r2, #0
 8000eb4:	61da      	str	r2, [r3, #28]
  huart5.Init.OneBitSampling = UART_ONE_BIT_SAMPLE_DISABLE;
 8000eb6:	4b08      	ldr	r3, [pc, #32]	; (8000ed8 <MX_USART5_UART_Init+0x58>)
 8000eb8:	2200      	movs	r2, #0
 8000eba:	621a      	str	r2, [r3, #32]
  huart5.AdvancedInit.AdvFeatureInit = UART_ADVFEATURE_NO_INIT;
 8000ebc:	4b06      	ldr	r3, [pc, #24]	; (8000ed8 <MX_USART5_UART_Init+0x58>)
 8000ebe:	2200      	movs	r2, #0
 8000ec0:	625a      	str	r2, [r3, #36]	; 0x24
  if (HAL_UART_Init(&huart5) != HAL_OK)
 8000ec2:	4b05      	ldr	r3, [pc, #20]	; (8000ed8 <MX_USART5_UART_Init+0x58>)
 8000ec4:	0018      	movs	r0, r3
 8000ec6:	f003 f935 	bl	8004134 <HAL_UART_Init>
 8000eca:	1e03      	subs	r3, r0, #0
 8000ecc:	d001      	beq.n	8000ed2 <MX_USART5_UART_Init+0x52>
  {
    Error_Handler();
 8000ece:	f000 ffeb 	bl	8001ea8 <Error_Handler>
  }
  /* USER CODE BEGIN USART5_Init 2 */

  /* USER CODE END USART5_Init 2 */

}
 8000ed2:	46c0      	nop			; (mov r8, r8)
 8000ed4:	46bd      	mov	sp, r7
 8000ed6:	bd80      	pop	{r7, pc}
 8000ed8:	20000608 	.word	0x20000608
 8000edc:	40005000 	.word	0x40005000

08000ee0 <MX_GPIO_Init>:
  * @brief GPIO Initialization Function
  * @param None
  * @retval None
  */
static void MX_GPIO_Init(void)
{
 8000ee0:	b590      	push	{r4, r7, lr}
 8000ee2:	b08b      	sub	sp, #44	; 0x2c
 8000ee4:	af00      	add	r7, sp, #0
  GPIO_InitTypeDef GPIO_InitStruct = {0};
 8000ee6:	2414      	movs	r4, #20
 8000ee8:	193b      	adds	r3, r7, r4
 8000eea:	0018      	movs	r0, r3
 8000eec:	2314      	movs	r3, #20
 8000eee:	001a      	movs	r2, r3
 8000ef0:	2100      	movs	r1, #0
 8000ef2:	f004 fcfc 	bl	80058ee <memset>

  /* GPIO Ports Clock Enable */
  __HAL_RCC_GPIOC_CLK_ENABLE();
 8000ef6:	4b54      	ldr	r3, [pc, #336]	; (8001048 <MX_GPIO_Init+0x168>)
 8000ef8:	6ada      	ldr	r2, [r3, #44]	; 0x2c
 8000efa:	4b53      	ldr	r3, [pc, #332]	; (8001048 <MX_GPIO_Init+0x168>)
 8000efc:	2104      	movs	r1, #4
 8000efe:	430a      	orrs	r2, r1
 8000f00:	62da      	str	r2, [r3, #44]	; 0x2c
 8000f02:	4b51      	ldr	r3, [pc, #324]	; (8001048 <MX_GPIO_Init+0x168>)
 8000f04:	6adb      	ldr	r3, [r3, #44]	; 0x2c
 8000f06:	2204      	movs	r2, #4
 8000f08:	4013      	ands	r3, r2
 8000f0a:	613b      	str	r3, [r7, #16]
 8000f0c:	693b      	ldr	r3, [r7, #16]
  __HAL_RCC_GPIOH_CLK_ENABLE();
 8000f0e:	4b4e      	ldr	r3, [pc, #312]	; (8001048 <MX_GPIO_Init+0x168>)
 8000f10:	6ada      	ldr	r2, [r3, #44]	; 0x2c
 8000f12:	4b4d      	ldr	r3, [pc, #308]	; (8001048 <MX_GPIO_Init+0x168>)
 8000f14:	2180      	movs	r1, #128	; 0x80
 8000f16:	430a      	orrs	r2, r1
 8000f18:	62da      	str	r2, [r3, #44]	; 0x2c
 8000f1a:	4b4b      	ldr	r3, [pc, #300]	; (8001048 <MX_GPIO_Init+0x168>)
 8000f1c:	6adb      	ldr	r3, [r3, #44]	; 0x2c
 8000f1e:	2280      	movs	r2, #128	; 0x80
 8000f20:	4013      	ands	r3, r2
 8000f22:	60fb      	str	r3, [r7, #12]
 8000f24:	68fb      	ldr	r3, [r7, #12]
  __HAL_RCC_GPIOA_CLK_ENABLE();
 8000f26:	4b48      	ldr	r3, [pc, #288]	; (8001048 <MX_GPIO_Init+0x168>)
 8000f28:	6ada      	ldr	r2, [r3, #44]	; 0x2c
 8000f2a:	4b47      	ldr	r3, [pc, #284]	; (8001048 <MX_GPIO_Init+0x168>)
 8000f2c:	2101      	movs	r1, #1
 8000f2e:	430a      	orrs	r2, r1
 8000f30:	62da      	str	r2, [r3, #44]	; 0x2c
 8000f32:	4b45      	ldr	r3, [pc, #276]	; (8001048 <MX_GPIO_Init+0x168>)
 8000f34:	6adb      	ldr	r3, [r3, #44]	; 0x2c
 8000f36:	2201      	movs	r2, #1
 8000f38:	4013      	ands	r3, r2
 8000f3a:	60bb      	str	r3, [r7, #8]
 8000f3c:	68bb      	ldr	r3, [r7, #8]
  __HAL_RCC_GPIOB_CLK_ENABLE();
 8000f3e:	4b42      	ldr	r3, [pc, #264]	; (8001048 <MX_GPIO_Init+0x168>)
 8000f40:	6ada      	ldr	r2, [r3, #44]	; 0x2c
 8000f42:	4b41      	ldr	r3, [pc, #260]	; (8001048 <MX_GPIO_Init+0x168>)
 8000f44:	2102      	movs	r1, #2
 8000f46:	430a      	orrs	r2, r1
 8000f48:	62da      	str	r2, [r3, #44]	; 0x2c
 8000f4a:	4b3f      	ldr	r3, [pc, #252]	; (8001048 <MX_GPIO_Init+0x168>)
 8000f4c:	6adb      	ldr	r3, [r3, #44]	; 0x2c
 8000f4e:	2202      	movs	r2, #2
 8000f50:	4013      	ands	r3, r2
 8000f52:	607b      	str	r3, [r7, #4]
 8000f54:	687b      	ldr	r3, [r7, #4]

  /*Configure GPIO pin Output Level */
  HAL_GPIO_WritePin(S3_GPIO_Port, S3_Pin, GPIO_PIN_RESET);
 8000f56:	2380      	movs	r3, #128	; 0x80
 8000f58:	019b      	lsls	r3, r3, #6
 8000f5a:	483c      	ldr	r0, [pc, #240]	; (800104c <MX_GPIO_Init+0x16c>)
 8000f5c:	2200      	movs	r2, #0
 8000f5e:	0019      	movs	r1, r3
 8000f60:	f001 fceb 	bl	800293a <HAL_GPIO_WritePin>

  /*Configure GPIO pin Output Level */
  HAL_GPIO_WritePin(GPIOH, S2_Pin|S0_Pin, GPIO_PIN_RESET);
 8000f64:	4b3a      	ldr	r3, [pc, #232]	; (8001050 <MX_GPIO_Init+0x170>)
 8000f66:	2200      	movs	r2, #0
 8000f68:	2103      	movs	r1, #3
 8000f6a:	0018      	movs	r0, r3
 8000f6c:	f001 fce5 	bl	800293a <HAL_GPIO_WritePin>

  /*Configure GPIO pin Output Level */
  HAL_GPIO_WritePin(GPIOA, S1_Pin|LED_EN_Pin|XBEE_SLEEP_Pin, GPIO_PIN_RESET);
 8000f70:	4938      	ldr	r1, [pc, #224]	; (8001054 <MX_GPIO_Init+0x174>)
 8000f72:	23a0      	movs	r3, #160	; 0xa0
 8000f74:	05db      	lsls	r3, r3, #23
 8000f76:	2200      	movs	r2, #0
 8000f78:	0018      	movs	r0, r3
 8000f7a:	f001 fcde 	bl	800293a <HAL_GPIO_WritePin>

  /*Configure GPIO pin Output Level */
  HAL_GPIO_WritePin(GPIOB, LED_R_Pin|LED_V_Pin, GPIO_PIN_RESET);
 8000f7e:	4936      	ldr	r1, [pc, #216]	; (8001058 <MX_GPIO_Init+0x178>)
 8000f80:	4b36      	ldr	r3, [pc, #216]	; (800105c <MX_GPIO_Init+0x17c>)
 8000f82:	2200      	movs	r2, #0
 8000f84:	0018      	movs	r0, r3
 8000f86:	f001 fcd8 	bl	800293a <HAL_GPIO_WritePin>

  /*Configure GPIO pin : S3_Pin */
  GPIO_InitStruct.Pin = S3_Pin;
 8000f8a:	193b      	adds	r3, r7, r4
 8000f8c:	2280      	movs	r2, #128	; 0x80
 8000f8e:	0192      	lsls	r2, r2, #6
 8000f90:	601a      	str	r2, [r3, #0]
  GPIO_InitStruct.Mode = GPIO_MODE_OUTPUT_PP;
 8000f92:	193b      	adds	r3, r7, r4
 8000f94:	2201      	movs	r2, #1
 8000f96:	605a      	str	r2, [r3, #4]
  GPIO_InitStruct.Pull = GPIO_NOPULL;
 8000f98:	193b      	adds	r3, r7, r4
 8000f9a:	2200      	movs	r2, #0
 8000f9c:	609a      	str	r2, [r3, #8]
  GPIO_InitStruct.Speed = GPIO_SPEED_FREQ_LOW;
 8000f9e:	193b      	adds	r3, r7, r4
 8000fa0:	2200      	movs	r2, #0
 8000fa2:	60da      	str	r2, [r3, #12]
  HAL_GPIO_Init(S3_GPIO_Port, &GPIO_InitStruct);
 8000fa4:	193b      	adds	r3, r7, r4
 8000fa6:	4a29      	ldr	r2, [pc, #164]	; (800104c <MX_GPIO_Init+0x16c>)
 8000fa8:	0019      	movs	r1, r3
 8000faa:	0010      	movs	r0, r2
 8000fac:	f001 fb2a 	bl	8002604 <HAL_GPIO_Init>

  /*Configure GPIO pins : S2_Pin S0_Pin */
  GPIO_InitStruct.Pin = S2_Pin|S0_Pin;
 8000fb0:	193b      	adds	r3, r7, r4
 8000fb2:	2203      	movs	r2, #3
 8000fb4:	601a      	str	r2, [r3, #0]
  GPIO_InitStruct.Mode = GPIO_MODE_OUTPUT_PP;
 8000fb6:	193b      	adds	r3, r7, r4
 8000fb8:	2201      	movs	r2, #1
 8000fba:	605a      	str	r2, [r3, #4]
  GPIO_InitStruct.Pull = GPIO_NOPULL;
 8000fbc:	193b      	adds	r3, r7, r4
 8000fbe:	2200      	movs	r2, #0
 8000fc0:	609a      	str	r2, [r3, #8]
  GPIO_InitStruct.Speed = GPIO_SPEED_FREQ_LOW;
 8000fc2:	193b      	adds	r3, r7, r4
 8000fc4:	2200      	movs	r2, #0
 8000fc6:	60da      	str	r2, [r3, #12]
  HAL_GPIO_Init(GPIOH, &GPIO_InitStruct);
 8000fc8:	193b      	adds	r3, r7, r4
 8000fca:	4a21      	ldr	r2, [pc, #132]	; (8001050 <MX_GPIO_Init+0x170>)
 8000fcc:	0019      	movs	r1, r3
 8000fce:	0010      	movs	r0, r2
 8000fd0:	f001 fb18 	bl	8002604 <HAL_GPIO_Init>

  /*Configure GPIO pins : S1_Pin LED_EN_Pin XBEE_SLEEP_Pin */
  GPIO_InitStruct.Pin = S1_Pin|LED_EN_Pin|XBEE_SLEEP_Pin;
 8000fd4:	193b      	adds	r3, r7, r4
 8000fd6:	4a1f      	ldr	r2, [pc, #124]	; (8001054 <MX_GPIO_Init+0x174>)
 8000fd8:	601a      	str	r2, [r3, #0]
  GPIO_InitStruct.Mode = GPIO_MODE_OUTPUT_PP;
 8000fda:	193b      	adds	r3, r7, r4
 8000fdc:	2201      	movs	r2, #1
 8000fde:	605a      	str	r2, [r3, #4]
  GPIO_InitStruct.Pull = GPIO_NOPULL;
 8000fe0:	193b      	adds	r3, r7, r4
 8000fe2:	2200      	movs	r2, #0
 8000fe4:	609a      	str	r2, [r3, #8]
  GPIO_InitStruct.Speed = GPIO_SPEED_FREQ_LOW;
 8000fe6:	193b      	adds	r3, r7, r4
 8000fe8:	2200      	movs	r2, #0
 8000fea:	60da      	str	r2, [r3, #12]
  HAL_GPIO_Init(GPIOA, &GPIO_InitStruct);
 8000fec:	193a      	adds	r2, r7, r4
 8000fee:	23a0      	movs	r3, #160	; 0xa0
 8000ff0:	05db      	lsls	r3, r3, #23
 8000ff2:	0011      	movs	r1, r2
 8000ff4:	0018      	movs	r0, r3
 8000ff6:	f001 fb05 	bl	8002604 <HAL_GPIO_Init>

  /*Configure GPIO pins : MUX1_Pin MUX2_Pin */
  GPIO_InitStruct.Pin = MUX1_Pin|MUX2_Pin;
 8000ffa:	193b      	adds	r3, r7, r4
 8000ffc:	2212      	movs	r2, #18
 8000ffe:	601a      	str	r2, [r3, #0]
  GPIO_InitStruct.Mode = GPIO_MODE_INPUT;
 8001000:	193b      	adds	r3, r7, r4
 8001002:	2200      	movs	r2, #0
 8001004:	605a      	str	r2, [r3, #4]
  GPIO_InitStruct.Pull = GPIO_NOPULL;
 8001006:	193b      	adds	r3, r7, r4
 8001008:	2200      	movs	r2, #0
 800100a:	609a      	str	r2, [r3, #8]
  HAL_GPIO_Init(GPIOA, &GPIO_InitStruct);
 800100c:	193a      	adds	r2, r7, r4
 800100e:	23a0      	movs	r3, #160	; 0xa0
 8001010:	05db      	lsls	r3, r3, #23
 8001012:	0011      	movs	r1, r2
 8001014:	0018      	movs	r0, r3
 8001016:	f001 faf5 	bl	8002604 <HAL_GPIO_Init>

  /*Configure GPIO pins : LED_R_Pin LED_V_Pin */
  GPIO_InitStruct.Pin = LED_R_Pin|LED_V_Pin;
 800101a:	0021      	movs	r1, r4
 800101c:	187b      	adds	r3, r7, r1
 800101e:	4a0e      	ldr	r2, [pc, #56]	; (8001058 <MX_GPIO_Init+0x178>)
 8001020:	601a      	str	r2, [r3, #0]
  GPIO_InitStruct.Mode = GPIO_MODE_OUTPUT_PP;
 8001022:	187b      	adds	r3, r7, r1
 8001024:	2201      	movs	r2, #1
 8001026:	605a      	str	r2, [r3, #4]
  GPIO_InitStruct.Pull = GPIO_NOPULL;
 8001028:	187b      	adds	r3, r7, r1
 800102a:	2200      	movs	r2, #0
 800102c:	609a      	str	r2, [r3, #8]
  GPIO_InitStruct.Speed = GPIO_SPEED_FREQ_LOW;
 800102e:	187b      	adds	r3, r7, r1
 8001030:	2200      	movs	r2, #0
 8001032:	60da      	str	r2, [r3, #12]
  HAL_GPIO_Init(GPIOB, &GPIO_InitStruct);
 8001034:	187b      	adds	r3, r7, r1
 8001036:	4a09      	ldr	r2, [pc, #36]	; (800105c <MX_GPIO_Init+0x17c>)
 8001038:	0019      	movs	r1, r3
 800103a:	0010      	movs	r0, r2
 800103c:	f001 fae2 	bl	8002604 <HAL_GPIO_Init>

}
 8001040:	46c0      	nop			; (mov r8, r8)
 8001042:	46bd      	mov	sp, r7
 8001044:	b00b      	add	sp, #44	; 0x2c
 8001046:	bd90      	pop	{r4, r7, pc}
 8001048:	40021000 	.word	0x40021000
 800104c:	50000800 	.word	0x50000800
 8001050:	50001c00 	.word	0x50001c00
 8001054:	00008021 	.word	0x00008021
 8001058:	00000404 	.word	0x00000404
 800105c:	50000400 	.word	0x50000400

08001060 <select_mux>:

/* USER CODE BEGIN 4 */

void select_mux(uint8_t sel){
 8001060:	b580      	push	{r7, lr}
 8001062:	b082      	sub	sp, #8
 8001064:	af00      	add	r7, sp, #0
 8001066:	0002      	movs	r2, r0
 8001068:	1dfb      	adds	r3, r7, #7
 800106a:	701a      	strb	r2, [r3, #0]
	HAL_GPIO_WritePin(GPIOH, GPIO_PIN_1 , (sel & 0b0001)>>0);
 800106c:	1dfb      	adds	r3, r7, #7
 800106e:	781b      	ldrb	r3, [r3, #0]
 8001070:	2201      	movs	r2, #1
 8001072:	4013      	ands	r3, r2
 8001074:	b2db      	uxtb	r3, r3
 8001076:	4817      	ldr	r0, [pc, #92]	; (80010d4 <select_mux+0x74>)
 8001078:	001a      	movs	r2, r3
 800107a:	2102      	movs	r1, #2
 800107c:	f001 fc5d 	bl	800293a <HAL_GPIO_WritePin>
	HAL_GPIO_WritePin(GPIOA, GPIO_PIN_0 , (sel & 0b0010)>>1);
 8001080:	1dfb      	adds	r3, r7, #7
 8001082:	781b      	ldrb	r3, [r3, #0]
 8001084:	105b      	asrs	r3, r3, #1
 8001086:	b2db      	uxtb	r3, r3
 8001088:	2201      	movs	r2, #1
 800108a:	4013      	ands	r3, r2
 800108c:	b2da      	uxtb	r2, r3
 800108e:	23a0      	movs	r3, #160	; 0xa0
 8001090:	05db      	lsls	r3, r3, #23
 8001092:	2101      	movs	r1, #1
 8001094:	0018      	movs	r0, r3
 8001096:	f001 fc50 	bl	800293a <HAL_GPIO_WritePin>
	HAL_GPIO_WritePin(GPIOH, GPIO_PIN_0 , (sel & 0b0100)>>2);
 800109a:	1dfb      	adds	r3, r7, #7
 800109c:	781b      	ldrb	r3, [r3, #0]
 800109e:	109b      	asrs	r3, r3, #2
 80010a0:	b2db      	uxtb	r3, r3
 80010a2:	2201      	movs	r2, #1
 80010a4:	4013      	ands	r3, r2
 80010a6:	b2db      	uxtb	r3, r3
 80010a8:	480a      	ldr	r0, [pc, #40]	; (80010d4 <select_mux+0x74>)
 80010aa:	001a      	movs	r2, r3
 80010ac:	2101      	movs	r1, #1
 80010ae:	f001 fc44 	bl	800293a <HAL_GPIO_WritePin>
	HAL_GPIO_WritePin(GPIOC, GPIO_PIN_13, (sel & 0b1000)>>3);
 80010b2:	1dfb      	adds	r3, r7, #7
 80010b4:	781b      	ldrb	r3, [r3, #0]
 80010b6:	10db      	asrs	r3, r3, #3
 80010b8:	b2db      	uxtb	r3, r3
 80010ba:	2201      	movs	r2, #1
 80010bc:	4013      	ands	r3, r2
 80010be:	b2da      	uxtb	r2, r3
 80010c0:	2380      	movs	r3, #128	; 0x80
 80010c2:	019b      	lsls	r3, r3, #6
 80010c4:	4804      	ldr	r0, [pc, #16]	; (80010d8 <select_mux+0x78>)
 80010c6:	0019      	movs	r1, r3
 80010c8:	f001 fc37 	bl	800293a <HAL_GPIO_WritePin>
}
 80010cc:	46c0      	nop			; (mov r8, r8)
 80010ce:	46bd      	mov	sp, r7
 80010d0:	b002      	add	sp, #8
 80010d2:	bd80      	pop	{r7, pc}
 80010d4:	50001c00 	.word	0x50001c00
 80010d8:	50000800 	.word	0x50000800

080010dc <scan_sensors>:

void scan_sensors(){
 80010dc:	b580      	push	{r7, lr}
 80010de:	b082      	sub	sp, #8
 80010e0:	af00      	add	r7, sp, #0

  HAL_GPIO_WritePin(GPIOA, GPIO_PIN_5, 1); //turn on the diodes
 80010e2:	23a0      	movs	r3, #160	; 0xa0
 80010e4:	05db      	lsls	r3, r3, #23
 80010e6:	2201      	movs	r2, #1
 80010e8:	2120      	movs	r1, #32
 80010ea:	0018      	movs	r0, r3
 80010ec:	f001 fc25 	bl	800293a <HAL_GPIO_WritePin>

  for(uint8_t i=0; i<8; i++) for(uint8_t j=0; j<2; j++){
 80010f0:	1dfb      	adds	r3, r7, #7
 80010f2:	2200      	movs	r2, #0
 80010f4:	701a      	strb	r2, [r3, #0]
 80010f6:	e0f5      	b.n	80012e4 <scan_sensors+0x208>
 80010f8:	1dbb      	adds	r3, r7, #6
 80010fa:	2200      	movs	r2, #0
 80010fc:	701a      	strb	r2, [r3, #0]
 80010fe:	e0e7      	b.n	80012d0 <scan_sensors+0x1f4>
	  uint8_t sensor_pair_value;
	  select_mux(sensor_pair[8*j+i][0]);
 8001100:	1dbb      	adds	r3, r7, #6
 8001102:	781b      	ldrb	r3, [r3, #0]
 8001104:	00da      	lsls	r2, r3, #3
 8001106:	1dfb      	adds	r3, r7, #7
 8001108:	781b      	ldrb	r3, [r3, #0]
 800110a:	18d2      	adds	r2, r2, r3
 800110c:	4b7f      	ldr	r3, [pc, #508]	; (800130c <scan_sensors+0x230>)
 800110e:	0052      	lsls	r2, r2, #1
 8001110:	5cd3      	ldrb	r3, [r2, r3]
 8001112:	0018      	movs	r0, r3
 8001114:	f7ff ffa4 	bl	8001060 <select_mux>
	  sensor_pair_value = (j)? HAL_GPIO_ReadPin(MUX1) : HAL_GPIO_ReadPin(MUX2);
 8001118:	1dbb      	adds	r3, r7, #6
 800111a:	781b      	ldrb	r3, [r3, #0]
 800111c:	2b00      	cmp	r3, #0
 800111e:	d008      	beq.n	8001132 <scan_sensors+0x56>
 8001120:	23a0      	movs	r3, #160	; 0xa0
 8001122:	05db      	lsls	r3, r3, #23
 8001124:	2102      	movs	r1, #2
 8001126:	0018      	movs	r0, r3
 8001128:	f001 fbea 	bl	8002900 <HAL_GPIO_ReadPin>
 800112c:	0003      	movs	r3, r0
 800112e:	001a      	movs	r2, r3
 8001130:	e007      	b.n	8001142 <scan_sensors+0x66>
 8001132:	23a0      	movs	r3, #160	; 0xa0
 8001134:	05db      	lsls	r3, r3, #23
 8001136:	2110      	movs	r1, #16
 8001138:	0018      	movs	r0, r3
 800113a:	f001 fbe1 	bl	8002900 <HAL_GPIO_ReadPin>
 800113e:	0003      	movs	r3, r0
 8001140:	001a      	movs	r2, r3
 8001142:	1d7b      	adds	r3, r7, #5
 8001144:	701a      	strb	r2, [r3, #0]
	  select_mux(sensor_pair[8*j+i][1]);
 8001146:	1dbb      	adds	r3, r7, #6
 8001148:	781b      	ldrb	r3, [r3, #0]
 800114a:	00da      	lsls	r2, r3, #3
 800114c:	1dfb      	adds	r3, r7, #7
 800114e:	781b      	ldrb	r3, [r3, #0]
 8001150:	18d3      	adds	r3, r2, r3
 8001152:	4a6e      	ldr	r2, [pc, #440]	; (800130c <scan_sensors+0x230>)
 8001154:	005b      	lsls	r3, r3, #1
 8001156:	18d3      	adds	r3, r2, r3
 8001158:	3301      	adds	r3, #1
 800115a:	781b      	ldrb	r3, [r3, #0]
 800115c:	0018      	movs	r0, r3
 800115e:	f7ff ff7f 	bl	8001060 <select_mux>
	  sensor_pair_value += (j)? HAL_GPIO_ReadPin(MUX1)<<1 : HAL_GPIO_ReadPin(MUX2)<<1;
 8001162:	1dbb      	adds	r3, r7, #6
 8001164:	781b      	ldrb	r3, [r3, #0]
 8001166:	2b00      	cmp	r3, #0
 8001168:	d008      	beq.n	800117c <scan_sensors+0xa0>
 800116a:	23a0      	movs	r3, #160	; 0xa0
 800116c:	05db      	lsls	r3, r3, #23
 800116e:	2102      	movs	r1, #2
 8001170:	0018      	movs	r0, r3
 8001172:	f001 fbc5 	bl	8002900 <HAL_GPIO_ReadPin>
 8001176:	0003      	movs	r3, r0
 8001178:	005b      	lsls	r3, r3, #1
 800117a:	e007      	b.n	800118c <scan_sensors+0xb0>
 800117c:	23a0      	movs	r3, #160	; 0xa0
 800117e:	05db      	lsls	r3, r3, #23
 8001180:	2110      	movs	r1, #16
 8001182:	0018      	movs	r0, r3
 8001184:	f001 fbbc 	bl	8002900 <HAL_GPIO_ReadPin>
 8001188:	0003      	movs	r3, r0
 800118a:	005b      	lsls	r3, r3, #1
 800118c:	b2d9      	uxtb	r1, r3
 800118e:	1d7b      	adds	r3, r7, #5
 8001190:	1d7a      	adds	r2, r7, #5
 8001192:	7812      	ldrb	r2, [r2, #0]
 8001194:	188a      	adds	r2, r1, r2
 8001196:	701a      	strb	r2, [r3, #0]

	  switch(sensors_state[8*j+i]){
 8001198:	1dbb      	adds	r3, r7, #6
 800119a:	781b      	ldrb	r3, [r3, #0]
 800119c:	00da      	lsls	r2, r3, #3
 800119e:	1dfb      	adds	r3, r7, #7
 80011a0:	781b      	ldrb	r3, [r3, #0]
 80011a2:	18d3      	adds	r3, r2, r3
 80011a4:	4a5a      	ldr	r2, [pc, #360]	; (8001310 <scan_sensors+0x234>)
 80011a6:	5cd3      	ldrb	r3, [r2, r3]
 80011a8:	2b03      	cmp	r3, #3
 80011aa:	d100      	bne.n	80011ae <scan_sensors+0xd2>
 80011ac:	e068      	b.n	8001280 <scan_sensors+0x1a4>
 80011ae:	dd00      	ble.n	80011b2 <scan_sensors+0xd6>
 80011b0:	e089      	b.n	80012c6 <scan_sensors+0x1ea>
 80011b2:	2b02      	cmp	r3, #2
 80011b4:	d048      	beq.n	8001248 <scan_sensors+0x16c>
 80011b6:	dd00      	ble.n	80011ba <scan_sensors+0xde>
 80011b8:	e085      	b.n	80012c6 <scan_sensors+0x1ea>
 80011ba:	2b00      	cmp	r3, #0
 80011bc:	d002      	beq.n	80011c4 <scan_sensors+0xe8>
 80011be:	2b01      	cmp	r3, #1
 80011c0:	d026      	beq.n	8001210 <scan_sensors+0x134>
 80011c2:	e080      	b.n	80012c6 <scan_sensors+0x1ea>
		  case A:
			  if(sensor_pair_value == 0b01){
 80011c4:	1d7b      	adds	r3, r7, #5
 80011c6:	781b      	ldrb	r3, [r3, #0]
 80011c8:	2b01      	cmp	r3, #1
 80011ca:	d10e      	bne.n	80011ea <scan_sensors+0x10e>
				  sensors_state[8*j+i] = B;
 80011cc:	1dbb      	adds	r3, r7, #6
 80011ce:	781b      	ldrb	r3, [r3, #0]
 80011d0:	00da      	lsls	r2, r3, #3
 80011d2:	1dfb      	adds	r3, r7, #7
 80011d4:	781b      	ldrb	r3, [r3, #0]
 80011d6:	18d3      	adds	r3, r2, r3
 80011d8:	4a4d      	ldr	r2, [pc, #308]	; (8001310 <scan_sensors+0x234>)
 80011da:	2101      	movs	r1, #1
 80011dc:	54d1      	strb	r1, [r2, r3]
				  bee_count--;
 80011de:	4b4d      	ldr	r3, [pc, #308]	; (8001314 <scan_sensors+0x238>)
 80011e0:	681b      	ldr	r3, [r3, #0]
 80011e2:	1e5a      	subs	r2, r3, #1
 80011e4:	4b4b      	ldr	r3, [pc, #300]	; (8001314 <scan_sensors+0x238>)
 80011e6:	601a      	str	r2, [r3, #0]
				  bee_count++;
//				  HAL_GPIO_WritePin(GPIOB, LED_R, 0);
//				  HAL_GPIO_WritePin(GPIOB, LED_V, 1);
//				  xbee_send_alert();
			  }
		  break;
 80011e8:	e066      	b.n	80012b8 <scan_sensors+0x1dc>
			  else if(sensor_pair_value == 0b10){
 80011ea:	1d7b      	adds	r3, r7, #5
 80011ec:	781b      	ldrb	r3, [r3, #0]
 80011ee:	2b02      	cmp	r3, #2
 80011f0:	d162      	bne.n	80012b8 <scan_sensors+0x1dc>
				  sensors_state[8*j+i] = D;
 80011f2:	1dbb      	adds	r3, r7, #6
 80011f4:	781b      	ldrb	r3, [r3, #0]
 80011f6:	00da      	lsls	r2, r3, #3
 80011f8:	1dfb      	adds	r3, r7, #7
 80011fa:	781b      	ldrb	r3, [r3, #0]
 80011fc:	18d3      	adds	r3, r2, r3
 80011fe:	4a44      	ldr	r2, [pc, #272]	; (8001310 <scan_sensors+0x234>)
 8001200:	2103      	movs	r1, #3
 8001202:	54d1      	strb	r1, [r2, r3]
				  bee_count++;
 8001204:	4b43      	ldr	r3, [pc, #268]	; (8001314 <scan_sensors+0x238>)
 8001206:	681b      	ldr	r3, [r3, #0]
 8001208:	1c5a      	adds	r2, r3, #1
 800120a:	4b42      	ldr	r3, [pc, #264]	; (8001314 <scan_sensors+0x238>)
 800120c:	601a      	str	r2, [r3, #0]
		  break;
 800120e:	e053      	b.n	80012b8 <scan_sensors+0x1dc>

		  case B:
			  if(sensor_pair_value == 0b00) sensors_state[8*j+i] = C;
 8001210:	1d7b      	adds	r3, r7, #5
 8001212:	781b      	ldrb	r3, [r3, #0]
 8001214:	2b00      	cmp	r3, #0
 8001216:	d109      	bne.n	800122c <scan_sensors+0x150>
 8001218:	1dbb      	adds	r3, r7, #6
 800121a:	781b      	ldrb	r3, [r3, #0]
 800121c:	00da      	lsls	r2, r3, #3
 800121e:	1dfb      	adds	r3, r7, #7
 8001220:	781b      	ldrb	r3, [r3, #0]
 8001222:	18d3      	adds	r3, r2, r3
 8001224:	4a3a      	ldr	r2, [pc, #232]	; (8001310 <scan_sensors+0x234>)
 8001226:	2102      	movs	r1, #2
 8001228:	54d1      	strb	r1, [r2, r3]
			  else if (sensor_pair_value == 0b11) sensors_state[8*j+i] = A;
		  break;
 800122a:	e047      	b.n	80012bc <scan_sensors+0x1e0>
			  else if (sensor_pair_value == 0b11) sensors_state[8*j+i] = A;
 800122c:	1d7b      	adds	r3, r7, #5
 800122e:	781b      	ldrb	r3, [r3, #0]
 8001230:	2b03      	cmp	r3, #3
 8001232:	d143      	bne.n	80012bc <scan_sensors+0x1e0>
 8001234:	1dbb      	adds	r3, r7, #6
 8001236:	781b      	ldrb	r3, [r3, #0]
 8001238:	00da      	lsls	r2, r3, #3
 800123a:	1dfb      	adds	r3, r7, #7
 800123c:	781b      	ldrb	r3, [r3, #0]
 800123e:	18d3      	adds	r3, r2, r3
 8001240:	4a33      	ldr	r2, [pc, #204]	; (8001310 <scan_sensors+0x234>)
 8001242:	2100      	movs	r1, #0
 8001244:	54d1      	strb	r1, [r2, r3]
		  break;
 8001246:	e039      	b.n	80012bc <scan_sensors+0x1e0>

		  case C:
			  if(sensor_pair_value == 0b10) sensors_state[8*j+i] = D;
 8001248:	1d7b      	adds	r3, r7, #5
 800124a:	781b      	ldrb	r3, [r3, #0]
 800124c:	2b02      	cmp	r3, #2
 800124e:	d109      	bne.n	8001264 <scan_sensors+0x188>
 8001250:	1dbb      	adds	r3, r7, #6
 8001252:	781b      	ldrb	r3, [r3, #0]
 8001254:	00da      	lsls	r2, r3, #3
 8001256:	1dfb      	adds	r3, r7, #7
 8001258:	781b      	ldrb	r3, [r3, #0]
 800125a:	18d3      	adds	r3, r2, r3
 800125c:	4a2c      	ldr	r2, [pc, #176]	; (8001310 <scan_sensors+0x234>)
 800125e:	2103      	movs	r1, #3
 8001260:	54d1      	strb	r1, [r2, r3]
			  else if (sensor_pair_value == 0b01) sensors_state[8*j+i] = B;
		  break;
 8001262:	e02d      	b.n	80012c0 <scan_sensors+0x1e4>
			  else if (sensor_pair_value == 0b01) sensors_state[8*j+i] = B;
 8001264:	1d7b      	adds	r3, r7, #5
 8001266:	781b      	ldrb	r3, [r3, #0]
 8001268:	2b01      	cmp	r3, #1
 800126a:	d129      	bne.n	80012c0 <scan_sensors+0x1e4>
 800126c:	1dbb      	adds	r3, r7, #6
 800126e:	781b      	ldrb	r3, [r3, #0]
 8001270:	00da      	lsls	r2, r3, #3
 8001272:	1dfb      	adds	r3, r7, #7
 8001274:	781b      	ldrb	r3, [r3, #0]
 8001276:	18d3      	adds	r3, r2, r3
 8001278:	4a25      	ldr	r2, [pc, #148]	; (8001310 <scan_sensors+0x234>)
 800127a:	2101      	movs	r1, #1
 800127c:	54d1      	strb	r1, [r2, r3]
		  break;
 800127e:	e01f      	b.n	80012c0 <scan_sensors+0x1e4>

		  case D:
			  if(sensor_pair_value == 0b11) sensors_state[8*j+i] = A;
 8001280:	1d7b      	adds	r3, r7, #5
 8001282:	781b      	ldrb	r3, [r3, #0]
 8001284:	2b03      	cmp	r3, #3
 8001286:	d109      	bne.n	800129c <scan_sensors+0x1c0>
 8001288:	1dbb      	adds	r3, r7, #6
 800128a:	781b      	ldrb	r3, [r3, #0]
 800128c:	00da      	lsls	r2, r3, #3
 800128e:	1dfb      	adds	r3, r7, #7
 8001290:	781b      	ldrb	r3, [r3, #0]
 8001292:	18d3      	adds	r3, r2, r3
 8001294:	4a1e      	ldr	r2, [pc, #120]	; (8001310 <scan_sensors+0x234>)
 8001296:	2100      	movs	r1, #0
 8001298:	54d1      	strb	r1, [r2, r3]
			  else if (sensor_pair_value == 0b00) sensors_state[8*j+i] = C;
		  break;
 800129a:	e013      	b.n	80012c4 <scan_sensors+0x1e8>
			  else if (sensor_pair_value == 0b00) sensors_state[8*j+i] = C;
 800129c:	1d7b      	adds	r3, r7, #5
 800129e:	781b      	ldrb	r3, [r3, #0]
 80012a0:	2b00      	cmp	r3, #0
 80012a2:	d10f      	bne.n	80012c4 <scan_sensors+0x1e8>
 80012a4:	1dbb      	adds	r3, r7, #6
 80012a6:	781b      	ldrb	r3, [r3, #0]
 80012a8:	00da      	lsls	r2, r3, #3
 80012aa:	1dfb      	adds	r3, r7, #7
 80012ac:	781b      	ldrb	r3, [r3, #0]
 80012ae:	18d3      	adds	r3, r2, r3
 80012b0:	4a17      	ldr	r2, [pc, #92]	; (8001310 <scan_sensors+0x234>)
 80012b2:	2102      	movs	r1, #2
 80012b4:	54d1      	strb	r1, [r2, r3]
		  break;
 80012b6:	e005      	b.n	80012c4 <scan_sensors+0x1e8>
		  break;
 80012b8:	46c0      	nop			; (mov r8, r8)
 80012ba:	e004      	b.n	80012c6 <scan_sensors+0x1ea>
		  break;
 80012bc:	46c0      	nop			; (mov r8, r8)
 80012be:	e002      	b.n	80012c6 <scan_sensors+0x1ea>
		  break;
 80012c0:	46c0      	nop			; (mov r8, r8)
 80012c2:	e000      	b.n	80012c6 <scan_sensors+0x1ea>
		  break;
 80012c4:	46c0      	nop			; (mov r8, r8)
  for(uint8_t i=0; i<8; i++) for(uint8_t j=0; j<2; j++){
 80012c6:	1dbb      	adds	r3, r7, #6
 80012c8:	781a      	ldrb	r2, [r3, #0]
 80012ca:	1dbb      	adds	r3, r7, #6
 80012cc:	3201      	adds	r2, #1
 80012ce:	701a      	strb	r2, [r3, #0]
 80012d0:	1dbb      	adds	r3, r7, #6
 80012d2:	781b      	ldrb	r3, [r3, #0]
 80012d4:	2b01      	cmp	r3, #1
 80012d6:	d800      	bhi.n	80012da <scan_sensors+0x1fe>
 80012d8:	e712      	b.n	8001100 <scan_sensors+0x24>
 80012da:	1dfb      	adds	r3, r7, #7
 80012dc:	781a      	ldrb	r2, [r3, #0]
 80012de:	1dfb      	adds	r3, r7, #7
 80012e0:	3201      	adds	r2, #1
 80012e2:	701a      	strb	r2, [r3, #0]
 80012e4:	1dfb      	adds	r3, r7, #7
 80012e6:	781b      	ldrb	r3, [r3, #0]
 80012e8:	2b07      	cmp	r3, #7
 80012ea:	d800      	bhi.n	80012ee <scan_sensors+0x212>
 80012ec:	e704      	b.n	80010f8 <scan_sensors+0x1c>
	  }
  }
  if(master_state == sparse_polling) HAL_GPIO_WritePin(GPIOA, GPIO_PIN_5, 0);
 80012ee:	4b0a      	ldr	r3, [pc, #40]	; (8001318 <scan_sensors+0x23c>)
 80012f0:	781b      	ldrb	r3, [r3, #0]
 80012f2:	2b03      	cmp	r3, #3
 80012f4:	d106      	bne.n	8001304 <scan_sensors+0x228>
 80012f6:	23a0      	movs	r3, #160	; 0xa0
 80012f8:	05db      	lsls	r3, r3, #23
 80012fa:	2200      	movs	r2, #0
 80012fc:	2120      	movs	r1, #32
 80012fe:	0018      	movs	r0, r3
 8001300:	f001 fb1b 	bl	800293a <HAL_GPIO_WritePin>
}
 8001304:	46c0      	nop			; (mov r8, r8)
 8001306:	46bd      	mov	sp, r7
 8001308:	b002      	add	sp, #8
 800130a:	bd80      	pop	{r7, pc}
 800130c:	20000000 	.word	0x20000000
 8001310:	20000310 	.word	0x20000310
 8001314:	200005c0 	.word	0x200005c0
 8001318:	2000030c 	.word	0x2000030c

0800131c <HAL_UART_RxCpltCallback>:

void HAL_UART_RxCpltCallback(UART_HandleTypeDef *huart)
{
 800131c:	b580      	push	{r7, lr}
 800131e:	b082      	sub	sp, #8
 8001320:	af00      	add	r7, sp, #0
 8001322:	6078      	str	r0, [r7, #4]
	if (huart->Instance == USART5){
 8001324:	687b      	ldr	r3, [r7, #4]
 8001326:	681b      	ldr	r3, [r3, #0]
 8001328:	4a11      	ldr	r2, [pc, #68]	; (8001370 <HAL_UART_RxCpltCallback+0x54>)
 800132a:	4293      	cmp	r3, r2
 800132c:	d11c      	bne.n	8001368 <HAL_UART_RxCpltCallback+0x4c>
	    xbee_rx_buffer[xbee_rx_write_index] = xbee_rx_last_byte;
 800132e:	4b11      	ldr	r3, [pc, #68]	; (8001374 <HAL_UART_RxCpltCallback+0x58>)
 8001330:	781b      	ldrb	r3, [r3, #0]
 8001332:	001a      	movs	r2, r3
 8001334:	4b10      	ldr	r3, [pc, #64]	; (8001378 <HAL_UART_RxCpltCallback+0x5c>)
 8001336:	7819      	ldrb	r1, [r3, #0]
 8001338:	4b10      	ldr	r3, [pc, #64]	; (800137c <HAL_UART_RxCpltCallback+0x60>)
 800133a:	5499      	strb	r1, [r3, r2]
	    cr_flag = (xbee_rx_last_byte == 0x0D)? xbee_rx_write_index : 0;
 800133c:	4b0e      	ldr	r3, [pc, #56]	; (8001378 <HAL_UART_RxCpltCallback+0x5c>)
 800133e:	781b      	ldrb	r3, [r3, #0]
 8001340:	2b0d      	cmp	r3, #13
 8001342:	d102      	bne.n	800134a <HAL_UART_RxCpltCallback+0x2e>
 8001344:	4b0b      	ldr	r3, [pc, #44]	; (8001374 <HAL_UART_RxCpltCallback+0x58>)
 8001346:	781a      	ldrb	r2, [r3, #0]
 8001348:	e000      	b.n	800134c <HAL_UART_RxCpltCallback+0x30>
 800134a:	2200      	movs	r2, #0
 800134c:	4b0c      	ldr	r3, [pc, #48]	; (8001380 <HAL_UART_RxCpltCallback+0x64>)
 800134e:	701a      	strb	r2, [r3, #0]
	    xbee_rx_write_index++;
 8001350:	4b08      	ldr	r3, [pc, #32]	; (8001374 <HAL_UART_RxCpltCallback+0x58>)
 8001352:	781b      	ldrb	r3, [r3, #0]
 8001354:	3301      	adds	r3, #1
 8001356:	b2da      	uxtb	r2, r3
 8001358:	4b06      	ldr	r3, [pc, #24]	; (8001374 <HAL_UART_RxCpltCallback+0x58>)
 800135a:	701a      	strb	r2, [r3, #0]
	    HAL_UART_Receive_IT(&huart5, &xbee_rx_last_byte, 1);
 800135c:	4906      	ldr	r1, [pc, #24]	; (8001378 <HAL_UART_RxCpltCallback+0x5c>)
 800135e:	4b09      	ldr	r3, [pc, #36]	; (8001384 <HAL_UART_RxCpltCallback+0x68>)
 8001360:	2201      	movs	r2, #1
 8001362:	0018      	movs	r0, r3
 8001364:	f002 ffe2 	bl	800432c <HAL_UART_Receive_IT>

	}
}
 8001368:	46c0      	nop			; (mov r8, r8)
 800136a:	46bd      	mov	sp, r7
 800136c:	b002      	add	sp, #8
 800136e:	bd80      	pop	{r7, pc}
 8001370:	40005000 	.word	0x40005000
 8001374:	20000425 	.word	0x20000425
 8001378:	20000322 	.word	0x20000322
 800137c:	20000324 	.word	0x20000324
 8001380:	20000321 	.word	0x20000321
 8001384:	20000608 	.word	0x20000608

08001388 <HAL_TIM_PeriodElapsedCallback>:

void HAL_TIM_PeriodElapsedCallback(TIM_HandleTypeDef *htim){
 8001388:	b580      	push	{r7, lr}
 800138a:	b082      	sub	sp, #8
 800138c:	af00      	add	r7, sp, #0
 800138e:	6078      	str	r0, [r7, #4]
	if(htim == &htim3){
 8001390:	687a      	ldr	r2, [r7, #4]
 8001392:	4b08      	ldr	r3, [pc, #32]	; (80013b4 <HAL_TIM_PeriodElapsedCallback+0x2c>)
 8001394:	429a      	cmp	r2, r3
 8001396:	d102      	bne.n	800139e <HAL_TIM_PeriodElapsedCallback+0x16>
		update_bee_rate();
 8001398:	f000 f810 	bl	80013bc <update_bee_rate>
	} else if(htim == &htim2){
		update_signal();
	}
}
 800139c:	e005      	b.n	80013aa <HAL_TIM_PeriodElapsedCallback+0x22>
	} else if(htim == &htim2){
 800139e:	687a      	ldr	r2, [r7, #4]
 80013a0:	4b05      	ldr	r3, [pc, #20]	; (80013b8 <HAL_TIM_PeriodElapsedCallback+0x30>)
 80013a2:	429a      	cmp	r2, r3
 80013a4:	d101      	bne.n	80013aa <HAL_TIM_PeriodElapsedCallback+0x22>
		update_signal();
 80013a6:	f000 f829 	bl	80013fc <update_signal>
}
 80013aa:	46c0      	nop			; (mov r8, r8)
 80013ac:	46bd      	mov	sp, r7
 80013ae:	b002      	add	sp, #8
 80013b0:	bd80      	pop	{r7, pc}
 80013b2:	46c0      	nop			; (mov r8, r8)
 80013b4:	200005c8 	.word	0x200005c8
 80013b8:	2000068c 	.word	0x2000068c

080013bc <update_bee_rate>:

void update_bee_rate(){
 80013bc:	b580      	push	{r7, lr}
 80013be:	af00      	add	r7, sp, #0
	static long int bee_count_prev = 0;
	alert_sent_flag = 0;
 80013c0:	4b0a      	ldr	r3, [pc, #40]	; (80013ec <update_bee_rate+0x30>)
 80013c2:	2200      	movs	r2, #0
 80013c4:	701a      	strb	r2, [r3, #0]
	bee_rate = (bee_count - bee_count_prev);
 80013c6:	4b0a      	ldr	r3, [pc, #40]	; (80013f0 <update_bee_rate+0x34>)
 80013c8:	681b      	ldr	r3, [r3, #0]
 80013ca:	b29a      	uxth	r2, r3
 80013cc:	4b09      	ldr	r3, [pc, #36]	; (80013f4 <update_bee_rate+0x38>)
 80013ce:	681b      	ldr	r3, [r3, #0]
 80013d0:	b29b      	uxth	r3, r3
 80013d2:	1ad3      	subs	r3, r2, r3
 80013d4:	b29b      	uxth	r3, r3
 80013d6:	b21a      	sxth	r2, r3
 80013d8:	4b07      	ldr	r3, [pc, #28]	; (80013f8 <update_bee_rate+0x3c>)
 80013da:	801a      	strh	r2, [r3, #0]
	bee_count_prev = bee_count;
 80013dc:	4b04      	ldr	r3, [pc, #16]	; (80013f0 <update_bee_rate+0x34>)
 80013de:	681a      	ldr	r2, [r3, #0]
 80013e0:	4b04      	ldr	r3, [pc, #16]	; (80013f4 <update_bee_rate+0x38>)
 80013e2:	601a      	str	r2, [r3, #0]
}
 80013e4:	46c0      	nop			; (mov r8, r8)
 80013e6:	46bd      	mov	sp, r7
 80013e8:	bd80      	pop	{r7, pc}
 80013ea:	46c0      	nop			; (mov r8, r8)
 80013ec:	20000320 	.word	0x20000320
 80013f0:	200005c0 	.word	0x200005c0
 80013f4:	20000430 	.word	0x20000430
 80013f8:	200005c4 	.word	0x200005c4

080013fc <update_signal>:

void update_signal(){
 80013fc:	b580      	push	{r7, lr}
 80013fe:	af00      	add	r7, sp, #0
	static uint8_t i = 0;
	HAL_GPIO_WritePin(GPIOB, LED_R, signals[signal_state][i][0]);
 8001400:	4b1b      	ldr	r3, [pc, #108]	; (8001470 <update_signal+0x74>)
 8001402:	781b      	ldrb	r3, [r3, #0]
 8001404:	0019      	movs	r1, r3
 8001406:	4b1b      	ldr	r3, [pc, #108]	; (8001474 <update_signal+0x78>)
 8001408:	781b      	ldrb	r3, [r3, #0]
 800140a:	0018      	movs	r0, r3
 800140c:	4a1a      	ldr	r2, [pc, #104]	; (8001478 <update_signal+0x7c>)
 800140e:	000b      	movs	r3, r1
 8001410:	009b      	lsls	r3, r3, #2
 8001412:	185b      	adds	r3, r3, r1
 8001414:	009b      	lsls	r3, r3, #2
 8001416:	181b      	adds	r3, r3, r0
 8001418:	005b      	lsls	r3, r3, #1
 800141a:	5c9b      	ldrb	r3, [r3, r2]
 800141c:	4817      	ldr	r0, [pc, #92]	; (800147c <update_signal+0x80>)
 800141e:	001a      	movs	r2, r3
 8001420:	2104      	movs	r1, #4
 8001422:	f001 fa8a 	bl	800293a <HAL_GPIO_WritePin>
	HAL_GPIO_WritePin(GPIOB, LED_V, signals[signal_state][i][1]);
 8001426:	4b12      	ldr	r3, [pc, #72]	; (8001470 <update_signal+0x74>)
 8001428:	781b      	ldrb	r3, [r3, #0]
 800142a:	0019      	movs	r1, r3
 800142c:	4b11      	ldr	r3, [pc, #68]	; (8001474 <update_signal+0x78>)
 800142e:	781b      	ldrb	r3, [r3, #0]
 8001430:	0018      	movs	r0, r3
 8001432:	4a11      	ldr	r2, [pc, #68]	; (8001478 <update_signal+0x7c>)
 8001434:	000b      	movs	r3, r1
 8001436:	009b      	lsls	r3, r3, #2
 8001438:	185b      	adds	r3, r3, r1
 800143a:	009b      	lsls	r3, r3, #2
 800143c:	181b      	adds	r3, r3, r0
 800143e:	005b      	lsls	r3, r3, #1
 8001440:	18d3      	adds	r3, r2, r3
 8001442:	3301      	adds	r3, #1
 8001444:	781a      	ldrb	r2, [r3, #0]
 8001446:	2380      	movs	r3, #128	; 0x80
 8001448:	00db      	lsls	r3, r3, #3
 800144a:	480c      	ldr	r0, [pc, #48]	; (800147c <update_signal+0x80>)
 800144c:	0019      	movs	r1, r3
 800144e:	f001 fa74 	bl	800293a <HAL_GPIO_WritePin>
	i = (i+1)%20;
 8001452:	4b08      	ldr	r3, [pc, #32]	; (8001474 <update_signal+0x78>)
 8001454:	781b      	ldrb	r3, [r3, #0]
 8001456:	3301      	adds	r3, #1
 8001458:	2114      	movs	r1, #20
 800145a:	0018      	movs	r0, r3
 800145c:	f7fe ffd6 	bl	800040c <__aeabi_idivmod>
 8001460:	000b      	movs	r3, r1
 8001462:	b2da      	uxtb	r2, r3
 8001464:	4b03      	ldr	r3, [pc, #12]	; (8001474 <update_signal+0x78>)
 8001466:	701a      	strb	r2, [r3, #0]
}
 8001468:	46c0      	nop			; (mov r8, r8)
 800146a:	46bd      	mov	sp, r7
 800146c:	bd80      	pop	{r7, pc}
 800146e:	46c0      	nop			; (mov r8, r8)
 8001470:	20000429 	.word	0x20000429
 8001474:	20000434 	.word	0x20000434
 8001478:	20000020 	.word	0x20000020
 800147c:	50000400 	.word	0x50000400

08001480 <invert_lsB_msB>:

void invert_lsB_msB(uint64_t * var, uint8_t length){
 8001480:	b5f0      	push	{r4, r5, r6, r7, lr}
 8001482:	b08d      	sub	sp, #52	; 0x34
 8001484:	af00      	add	r7, sp, #0
 8001486:	6178      	str	r0, [r7, #20]
 8001488:	0008      	movs	r0, r1
 800148a:	2113      	movs	r1, #19
 800148c:	1879      	adds	r1, r7, r1
 800148e:	7008      	strb	r0, [r1, #0]
	uint64_t new_var = 0;
 8001490:	2000      	movs	r0, #0
 8001492:	2100      	movs	r1, #0
 8001494:	62b8      	str	r0, [r7, #40]	; 0x28
 8001496:	62f9      	str	r1, [r7, #44]	; 0x2c
	for(uint8_t i=0; i<length; i++){
 8001498:	2117      	movs	r1, #23
 800149a:	2010      	movs	r0, #16
 800149c:	4684      	mov	ip, r0
 800149e:	44bc      	add	ip, r7
 80014a0:	4461      	add	r1, ip
 80014a2:	2000      	movs	r0, #0
 80014a4:	7008      	strb	r0, [r1, #0]
 80014a6:	e06a      	b.n	800157e <invert_lsB_msB+0xfe>
		uint64_t byte = (*var & (0xFF<<(8*i)))>>(8*i);
 80014a8:	6979      	ldr	r1, [r7, #20]
 80014aa:	6808      	ldr	r0, [r1, #0]
 80014ac:	6849      	ldr	r1, [r1, #4]
 80014ae:	6038      	str	r0, [r7, #0]
 80014b0:	6079      	str	r1, [r7, #4]
 80014b2:	2617      	movs	r6, #23
 80014b4:	0030      	movs	r0, r6
 80014b6:	2110      	movs	r1, #16
 80014b8:	468c      	mov	ip, r1
 80014ba:	44bc      	add	ip, r7
 80014bc:	4466      	add	r6, ip
 80014be:	7836      	ldrb	r6, [r6, #0]
 80014c0:	00f6      	lsls	r6, r6, #3
 80014c2:	21ff      	movs	r1, #255	; 0xff
 80014c4:	468c      	mov	ip, r1
 80014c6:	4661      	mov	r1, ip
 80014c8:	40b1      	lsls	r1, r6
 80014ca:	000e      	movs	r6, r1
 80014cc:	60be      	str	r6, [r7, #8]
 80014ce:	17f6      	asrs	r6, r6, #31
 80014d0:	60fe      	str	r6, [r7, #12]
 80014d2:	68be      	ldr	r6, [r7, #8]
 80014d4:	0031      	movs	r1, r6
 80014d6:	683e      	ldr	r6, [r7, #0]
 80014d8:	4031      	ands	r1, r6
 80014da:	000c      	movs	r4, r1
 80014dc:	68fe      	ldr	r6, [r7, #12]
 80014de:	0031      	movs	r1, r6
 80014e0:	687e      	ldr	r6, [r7, #4]
 80014e2:	4031      	ands	r1, r6
 80014e4:	000d      	movs	r5, r1
 80014e6:	0006      	movs	r6, r0
 80014e8:	2110      	movs	r1, #16
 80014ea:	1879      	adds	r1, r7, r1
 80014ec:	1989      	adds	r1, r1, r6
 80014ee:	7809      	ldrb	r1, [r1, #0]
 80014f0:	00c9      	lsls	r1, r1, #3
 80014f2:	0008      	movs	r0, r1
 80014f4:	3820      	subs	r0, #32
 80014f6:	2800      	cmp	r0, #0
 80014f8:	db04      	blt.n	8001504 <invert_lsB_msB+0x84>
 80014fa:	002e      	movs	r6, r5
 80014fc:	40c6      	lsrs	r6, r0
 80014fe:	0030      	movs	r0, r6
 8001500:	61b8      	str	r0, [r7, #24]
 8001502:	e008      	b.n	8001516 <invert_lsB_msB+0x96>
 8001504:	2020      	movs	r0, #32
 8001506:	1a40      	subs	r0, r0, r1
 8001508:	002e      	movs	r6, r5
 800150a:	4086      	lsls	r6, r0
 800150c:	0030      	movs	r0, r6
 800150e:	0026      	movs	r6, r4
 8001510:	40ce      	lsrs	r6, r1
 8001512:	4330      	orrs	r0, r6
 8001514:	61b8      	str	r0, [r7, #24]
 8001516:	0028      	movs	r0, r5
 8001518:	40c8      	lsrs	r0, r1
 800151a:	0001      	movs	r1, r0
 800151c:	61f9      	str	r1, [r7, #28]
		new_var += byte<<((length-1-i)*8);
 800151e:	2113      	movs	r1, #19
 8001520:	1879      	adds	r1, r7, r1
 8001522:	7809      	ldrb	r1, [r1, #0]
 8001524:	1e48      	subs	r0, r1, #1
 8001526:	2117      	movs	r1, #23
 8001528:	2610      	movs	r6, #16
 800152a:	46b4      	mov	ip, r6
 800152c:	44bc      	add	ip, r7
 800152e:	4461      	add	r1, ip
 8001530:	7809      	ldrb	r1, [r1, #0]
 8001532:	1a41      	subs	r1, r0, r1
 8001534:	00c9      	lsls	r1, r1, #3
 8001536:	0008      	movs	r0, r1
 8001538:	3820      	subs	r0, #32
 800153a:	2800      	cmp	r0, #0
 800153c:	db03      	blt.n	8001546 <invert_lsB_msB+0xc6>
 800153e:	69be      	ldr	r6, [r7, #24]
 8001540:	4086      	lsls	r6, r0
 8001542:	0033      	movs	r3, r6
 8001544:	e008      	b.n	8001558 <invert_lsB_msB+0xd8>
 8001546:	2020      	movs	r0, #32
 8001548:	1a40      	subs	r0, r0, r1
 800154a:	69be      	ldr	r6, [r7, #24]
 800154c:	40c6      	lsrs	r6, r0
 800154e:	0030      	movs	r0, r6
 8001550:	69fe      	ldr	r6, [r7, #28]
 8001552:	408e      	lsls	r6, r1
 8001554:	0033      	movs	r3, r6
 8001556:	4303      	orrs	r3, r0
 8001558:	69b8      	ldr	r0, [r7, #24]
 800155a:	4088      	lsls	r0, r1
 800155c:	0002      	movs	r2, r0
 800155e:	6ab8      	ldr	r0, [r7, #40]	; 0x28
 8001560:	6af9      	ldr	r1, [r7, #44]	; 0x2c
 8001562:	1880      	adds	r0, r0, r2
 8001564:	4159      	adcs	r1, r3
 8001566:	62b8      	str	r0, [r7, #40]	; 0x28
 8001568:	62f9      	str	r1, [r7, #44]	; 0x2c
	for(uint8_t i=0; i<length; i++){
 800156a:	2617      	movs	r6, #23
 800156c:	2110      	movs	r1, #16
 800156e:	1879      	adds	r1, r7, r1
 8001570:	1989      	adds	r1, r1, r6
 8001572:	7808      	ldrb	r0, [r1, #0]
 8001574:	2110      	movs	r1, #16
 8001576:	1879      	adds	r1, r7, r1
 8001578:	1989      	adds	r1, r1, r6
 800157a:	3001      	adds	r0, #1
 800157c:	7008      	strb	r0, [r1, #0]
 800157e:	2117      	movs	r1, #23
 8001580:	2010      	movs	r0, #16
 8001582:	1838      	adds	r0, r7, r0
 8001584:	1840      	adds	r0, r0, r1
 8001586:	2113      	movs	r1, #19
 8001588:	1879      	adds	r1, r7, r1
 800158a:	7800      	ldrb	r0, [r0, #0]
 800158c:	7809      	ldrb	r1, [r1, #0]
 800158e:	4288      	cmp	r0, r1
 8001590:	d38a      	bcc.n	80014a8 <invert_lsB_msB+0x28>
	}

	*var = new_var;
 8001592:	6979      	ldr	r1, [r7, #20]
 8001594:	6aba      	ldr	r2, [r7, #40]	; 0x28
 8001596:	6afb      	ldr	r3, [r7, #44]	; 0x2c
 8001598:	600a      	str	r2, [r1, #0]
 800159a:	604b      	str	r3, [r1, #4]
}
 800159c:	46c0      	nop			; (mov r8, r8)
 800159e:	46bd      	mov	sp, r7
 80015a0:	b00d      	add	sp, #52	; 0x34
 80015a2:	bdf0      	pop	{r4, r5, r6, r7, pc}

080015a4 <xbee_send_string>:

void xbee_send_string(uint8_t * string){
 80015a4:	b5f0      	push	{r4, r5, r6, r7, lr}
 80015a6:	b0cf      	sub	sp, #316	; 0x13c
 80015a8:	af00      	add	r7, sp, #0
 80015aa:	6078      	str	r0, [r7, #4]
	struct frame tx_frame = {0};
 80015ac:	4b81      	ldr	r3, [pc, #516]	; (80017b4 <xbee_send_string+0x210>)
 80015ae:	229c      	movs	r2, #156	; 0x9c
 80015b0:	0052      	lsls	r2, r2, #1
 80015b2:	4694      	mov	ip, r2
 80015b4:	44bc      	add	ip, r7
 80015b6:	4463      	add	r3, ip
 80015b8:	0018      	movs	r0, r3
 80015ba:	2390      	movs	r3, #144	; 0x90
 80015bc:	005b      	lsls	r3, r3, #1
 80015be:	001a      	movs	r2, r3
 80015c0:	2100      	movs	r1, #0
 80015c2:	f004 f994 	bl	80058ee <memset>
	tx_frame.length = 0x0E + strlen(string);
 80015c6:	687b      	ldr	r3, [r7, #4]
 80015c8:	0018      	movs	r0, r3
 80015ca:	f7fe fd9d 	bl	8000108 <strlen>
 80015ce:	0003      	movs	r3, r0
 80015d0:	b29b      	uxth	r3, r3
 80015d2:	330e      	adds	r3, #14
 80015d4:	b29a      	uxth	r2, r3
 80015d6:	4b77      	ldr	r3, [pc, #476]	; (80017b4 <xbee_send_string+0x210>)
 80015d8:	219c      	movs	r1, #156	; 0x9c
 80015da:	0049      	lsls	r1, r1, #1
 80015dc:	468c      	mov	ip, r1
 80015de:	44bc      	add	ip, r7
 80015e0:	4463      	add	r3, ip
 80015e2:	801a      	strh	r2, [r3, #0]
	invert_lsB_msB((uint64_t*)&tx_frame.length, 2);
 80015e4:	2608      	movs	r6, #8
 80015e6:	19bb      	adds	r3, r7, r6
 80015e8:	2102      	movs	r1, #2
 80015ea:	0018      	movs	r0, r3
 80015ec:	f7ff ff48 	bl	8001480 <invert_lsB_msB>
	tx_frame.type = 0x10;
 80015f0:	4b70      	ldr	r3, [pc, #448]	; (80017b4 <xbee_send_string+0x210>)
 80015f2:	229c      	movs	r2, #156	; 0x9c
 80015f4:	0052      	lsls	r2, r2, #1
 80015f6:	4694      	mov	ip, r2
 80015f8:	44bc      	add	ip, r7
 80015fa:	4463      	add	r3, ip
 80015fc:	2210      	movs	r2, #16
 80015fe:	709a      	strb	r2, [r3, #2]
	tx_frame.id = 0x01;
 8001600:	4b6c      	ldr	r3, [pc, #432]	; (80017b4 <xbee_send_string+0x210>)
 8001602:	229c      	movs	r2, #156	; 0x9c
 8001604:	0052      	lsls	r2, r2, #1
 8001606:	4694      	mov	ip, r2
 8001608:	44bc      	add	ip, r7
 800160a:	4463      	add	r3, ip
 800160c:	2201      	movs	r2, #1
 800160e:	70da      	strb	r2, [r3, #3]
	tx_frame.address64 = 0xFFFF;
 8001610:	4b68      	ldr	r3, [pc, #416]	; (80017b4 <xbee_send_string+0x210>)
 8001612:	229c      	movs	r2, #156	; 0x9c
 8001614:	0052      	lsls	r2, r2, #1
 8001616:	18ba      	adds	r2, r7, r2
 8001618:	18d1      	adds	r1, r2, r3
 800161a:	4a67      	ldr	r2, [pc, #412]	; (80017b8 <xbee_send_string+0x214>)
 800161c:	2300      	movs	r3, #0
 800161e:	608a      	str	r2, [r1, #8]
 8001620:	60cb      	str	r3, [r1, #12]
	invert_lsB_msB((uint64_t*)&tx_frame.address64, 8);
 8001622:	19bb      	adds	r3, r7, r6
 8001624:	3308      	adds	r3, #8
 8001626:	2108      	movs	r1, #8
 8001628:	0018      	movs	r0, r3
 800162a:	f7ff ff29 	bl	8001480 <invert_lsB_msB>
	tx_frame.address16 = 0xFFFE;
 800162e:	4b61      	ldr	r3, [pc, #388]	; (80017b4 <xbee_send_string+0x210>)
 8001630:	229c      	movs	r2, #156	; 0x9c
 8001632:	0052      	lsls	r2, r2, #1
 8001634:	4694      	mov	ip, r2
 8001636:	44bc      	add	ip, r7
 8001638:	4463      	add	r3, ip
 800163a:	2202      	movs	r2, #2
 800163c:	4252      	negs	r2, r2
 800163e:	821a      	strh	r2, [r3, #16]
	invert_lsB_msB((uint64_t*)&tx_frame.address16, 2);
 8001640:	19bb      	adds	r3, r7, r6
 8001642:	3310      	adds	r3, #16
 8001644:	2102      	movs	r1, #2
 8001646:	0018      	movs	r0, r3
 8001648:	f7ff ff1a 	bl	8001480 <invert_lsB_msB>
	memcpy(tx_frame.content, string, strlen(string));
 800164c:	687b      	ldr	r3, [r7, #4]
 800164e:	0018      	movs	r0, r3
 8001650:	f7fe fd5a 	bl	8000108 <strlen>
 8001654:	0002      	movs	r2, r0
 8001656:	6879      	ldr	r1, [r7, #4]
 8001658:	19bb      	adds	r3, r7, r6
 800165a:	3313      	adds	r3, #19
 800165c:	0018      	movs	r0, r3
 800165e:	f004 f93d 	bl	80058dc <memcpy>

	uint64_t sum = 0;
 8001662:	2200      	movs	r2, #0
 8001664:	2300      	movs	r3, #0
 8001666:	2198      	movs	r1, #152	; 0x98
 8001668:	0049      	lsls	r1, r1, #1
 800166a:	1879      	adds	r1, r7, r1
 800166c:	600a      	str	r2, [r1, #0]
 800166e:	604b      	str	r3, [r1, #4]
	uint16_t frame_length;
	frame_length = 275;
 8001670:	2394      	movs	r3, #148	; 0x94
 8001672:	005b      	lsls	r3, r3, #1
 8001674:	18fb      	adds	r3, r7, r3
 8001676:	2214      	movs	r2, #20
 8001678:	32ff      	adds	r2, #255	; 0xff
 800167a:	801a      	strh	r2, [r3, #0]
	uint8_t * ptr = (void *)&tx_frame+2;
 800167c:	19bb      	adds	r3, r7, r6
 800167e:	3302      	adds	r3, #2
 8001680:	2296      	movs	r2, #150	; 0x96
 8001682:	0052      	lsls	r2, r2, #1
 8001684:	18ba      	adds	r2, r7, r2
 8001686:	6013      	str	r3, [r2, #0]
	for(uint16_t i=0; i<frame_length-2; i++){
 8001688:	2395      	movs	r3, #149	; 0x95
 800168a:	005b      	lsls	r3, r3, #1
 800168c:	18fb      	adds	r3, r7, r3
 800168e:	2200      	movs	r2, #0
 8001690:	801a      	strh	r2, [r3, #0]
 8001692:	e01d      	b.n	80016d0 <xbee_send_string+0x12c>
		sum += *ptr;
 8001694:	2196      	movs	r1, #150	; 0x96
 8001696:	0049      	lsls	r1, r1, #1
 8001698:	187b      	adds	r3, r7, r1
 800169a:	681b      	ldr	r3, [r3, #0]
 800169c:	781b      	ldrb	r3, [r3, #0]
 800169e:	001c      	movs	r4, r3
 80016a0:	2300      	movs	r3, #0
 80016a2:	001d      	movs	r5, r3
 80016a4:	2098      	movs	r0, #152	; 0x98
 80016a6:	0040      	lsls	r0, r0, #1
 80016a8:	183b      	adds	r3, r7, r0
 80016aa:	681a      	ldr	r2, [r3, #0]
 80016ac:	685b      	ldr	r3, [r3, #4]
 80016ae:	1912      	adds	r2, r2, r4
 80016b0:	416b      	adcs	r3, r5
 80016b2:	1838      	adds	r0, r7, r0
 80016b4:	6002      	str	r2, [r0, #0]
 80016b6:	6043      	str	r3, [r0, #4]
		ptr++;
 80016b8:	187b      	adds	r3, r7, r1
 80016ba:	681b      	ldr	r3, [r3, #0]
 80016bc:	3301      	adds	r3, #1
 80016be:	187a      	adds	r2, r7, r1
 80016c0:	6013      	str	r3, [r2, #0]
	for(uint16_t i=0; i<frame_length-2; i++){
 80016c2:	2195      	movs	r1, #149	; 0x95
 80016c4:	0049      	lsls	r1, r1, #1
 80016c6:	187b      	adds	r3, r7, r1
 80016c8:	881a      	ldrh	r2, [r3, #0]
 80016ca:	187b      	adds	r3, r7, r1
 80016cc:	3201      	adds	r2, #1
 80016ce:	801a      	strh	r2, [r3, #0]
 80016d0:	2395      	movs	r3, #149	; 0x95
 80016d2:	005b      	lsls	r3, r3, #1
 80016d4:	18fb      	adds	r3, r7, r3
 80016d6:	881a      	ldrh	r2, [r3, #0]
 80016d8:	2394      	movs	r3, #148	; 0x94
 80016da:	005b      	lsls	r3, r3, #1
 80016dc:	18fb      	adds	r3, r7, r3
 80016de:	881b      	ldrh	r3, [r3, #0]
 80016e0:	3b02      	subs	r3, #2
 80016e2:	429a      	cmp	r2, r3
 80016e4:	dbd6      	blt.n	8001694 <xbee_send_string+0xf0>
	}

	tx_frame.check_sum = 0xFF - (sum & 0xFF);
 80016e6:	2398      	movs	r3, #152	; 0x98
 80016e8:	005b      	lsls	r3, r3, #1
 80016ea:	18fb      	adds	r3, r7, r3
 80016ec:	681a      	ldr	r2, [r3, #0]
 80016ee:	685b      	ldr	r3, [r3, #4]
 80016f0:	1c13      	adds	r3, r2, #0
 80016f2:	b2db      	uxtb	r3, r3
 80016f4:	43db      	mvns	r3, r3
 80016f6:	b2d9      	uxtb	r1, r3
 80016f8:	4b2e      	ldr	r3, [pc, #184]	; (80017b4 <xbee_send_string+0x210>)
 80016fa:	229c      	movs	r2, #156	; 0x9c
 80016fc:	0052      	lsls	r2, r2, #1
 80016fe:	18ba      	adds	r2, r7, r2
 8001700:	18d2      	adds	r2, r2, r3
 8001702:	238c      	movs	r3, #140	; 0x8c
 8001704:	005b      	lsls	r3, r3, #1
 8001706:	54d1      	strb	r1, [r2, r3]


	HAL_UART_Transmit(&huart5, "~", 1, 100);
 8001708:	492c      	ldr	r1, [pc, #176]	; (80017bc <xbee_send_string+0x218>)
 800170a:	482d      	ldr	r0, [pc, #180]	; (80017c0 <xbee_send_string+0x21c>)
 800170c:	2364      	movs	r3, #100	; 0x64
 800170e:	2201      	movs	r2, #1
 8001710:	f002 fd64 	bl	80041dc <HAL_UART_Transmit>
	HAL_UART_Transmit(&huart5, (uint8_t*)&tx_frame.length, 2, 100);
 8001714:	2408      	movs	r4, #8
 8001716:	1939      	adds	r1, r7, r4
 8001718:	4829      	ldr	r0, [pc, #164]	; (80017c0 <xbee_send_string+0x21c>)
 800171a:	2364      	movs	r3, #100	; 0x64
 800171c:	2202      	movs	r2, #2
 800171e:	f002 fd5d 	bl	80041dc <HAL_UART_Transmit>
	HAL_UART_Transmit(&huart5, &tx_frame.type, 1, 100);
 8001722:	193b      	adds	r3, r7, r4
 8001724:	1c99      	adds	r1, r3, #2
 8001726:	4826      	ldr	r0, [pc, #152]	; (80017c0 <xbee_send_string+0x21c>)
 8001728:	2364      	movs	r3, #100	; 0x64
 800172a:	2201      	movs	r2, #1
 800172c:	f002 fd56 	bl	80041dc <HAL_UART_Transmit>
	HAL_UART_Transmit(&huart5, &tx_frame.id, 1, 100);
 8001730:	193b      	adds	r3, r7, r4
 8001732:	1cd9      	adds	r1, r3, #3
 8001734:	4822      	ldr	r0, [pc, #136]	; (80017c0 <xbee_send_string+0x21c>)
 8001736:	2364      	movs	r3, #100	; 0x64
 8001738:	2201      	movs	r2, #1
 800173a:	f002 fd4f 	bl	80041dc <HAL_UART_Transmit>
	HAL_UART_Transmit(&huart5, &tx_frame.address64, 8, 100);
 800173e:	193b      	adds	r3, r7, r4
 8001740:	3308      	adds	r3, #8
 8001742:	0019      	movs	r1, r3
 8001744:	481e      	ldr	r0, [pc, #120]	; (80017c0 <xbee_send_string+0x21c>)
 8001746:	2364      	movs	r3, #100	; 0x64
 8001748:	2208      	movs	r2, #8
 800174a:	f002 fd47 	bl	80041dc <HAL_UART_Transmit>
	HAL_UART_Transmit(&huart5, &tx_frame.address16, 2, 100);
 800174e:	193b      	adds	r3, r7, r4
 8001750:	3310      	adds	r3, #16
 8001752:	0019      	movs	r1, r3
 8001754:	481a      	ldr	r0, [pc, #104]	; (80017c0 <xbee_send_string+0x21c>)
 8001756:	2364      	movs	r3, #100	; 0x64
 8001758:	2202      	movs	r2, #2
 800175a:	f002 fd3f 	bl	80041dc <HAL_UART_Transmit>
	HAL_UART_Transmit(&huart5, &tx_frame.content_index, 1, 100);
 800175e:	193b      	adds	r3, r7, r4
 8001760:	3314      	adds	r3, #20
 8001762:	33ff      	adds	r3, #255	; 0xff
 8001764:	0019      	movs	r1, r3
 8001766:	4816      	ldr	r0, [pc, #88]	; (80017c0 <xbee_send_string+0x21c>)
 8001768:	2364      	movs	r3, #100	; 0x64
 800176a:	2201      	movs	r2, #1
 800176c:	f002 fd36 	bl	80041dc <HAL_UART_Transmit>
	HAL_UART_Transmit(&huart5, &tx_frame.option, 1, 100);
 8001770:	193b      	adds	r3, r7, r4
 8001772:	3312      	adds	r3, #18
 8001774:	0019      	movs	r1, r3
 8001776:	4812      	ldr	r0, [pc, #72]	; (80017c0 <xbee_send_string+0x21c>)
 8001778:	2364      	movs	r3, #100	; 0x64
 800177a:	2201      	movs	r2, #1
 800177c:	f002 fd2e 	bl	80041dc <HAL_UART_Transmit>
	HAL_UART_Transmit(&huart5, &tx_frame.content, strlen(string), 100);
 8001780:	687b      	ldr	r3, [r7, #4]
 8001782:	0018      	movs	r0, r3
 8001784:	f7fe fcc0 	bl	8000108 <strlen>
 8001788:	0003      	movs	r3, r0
 800178a:	b29a      	uxth	r2, r3
 800178c:	193b      	adds	r3, r7, r4
 800178e:	3313      	adds	r3, #19
 8001790:	0019      	movs	r1, r3
 8001792:	480b      	ldr	r0, [pc, #44]	; (80017c0 <xbee_send_string+0x21c>)
 8001794:	2364      	movs	r3, #100	; 0x64
 8001796:	f002 fd21 	bl	80041dc <HAL_UART_Transmit>
	HAL_UART_Transmit(&huart5, &tx_frame.check_sum, 1, 100);
 800179a:	193b      	adds	r3, r7, r4
 800179c:	3319      	adds	r3, #25
 800179e:	33ff      	adds	r3, #255	; 0xff
 80017a0:	0019      	movs	r1, r3
 80017a2:	4807      	ldr	r0, [pc, #28]	; (80017c0 <xbee_send_string+0x21c>)
 80017a4:	2364      	movs	r3, #100	; 0x64
 80017a6:	2201      	movs	r2, #1
 80017a8:	f002 fd18 	bl	80041dc <HAL_UART_Transmit>
}
 80017ac:	46c0      	nop			; (mov r8, r8)
 80017ae:	46bd      	mov	sp, r7
 80017b0:	b04f      	add	sp, #316	; 0x13c
 80017b2:	bdf0      	pop	{r4, r5, r6, r7, pc}
 80017b4:	fffffed0 	.word	0xfffffed0
 80017b8:	0000ffff 	.word	0x0000ffff
 80017bc:	08006b74 	.word	0x08006b74
 80017c0:	20000608 	.word	0x20000608

080017c4 <xbee_send_alert>:
void xbee_send_alert(){
 80017c4:	b590      	push	{r4, r7, lr}
 80017c6:	b0c3      	sub	sp, #268	; 0x10c
 80017c8:	af02      	add	r7, sp, #8
	if(alert_sent_flag == 0){
 80017ca:	4b0d      	ldr	r3, [pc, #52]	; (8001800 <xbee_send_alert+0x3c>)
 80017cc:	781b      	ldrb	r3, [r3, #0]
 80017ce:	2b00      	cmp	r3, #0
 80017d0:	d112      	bne.n	80017f8 <xbee_send_alert+0x34>
		alert_sent_flag = 1;
 80017d2:	4b0b      	ldr	r3, [pc, #44]	; (8001800 <xbee_send_alert+0x3c>)
 80017d4:	2201      	movs	r2, #1
 80017d6:	701a      	strb	r2, [r3, #0]
		uint8_t string[256];
		sprintf(string, "E %s %li %li\r", config[1][1], bee_count, bee_rate);
 80017d8:	4b0a      	ldr	r3, [pc, #40]	; (8001804 <xbee_send_alert+0x40>)
 80017da:	681c      	ldr	r4, [r3, #0]
 80017dc:	4b0a      	ldr	r3, [pc, #40]	; (8001808 <xbee_send_alert+0x44>)
 80017de:	2200      	movs	r2, #0
 80017e0:	5e9b      	ldrsh	r3, [r3, r2]
 80017e2:	4a0a      	ldr	r2, [pc, #40]	; (800180c <xbee_send_alert+0x48>)
 80017e4:	490a      	ldr	r1, [pc, #40]	; (8001810 <xbee_send_alert+0x4c>)
 80017e6:	0038      	movs	r0, r7
 80017e8:	9300      	str	r3, [sp, #0]
 80017ea:	0023      	movs	r3, r4
 80017ec:	f004 f888 	bl	8005900 <siprintf>
		xbee_send_string(string);
 80017f0:	003b      	movs	r3, r7
 80017f2:	0018      	movs	r0, r3
 80017f4:	f7ff fed6 	bl	80015a4 <xbee_send_string>
	}

}
 80017f8:	46c0      	nop			; (mov r8, r8)
 80017fa:	46bd      	mov	sp, r7
 80017fc:	b041      	add	sp, #260	; 0x104
 80017fe:	bd90      	pop	{r4, r7, pc}
 8001800:	20000320 	.word	0x20000320
 8001804:	200005c0 	.word	0x200005c0
 8001808:	200005c4 	.word	0x200005c4
 800180c:	20000106 	.word	0x20000106
 8001810:	08006b78 	.word	0x08006b78

08001814 <read_xbee>:


void read_xbee(){
 8001814:	b5f0      	push	{r4, r5, r6, r7, lr}
 8001816:	b09d      	sub	sp, #116	; 0x74
 8001818:	af00      	add	r7, sp, #0
  static struct frame received_frame = {0};

  if(xbee_rx_read_index<xbee_rx_write_index && master_state != xbee_init){
 800181a:	4bd6      	ldr	r3, [pc, #856]	; (8001b74 <read_xbee+0x360>)
 800181c:	781a      	ldrb	r2, [r3, #0]
 800181e:	4bd6      	ldr	r3, [pc, #856]	; (8001b78 <read_xbee+0x364>)
 8001820:	781b      	ldrb	r3, [r3, #0]
 8001822:	429a      	cmp	r2, r3
 8001824:	d300      	bcc.n	8001828 <read_xbee+0x14>
 8001826:	e327      	b.n	8001e78 <read_xbee+0x664>
 8001828:	4bd4      	ldr	r3, [pc, #848]	; (8001b7c <read_xbee+0x368>)
 800182a:	781b      	ldrb	r3, [r3, #0]
 800182c:	2b01      	cmp	r3, #1
 800182e:	d100      	bne.n	8001832 <read_xbee+0x1e>
 8001830:	e322      	b.n	8001e78 <read_xbee+0x664>
	  uint64_t sum = 0;
 8001832:	2200      	movs	r2, #0
 8001834:	2300      	movs	r3, #0
 8001836:	66ba      	str	r2, [r7, #104]	; 0x68
 8001838:	66fb      	str	r3, [r7, #108]	; 0x6c
	  static uint8_t multiple_byte_step;
	  uint8_t id_check[10] = {0};
 800183a:	2354      	movs	r3, #84	; 0x54
 800183c:	18fa      	adds	r2, r7, r3
 800183e:	2300      	movs	r3, #0
 8001840:	6013      	str	r3, [r2, #0]
 8001842:	1d10      	adds	r0, r2, #4
 8001844:	2306      	movs	r3, #6
 8001846:	001a      	movs	r2, r3
 8001848:	2100      	movs	r1, #0
 800184a:	f004 f850 	bl	80058ee <memset>

	  switch (xbee_receive_state){
 800184e:	4bcc      	ldr	r3, [pc, #816]	; (8001b80 <read_xbee+0x36c>)
 8001850:	781b      	ldrb	r3, [r3, #0]
 8001852:	2b0a      	cmp	r3, #10
 8001854:	d900      	bls.n	8001858 <read_xbee+0x44>
 8001856:	e309      	b.n	8001e6c <read_xbee+0x658>
 8001858:	009a      	lsls	r2, r3, #2
 800185a:	4bca      	ldr	r3, [pc, #808]	; (8001b84 <read_xbee+0x370>)
 800185c:	18d3      	adds	r3, r2, r3
 800185e:	681b      	ldr	r3, [r3, #0]
 8001860:	469f      	mov	pc, r3
		  case idle:
			  if(xbee_rx_buffer[xbee_rx_read_index] == 0x7E){
 8001862:	4bc4      	ldr	r3, [pc, #784]	; (8001b74 <read_xbee+0x360>)
 8001864:	781b      	ldrb	r3, [r3, #0]
 8001866:	001a      	movs	r2, r3
 8001868:	4bc7      	ldr	r3, [pc, #796]	; (8001b88 <read_xbee+0x374>)
 800186a:	5c9b      	ldrb	r3, [r3, r2]
 800186c:	2b7e      	cmp	r3, #126	; 0x7e
 800186e:	d000      	beq.n	8001872 <read_xbee+0x5e>
 8001870:	e2fb      	b.n	8001e6a <read_xbee+0x656>
				  xbee_receive_state = frame_length;
 8001872:	4bc3      	ldr	r3, [pc, #780]	; (8001b80 <read_xbee+0x36c>)
 8001874:	2201      	movs	r2, #1
 8001876:	701a      	strb	r2, [r3, #0]
			  }
			  /*else if (lora_requested && xbee_rx_buffer[xbee_rx_read_index] == 0xAA){
				  is_coordinator = True;
				  lora_requested = False;
			  }*/
		  break;
 8001878:	e2f7      	b.n	8001e6a <read_xbee+0x656>

		  case frame_length:
			  received_frame.length += ((uint16_t)(xbee_rx_buffer[xbee_rx_read_index])) << (8-8*multiple_byte_step) ;
 800187a:	4bc4      	ldr	r3, [pc, #784]	; (8001b8c <read_xbee+0x378>)
 800187c:	881a      	ldrh	r2, [r3, #0]
 800187e:	4bbd      	ldr	r3, [pc, #756]	; (8001b74 <read_xbee+0x360>)
 8001880:	781b      	ldrb	r3, [r3, #0]
 8001882:	0019      	movs	r1, r3
 8001884:	4bc0      	ldr	r3, [pc, #768]	; (8001b88 <read_xbee+0x374>)
 8001886:	5c5b      	ldrb	r3, [r3, r1]
 8001888:	0019      	movs	r1, r3
 800188a:	4bc1      	ldr	r3, [pc, #772]	; (8001b90 <read_xbee+0x37c>)
 800188c:	781b      	ldrb	r3, [r3, #0]
 800188e:	0018      	movs	r0, r3
 8001890:	2301      	movs	r3, #1
 8001892:	1a1b      	subs	r3, r3, r0
 8001894:	00db      	lsls	r3, r3, #3
 8001896:	4099      	lsls	r1, r3
 8001898:	000b      	movs	r3, r1
 800189a:	b29b      	uxth	r3, r3
 800189c:	18d3      	adds	r3, r2, r3
 800189e:	b29a      	uxth	r2, r3
 80018a0:	4bba      	ldr	r3, [pc, #744]	; (8001b8c <read_xbee+0x378>)
 80018a2:	801a      	strh	r2, [r3, #0]
			  if(multiple_byte_step){
 80018a4:	4bba      	ldr	r3, [pc, #744]	; (8001b90 <read_xbee+0x37c>)
 80018a6:	781b      	ldrb	r3, [r3, #0]
 80018a8:	2b00      	cmp	r3, #0
 80018aa:	d006      	beq.n	80018ba <read_xbee+0xa6>
				  multiple_byte_step = 0;
 80018ac:	4bb8      	ldr	r3, [pc, #736]	; (8001b90 <read_xbee+0x37c>)
 80018ae:	2200      	movs	r2, #0
 80018b0:	701a      	strb	r2, [r3, #0]
				  xbee_receive_state = frame_type;
 80018b2:	4bb3      	ldr	r3, [pc, #716]	; (8001b80 <read_xbee+0x36c>)
 80018b4:	2202      	movs	r2, #2
 80018b6:	701a      	strb	r2, [r3, #0]
			  }
			  else{
				  multiple_byte_step++;
			  }
		  break;
 80018b8:	e2d8      	b.n	8001e6c <read_xbee+0x658>
				  multiple_byte_step++;
 80018ba:	4bb5      	ldr	r3, [pc, #724]	; (8001b90 <read_xbee+0x37c>)
 80018bc:	781b      	ldrb	r3, [r3, #0]
 80018be:	3301      	adds	r3, #1
 80018c0:	b2da      	uxtb	r2, r3
 80018c2:	4bb3      	ldr	r3, [pc, #716]	; (8001b90 <read_xbee+0x37c>)
 80018c4:	701a      	strb	r2, [r3, #0]
		  break;
 80018c6:	e2d1      	b.n	8001e6c <read_xbee+0x658>

		  case frame_type:
			  received_frame.type = xbee_rx_buffer[xbee_rx_read_index];
 80018c8:	4baa      	ldr	r3, [pc, #680]	; (8001b74 <read_xbee+0x360>)
 80018ca:	781b      	ldrb	r3, [r3, #0]
 80018cc:	001a      	movs	r2, r3
 80018ce:	4bae      	ldr	r3, [pc, #696]	; (8001b88 <read_xbee+0x374>)
 80018d0:	5c9a      	ldrb	r2, [r3, r2]
 80018d2:	4bae      	ldr	r3, [pc, #696]	; (8001b8c <read_xbee+0x378>)
 80018d4:	709a      	strb	r2, [r3, #2]
			  switch(received_frame.type){
 80018d6:	4bad      	ldr	r3, [pc, #692]	; (8001b8c <read_xbee+0x378>)
 80018d8:	789b      	ldrb	r3, [r3, #2]
 80018da:	2b90      	cmp	r3, #144	; 0x90
 80018dc:	d002      	beq.n	80018e4 <read_xbee+0xd0>
 80018de:	2b97      	cmp	r3, #151	; 0x97
 80018e0:	d004      	beq.n	80018ec <read_xbee+0xd8>
 80018e2:	e007      	b.n	80018f4 <read_xbee+0xe0>
				  case receive_packet: xbee_receive_state = frame_address64; break;
 80018e4:	4ba6      	ldr	r3, [pc, #664]	; (8001b80 <read_xbee+0x36c>)
 80018e6:	2204      	movs	r2, #4
 80018e8:	701a      	strb	r2, [r3, #0]
 80018ea:	e00b      	b.n	8001904 <read_xbee+0xf0>
				  case remote_command_response: xbee_receive_state = frame_id; break;
 80018ec:	4ba4      	ldr	r3, [pc, #656]	; (8001b80 <read_xbee+0x36c>)
 80018ee:	2203      	movs	r2, #3
 80018f0:	701a      	strb	r2, [r3, #0]
 80018f2:	e007      	b.n	8001904 <read_xbee+0xf0>
				  case 0x8B:
				  default: xbee_rx_read_index = xbee_rx_write_index;
 80018f4:	4ba0      	ldr	r3, [pc, #640]	; (8001b78 <read_xbee+0x364>)
 80018f6:	781a      	ldrb	r2, [r3, #0]
 80018f8:	4b9e      	ldr	r3, [pc, #632]	; (8001b74 <read_xbee+0x360>)
 80018fa:	701a      	strb	r2, [r3, #0]
						   xbee_receive_state = idle;
 80018fc:	4ba0      	ldr	r3, [pc, #640]	; (8001b80 <read_xbee+0x36c>)
 80018fe:	2200      	movs	r2, #0
 8001900:	701a      	strb	r2, [r3, #0]
				  break;
 8001902:	46c0      	nop			; (mov r8, r8)
			  }

			  multiple_byte_step = 0;
 8001904:	4ba2      	ldr	r3, [pc, #648]	; (8001b90 <read_xbee+0x37c>)
 8001906:	2200      	movs	r2, #0
 8001908:	701a      	strb	r2, [r3, #0]
		  break;
 800190a:	e2af      	b.n	8001e6c <read_xbee+0x658>

		  case frame_id:
			  received_frame.id = xbee_rx_buffer[xbee_rx_read_index];
 800190c:	4b99      	ldr	r3, [pc, #612]	; (8001b74 <read_xbee+0x360>)
 800190e:	781b      	ldrb	r3, [r3, #0]
 8001910:	001a      	movs	r2, r3
 8001912:	4b9d      	ldr	r3, [pc, #628]	; (8001b88 <read_xbee+0x374>)
 8001914:	5c9a      	ldrb	r2, [r3, r2]
 8001916:	4b9d      	ldr	r3, [pc, #628]	; (8001b8c <read_xbee+0x378>)
 8001918:	70da      	strb	r2, [r3, #3]
			  xbee_receive_state = frame_address64;
 800191a:	4b99      	ldr	r3, [pc, #612]	; (8001b80 <read_xbee+0x36c>)
 800191c:	2204      	movs	r2, #4
 800191e:	701a      	strb	r2, [r3, #0]
		  break;
 8001920:	e2a4      	b.n	8001e6c <read_xbee+0x658>

		  case frame_address64:
			  received_frame.address64 += ((uint64_t)xbee_rx_buffer[xbee_rx_read_index]) << (56-8*multiple_byte_step);
 8001922:	4b9a      	ldr	r3, [pc, #616]	; (8001b8c <read_xbee+0x378>)
 8001924:	689a      	ldr	r2, [r3, #8]
 8001926:	68db      	ldr	r3, [r3, #12]
 8001928:	4992      	ldr	r1, [pc, #584]	; (8001b74 <read_xbee+0x360>)
 800192a:	7809      	ldrb	r1, [r1, #0]
 800192c:	0008      	movs	r0, r1
 800192e:	4996      	ldr	r1, [pc, #600]	; (8001b88 <read_xbee+0x374>)
 8001930:	5c09      	ldrb	r1, [r1, r0]
 8001932:	64b9      	str	r1, [r7, #72]	; 0x48
 8001934:	2100      	movs	r1, #0
 8001936:	64f9      	str	r1, [r7, #76]	; 0x4c
 8001938:	4995      	ldr	r1, [pc, #596]	; (8001b90 <read_xbee+0x37c>)
 800193a:	7809      	ldrb	r1, [r1, #0]
 800193c:	0008      	movs	r0, r1
 800193e:	2107      	movs	r1, #7
 8001940:	1a09      	subs	r1, r1, r0
 8001942:	00c9      	lsls	r1, r1, #3
 8001944:	0008      	movs	r0, r1
 8001946:	3820      	subs	r0, #32
 8001948:	2800      	cmp	r0, #0
 800194a:	db03      	blt.n	8001954 <read_xbee+0x140>
 800194c:	6cbe      	ldr	r6, [r7, #72]	; 0x48
 800194e:	4086      	lsls	r6, r0
 8001950:	0035      	movs	r5, r6
 8001952:	e008      	b.n	8001966 <read_xbee+0x152>
 8001954:	2020      	movs	r0, #32
 8001956:	1a40      	subs	r0, r0, r1
 8001958:	6cbe      	ldr	r6, [r7, #72]	; 0x48
 800195a:	40c6      	lsrs	r6, r0
 800195c:	0030      	movs	r0, r6
 800195e:	6cfe      	ldr	r6, [r7, #76]	; 0x4c
 8001960:	408e      	lsls	r6, r1
 8001962:	0035      	movs	r5, r6
 8001964:	4305      	orrs	r5, r0
 8001966:	6cb8      	ldr	r0, [r7, #72]	; 0x48
 8001968:	4088      	lsls	r0, r1
 800196a:	0004      	movs	r4, r0
 800196c:	1912      	adds	r2, r2, r4
 800196e:	416b      	adcs	r3, r5
 8001970:	4986      	ldr	r1, [pc, #536]	; (8001b8c <read_xbee+0x378>)
 8001972:	608a      	str	r2, [r1, #8]
 8001974:	60cb      	str	r3, [r1, #12]

			  if(multiple_byte_step == 7){
 8001976:	4b86      	ldr	r3, [pc, #536]	; (8001b90 <read_xbee+0x37c>)
 8001978:	781b      	ldrb	r3, [r3, #0]
 800197a:	2b07      	cmp	r3, #7
 800197c:	d106      	bne.n	800198c <read_xbee+0x178>
				  xbee_receive_state = frame_address16;
 800197e:	4b80      	ldr	r3, [pc, #512]	; (8001b80 <read_xbee+0x36c>)
 8001980:	2205      	movs	r2, #5
 8001982:	701a      	strb	r2, [r3, #0]
				  multiple_byte_step = 0;
 8001984:	4b82      	ldr	r3, [pc, #520]	; (8001b90 <read_xbee+0x37c>)
 8001986:	2200      	movs	r2, #0
 8001988:	701a      	strb	r2, [r3, #0]
			  }
			  else multiple_byte_step++;
		  break;
 800198a:	e26f      	b.n	8001e6c <read_xbee+0x658>
			  else multiple_byte_step++;
 800198c:	4b80      	ldr	r3, [pc, #512]	; (8001b90 <read_xbee+0x37c>)
 800198e:	781b      	ldrb	r3, [r3, #0]
 8001990:	3301      	adds	r3, #1
 8001992:	b2da      	uxtb	r2, r3
 8001994:	4b7e      	ldr	r3, [pc, #504]	; (8001b90 <read_xbee+0x37c>)
 8001996:	701a      	strb	r2, [r3, #0]
		  break;
 8001998:	e268      	b.n	8001e6c <read_xbee+0x658>

		  case frame_address16:
			  received_frame.address16 += ((uint16_t)xbee_rx_buffer[xbee_rx_read_index]) << (8-8*multiple_byte_step);
 800199a:	4b7c      	ldr	r3, [pc, #496]	; (8001b8c <read_xbee+0x378>)
 800199c:	8a1a      	ldrh	r2, [r3, #16]
 800199e:	4b75      	ldr	r3, [pc, #468]	; (8001b74 <read_xbee+0x360>)
 80019a0:	781b      	ldrb	r3, [r3, #0]
 80019a2:	0019      	movs	r1, r3
 80019a4:	4b78      	ldr	r3, [pc, #480]	; (8001b88 <read_xbee+0x374>)
 80019a6:	5c5b      	ldrb	r3, [r3, r1]
 80019a8:	0019      	movs	r1, r3
 80019aa:	4b79      	ldr	r3, [pc, #484]	; (8001b90 <read_xbee+0x37c>)
 80019ac:	781b      	ldrb	r3, [r3, #0]
 80019ae:	0018      	movs	r0, r3
 80019b0:	2301      	movs	r3, #1
 80019b2:	1a1b      	subs	r3, r3, r0
 80019b4:	00db      	lsls	r3, r3, #3
 80019b6:	4099      	lsls	r1, r3
 80019b8:	000b      	movs	r3, r1
 80019ba:	b29b      	uxth	r3, r3
 80019bc:	18d3      	adds	r3, r2, r3
 80019be:	b29a      	uxth	r2, r3
 80019c0:	4b72      	ldr	r3, [pc, #456]	; (8001b8c <read_xbee+0x378>)
 80019c2:	821a      	strh	r2, [r3, #16]
			  if(multiple_byte_step == 1){
 80019c4:	4b72      	ldr	r3, [pc, #456]	; (8001b90 <read_xbee+0x37c>)
 80019c6:	781b      	ldrb	r3, [r3, #0]
 80019c8:	2b01      	cmp	r3, #1
 80019ca:	d11a      	bne.n	8001a02 <read_xbee+0x1ee>
				  switch(received_frame.type){
 80019cc:	4b6f      	ldr	r3, [pc, #444]	; (8001b8c <read_xbee+0x378>)
 80019ce:	789b      	ldrb	r3, [r3, #2]
 80019d0:	2b90      	cmp	r3, #144	; 0x90
 80019d2:	d002      	beq.n	80019da <read_xbee+0x1c6>
 80019d4:	2b97      	cmp	r3, #151	; 0x97
 80019d6:	d004      	beq.n	80019e2 <read_xbee+0x1ce>
 80019d8:	e007      	b.n	80019ea <read_xbee+0x1d6>
					  case receive_packet: xbee_receive_state = frame_option; break;
 80019da:	4b69      	ldr	r3, [pc, #420]	; (8001b80 <read_xbee+0x36c>)
 80019dc:	2206      	movs	r2, #6
 80019de:	701a      	strb	r2, [r3, #0]
 80019e0:	e00b      	b.n	80019fa <read_xbee+0x1e6>
					  case remote_command_response: xbee_receive_state = frame_at_status; break;
 80019e2:	4b67      	ldr	r3, [pc, #412]	; (8001b80 <read_xbee+0x36c>)
 80019e4:	2207      	movs	r2, #7
 80019e6:	701a      	strb	r2, [r3, #0]
 80019e8:	e007      	b.n	80019fa <read_xbee+0x1e6>
					  default: xbee_rx_read_index = xbee_rx_write_index;
 80019ea:	4b63      	ldr	r3, [pc, #396]	; (8001b78 <read_xbee+0x364>)
 80019ec:	781a      	ldrb	r2, [r3, #0]
 80019ee:	4b61      	ldr	r3, [pc, #388]	; (8001b74 <read_xbee+0x360>)
 80019f0:	701a      	strb	r2, [r3, #0]
							   xbee_receive_state = idle;
 80019f2:	4b63      	ldr	r3, [pc, #396]	; (8001b80 <read_xbee+0x36c>)
 80019f4:	2200      	movs	r2, #0
 80019f6:	701a      	strb	r2, [r3, #0]
					  break;
 80019f8:	46c0      	nop			; (mov r8, r8)
				  }

				  multiple_byte_step = 0;
 80019fa:	4b65      	ldr	r3, [pc, #404]	; (8001b90 <read_xbee+0x37c>)
 80019fc:	2200      	movs	r2, #0
 80019fe:	701a      	strb	r2, [r3, #0]
			  }
			  else multiple_byte_step++;
		  break;
 8001a00:	e234      	b.n	8001e6c <read_xbee+0x658>
			  else multiple_byte_step++;
 8001a02:	4b63      	ldr	r3, [pc, #396]	; (8001b90 <read_xbee+0x37c>)
 8001a04:	781b      	ldrb	r3, [r3, #0]
 8001a06:	3301      	adds	r3, #1
 8001a08:	b2da      	uxtb	r2, r3
 8001a0a:	4b61      	ldr	r3, [pc, #388]	; (8001b90 <read_xbee+0x37c>)
 8001a0c:	701a      	strb	r2, [r3, #0]
		  break;
 8001a0e:	e22d      	b.n	8001e6c <read_xbee+0x658>

		  case frame_option:
			  received_frame.option = xbee_rx_buffer[xbee_rx_read_index];
 8001a10:	4b58      	ldr	r3, [pc, #352]	; (8001b74 <read_xbee+0x360>)
 8001a12:	781b      	ldrb	r3, [r3, #0]
 8001a14:	001a      	movs	r2, r3
 8001a16:	4b5c      	ldr	r3, [pc, #368]	; (8001b88 <read_xbee+0x374>)
 8001a18:	5c9a      	ldrb	r2, [r3, r2]
 8001a1a:	4b5c      	ldr	r3, [pc, #368]	; (8001b8c <read_xbee+0x378>)
 8001a1c:	749a      	strb	r2, [r3, #18]
			  xbee_receive_state = frame_content;
 8001a1e:	4b58      	ldr	r3, [pc, #352]	; (8001b80 <read_xbee+0x36c>)
 8001a20:	2208      	movs	r2, #8
 8001a22:	701a      	strb	r2, [r3, #0]
		  break;
 8001a24:	e222      	b.n	8001e6c <read_xbee+0x658>

		  case frame_at_status:
			  received_frame.command_status[multiple_byte_step] = xbee_rx_buffer[xbee_rx_read_index];
 8001a26:	4b53      	ldr	r3, [pc, #332]	; (8001b74 <read_xbee+0x360>)
 8001a28:	781b      	ldrb	r3, [r3, #0]
 8001a2a:	001a      	movs	r2, r3
 8001a2c:	4b58      	ldr	r3, [pc, #352]	; (8001b90 <read_xbee+0x37c>)
 8001a2e:	781b      	ldrb	r3, [r3, #0]
 8001a30:	0018      	movs	r0, r3
 8001a32:	4b55      	ldr	r3, [pc, #340]	; (8001b88 <read_xbee+0x374>)
 8001a34:	5c99      	ldrb	r1, [r3, r2]
 8001a36:	4a55      	ldr	r2, [pc, #340]	; (8001b8c <read_xbee+0x378>)
 8001a38:	238a      	movs	r3, #138	; 0x8a
 8001a3a:	005b      	lsls	r3, r3, #1
 8001a3c:	1812      	adds	r2, r2, r0
 8001a3e:	18d3      	adds	r3, r2, r3
 8001a40:	1c0a      	adds	r2, r1, #0
 8001a42:	701a      	strb	r2, [r3, #0]
			  if(multiple_byte_step == 2){
 8001a44:	4b52      	ldr	r3, [pc, #328]	; (8001b90 <read_xbee+0x37c>)
 8001a46:	781b      	ldrb	r3, [r3, #0]
 8001a48:	2b02      	cmp	r3, #2
 8001a4a:	d106      	bne.n	8001a5a <read_xbee+0x246>
				  multiple_byte_step = 0;
 8001a4c:	4b50      	ldr	r3, [pc, #320]	; (8001b90 <read_xbee+0x37c>)
 8001a4e:	2200      	movs	r2, #0
 8001a50:	701a      	strb	r2, [r3, #0]
				  xbee_receive_state = frame_content;
 8001a52:	4b4b      	ldr	r3, [pc, #300]	; (8001b80 <read_xbee+0x36c>)
 8001a54:	2208      	movs	r2, #8
 8001a56:	701a      	strb	r2, [r3, #0]
			  }
			  else multiple_byte_step++;
		  break;
 8001a58:	e208      	b.n	8001e6c <read_xbee+0x658>
			  else multiple_byte_step++;
 8001a5a:	4b4d      	ldr	r3, [pc, #308]	; (8001b90 <read_xbee+0x37c>)
 8001a5c:	781b      	ldrb	r3, [r3, #0]
 8001a5e:	3301      	adds	r3, #1
 8001a60:	b2da      	uxtb	r2, r3
 8001a62:	4b4b      	ldr	r3, [pc, #300]	; (8001b90 <read_xbee+0x37c>)
 8001a64:	701a      	strb	r2, [r3, #0]
		  break;
 8001a66:	e201      	b.n	8001e6c <read_xbee+0x658>

		  case frame_content:
			  received_frame.content[received_frame.content_index] = xbee_rx_buffer[xbee_rx_read_index];
 8001a68:	4b42      	ldr	r3, [pc, #264]	; (8001b74 <read_xbee+0x360>)
 8001a6a:	781b      	ldrb	r3, [r3, #0]
 8001a6c:	0018      	movs	r0, r3
 8001a6e:	4a47      	ldr	r2, [pc, #284]	; (8001b8c <read_xbee+0x378>)
 8001a70:	2314      	movs	r3, #20
 8001a72:	33ff      	adds	r3, #255	; 0xff
 8001a74:	5cd3      	ldrb	r3, [r2, r3]
 8001a76:	0019      	movs	r1, r3
 8001a78:	4b43      	ldr	r3, [pc, #268]	; (8001b88 <read_xbee+0x374>)
 8001a7a:	5c1a      	ldrb	r2, [r3, r0]
 8001a7c:	4b43      	ldr	r3, [pc, #268]	; (8001b8c <read_xbee+0x378>)
 8001a7e:	185b      	adds	r3, r3, r1
 8001a80:	74da      	strb	r2, [r3, #19]
			  if(((received_frame.content_index == received_frame.length-13) && received_frame.type==receive_packet) || ((received_frame.content_index == received_frame.length-16) && (received_frame.type==remote_command_response)))
 8001a82:	4a42      	ldr	r2, [pc, #264]	; (8001b8c <read_xbee+0x378>)
 8001a84:	2314      	movs	r3, #20
 8001a86:	33ff      	adds	r3, #255	; 0xff
 8001a88:	5cd3      	ldrb	r3, [r2, r3]
 8001a8a:	001a      	movs	r2, r3
 8001a8c:	4b3f      	ldr	r3, [pc, #252]	; (8001b8c <read_xbee+0x378>)
 8001a8e:	881b      	ldrh	r3, [r3, #0]
 8001a90:	3b0d      	subs	r3, #13
 8001a92:	429a      	cmp	r2, r3
 8001a94:	d103      	bne.n	8001a9e <read_xbee+0x28a>
 8001a96:	4b3d      	ldr	r3, [pc, #244]	; (8001b8c <read_xbee+0x378>)
 8001a98:	789b      	ldrb	r3, [r3, #2]
 8001a9a:	2b90      	cmp	r3, #144	; 0x90
 8001a9c:	d00d      	beq.n	8001aba <read_xbee+0x2a6>
 8001a9e:	4a3b      	ldr	r2, [pc, #236]	; (8001b8c <read_xbee+0x378>)
 8001aa0:	2314      	movs	r3, #20
 8001aa2:	33ff      	adds	r3, #255	; 0xff
 8001aa4:	5cd3      	ldrb	r3, [r2, r3]
 8001aa6:	001a      	movs	r2, r3
 8001aa8:	4b38      	ldr	r3, [pc, #224]	; (8001b8c <read_xbee+0x378>)
 8001aaa:	881b      	ldrh	r3, [r3, #0]
 8001aac:	3b10      	subs	r3, #16
 8001aae:	429a      	cmp	r2, r3
 8001ab0:	d107      	bne.n	8001ac2 <read_xbee+0x2ae>
 8001ab2:	4b36      	ldr	r3, [pc, #216]	; (8001b8c <read_xbee+0x378>)
 8001ab4:	789b      	ldrb	r3, [r3, #2]
 8001ab6:	2b97      	cmp	r3, #151	; 0x97
 8001ab8:	d103      	bne.n	8001ac2 <read_xbee+0x2ae>
				  xbee_receive_state = check_sum;
 8001aba:	4b31      	ldr	r3, [pc, #196]	; (8001b80 <read_xbee+0x36c>)
 8001abc:	2209      	movs	r2, #9
 8001abe:	701a      	strb	r2, [r3, #0]
			  else
				  received_frame.content_index++;
		  break;
 8001ac0:	e1d4      	b.n	8001e6c <read_xbee+0x658>
				  received_frame.content_index++;
 8001ac2:	4a32      	ldr	r2, [pc, #200]	; (8001b8c <read_xbee+0x378>)
 8001ac4:	2314      	movs	r3, #20
 8001ac6:	33ff      	adds	r3, #255	; 0xff
 8001ac8:	5cd3      	ldrb	r3, [r2, r3]
 8001aca:	3301      	adds	r3, #1
 8001acc:	b2d9      	uxtb	r1, r3
 8001ace:	4a2f      	ldr	r2, [pc, #188]	; (8001b8c <read_xbee+0x378>)
 8001ad0:	2314      	movs	r3, #20
 8001ad2:	33ff      	adds	r3, #255	; 0xff
 8001ad4:	54d1      	strb	r1, [r2, r3]
		  break;
 8001ad6:	e1c9      	b.n	8001e6c <read_xbee+0x658>

		  case check_sum:
			  received_frame.check_sum = xbee_rx_buffer[xbee_rx_read_index];
 8001ad8:	4b26      	ldr	r3, [pc, #152]	; (8001b74 <read_xbee+0x360>)
 8001ada:	781b      	ldrb	r3, [r3, #0]
 8001adc:	001a      	movs	r2, r3
 8001ade:	4b2a      	ldr	r3, [pc, #168]	; (8001b88 <read_xbee+0x374>)
 8001ae0:	5c98      	ldrb	r0, [r3, r2]
 8001ae2:	492a      	ldr	r1, [pc, #168]	; (8001b8c <read_xbee+0x378>)
 8001ae4:	238c      	movs	r3, #140	; 0x8c
 8001ae6:	005a      	lsls	r2, r3, #1
 8001ae8:	1c03      	adds	r3, r0, #0
 8001aea:	548b      	strb	r3, [r1, r2]
			  for(uint8_t i=0; i<8; i++) sum += (((uint64_t)0xFF<<(56-8*i)) & received_frame.address64)>>(56-8*i);
 8001aec:	2317      	movs	r3, #23
 8001aee:	2250      	movs	r2, #80	; 0x50
 8001af0:	18ba      	adds	r2, r7, r2
 8001af2:	18d2      	adds	r2, r2, r3
 8001af4:	2300      	movs	r3, #0
 8001af6:	7013      	strb	r3, [r2, #0]
 8001af8:	e06f      	b.n	8001bda <read_xbee+0x3c6>
 8001afa:	2317      	movs	r3, #23
 8001afc:	2250      	movs	r2, #80	; 0x50
 8001afe:	4694      	mov	ip, r2
 8001b00:	44bc      	add	ip, r7
 8001b02:	4463      	add	r3, ip
 8001b04:	781a      	ldrb	r2, [r3, #0]
 8001b06:	2307      	movs	r3, #7
 8001b08:	1a9b      	subs	r3, r3, r2
 8001b0a:	00d9      	lsls	r1, r3, #3
 8001b0c:	000a      	movs	r2, r1
 8001b0e:	3a20      	subs	r2, #32
 8001b10:	2a00      	cmp	r2, #0
 8001b12:	db03      	blt.n	8001b1c <read_xbee+0x308>
 8001b14:	23ff      	movs	r3, #255	; 0xff
 8001b16:	4093      	lsls	r3, r2
 8001b18:	647b      	str	r3, [r7, #68]	; 0x44
 8001b1a:	e00a      	b.n	8001b32 <read_xbee+0x31e>
 8001b1c:	2320      	movs	r3, #32
 8001b1e:	1a5a      	subs	r2, r3, r1
 8001b20:	23ff      	movs	r3, #255	; 0xff
 8001b22:	40d3      	lsrs	r3, r2
 8001b24:	001a      	movs	r2, r3
 8001b26:	2300      	movs	r3, #0
 8001b28:	408b      	lsls	r3, r1
 8001b2a:	647b      	str	r3, [r7, #68]	; 0x44
 8001b2c:	6c7b      	ldr	r3, [r7, #68]	; 0x44
 8001b2e:	4313      	orrs	r3, r2
 8001b30:	647b      	str	r3, [r7, #68]	; 0x44
 8001b32:	23ff      	movs	r3, #255	; 0xff
 8001b34:	408b      	lsls	r3, r1
 8001b36:	643b      	str	r3, [r7, #64]	; 0x40
 8001b38:	4b14      	ldr	r3, [pc, #80]	; (8001b8c <read_xbee+0x378>)
 8001b3a:	689a      	ldr	r2, [r3, #8]
 8001b3c:	68db      	ldr	r3, [r3, #12]
 8001b3e:	0011      	movs	r1, r2
 8001b40:	6c3c      	ldr	r4, [r7, #64]	; 0x40
 8001b42:	6c7d      	ldr	r5, [r7, #68]	; 0x44
 8001b44:	0020      	movs	r0, r4
 8001b46:	4008      	ands	r0, r1
 8001b48:	6338      	str	r0, [r7, #48]	; 0x30
 8001b4a:	002a      	movs	r2, r5
 8001b4c:	401a      	ands	r2, r3
 8001b4e:	637a      	str	r2, [r7, #52]	; 0x34
 8001b50:	2317      	movs	r3, #23
 8001b52:	2250      	movs	r2, #80	; 0x50
 8001b54:	4694      	mov	ip, r2
 8001b56:	44bc      	add	ip, r7
 8001b58:	4463      	add	r3, ip
 8001b5a:	781a      	ldrb	r2, [r3, #0]
 8001b5c:	2307      	movs	r3, #7
 8001b5e:	1a9b      	subs	r3, r3, r2
 8001b60:	00da      	lsls	r2, r3, #3
 8001b62:	0013      	movs	r3, r2
 8001b64:	3b20      	subs	r3, #32
 8001b66:	2b00      	cmp	r3, #0
 8001b68:	db14      	blt.n	8001b94 <read_xbee+0x380>
 8001b6a:	6b79      	ldr	r1, [r7, #52]	; 0x34
 8001b6c:	40d9      	lsrs	r1, r3
 8001b6e:	63b9      	str	r1, [r7, #56]	; 0x38
 8001b70:	e01d      	b.n	8001bae <read_xbee+0x39a>
 8001b72:	46c0      	nop			; (mov r8, r8)
 8001b74:	20000424 	.word	0x20000424
 8001b78:	20000425 	.word	0x20000425
 8001b7c:	2000030c 	.word	0x2000030c
 8001b80:	200005c6 	.word	0x200005c6
 8001b84:	08006bcc 	.word	0x08006bcc
 8001b88:	20000324 	.word	0x20000324
 8001b8c:	20000438 	.word	0x20000438
 8001b90:	20000558 	.word	0x20000558
 8001b94:	2320      	movs	r3, #32
 8001b96:	1a9b      	subs	r3, r3, r2
 8001b98:	6b38      	ldr	r0, [r7, #48]	; 0x30
 8001b9a:	6b79      	ldr	r1, [r7, #52]	; 0x34
 8001b9c:	000c      	movs	r4, r1
 8001b9e:	409c      	lsls	r4, r3
 8001ba0:	0023      	movs	r3, r4
 8001ba2:	0001      	movs	r1, r0
 8001ba4:	40d1      	lsrs	r1, r2
 8001ba6:	63b9      	str	r1, [r7, #56]	; 0x38
 8001ba8:	6bb9      	ldr	r1, [r7, #56]	; 0x38
 8001baa:	4319      	orrs	r1, r3
 8001bac:	63b9      	str	r1, [r7, #56]	; 0x38
 8001bae:	6b7b      	ldr	r3, [r7, #52]	; 0x34
 8001bb0:	40d3      	lsrs	r3, r2
 8001bb2:	63fb      	str	r3, [r7, #60]	; 0x3c
 8001bb4:	6eba      	ldr	r2, [r7, #104]	; 0x68
 8001bb6:	6efb      	ldr	r3, [r7, #108]	; 0x6c
 8001bb8:	6bb8      	ldr	r0, [r7, #56]	; 0x38
 8001bba:	6bf9      	ldr	r1, [r7, #60]	; 0x3c
 8001bbc:	1812      	adds	r2, r2, r0
 8001bbe:	414b      	adcs	r3, r1
 8001bc0:	66ba      	str	r2, [r7, #104]	; 0x68
 8001bc2:	66fb      	str	r3, [r7, #108]	; 0x6c
 8001bc4:	2217      	movs	r2, #23
 8001bc6:	2350      	movs	r3, #80	; 0x50
 8001bc8:	18fb      	adds	r3, r7, r3
 8001bca:	189b      	adds	r3, r3, r2
 8001bcc:	781b      	ldrb	r3, [r3, #0]
 8001bce:	2150      	movs	r1, #80	; 0x50
 8001bd0:	468c      	mov	ip, r1
 8001bd2:	44bc      	add	ip, r7
 8001bd4:	4462      	add	r2, ip
 8001bd6:	3301      	adds	r3, #1
 8001bd8:	7013      	strb	r3, [r2, #0]
 8001bda:	2317      	movs	r3, #23
 8001bdc:	2250      	movs	r2, #80	; 0x50
 8001bde:	4694      	mov	ip, r2
 8001be0:	44bc      	add	ip, r7
 8001be2:	4463      	add	r3, ip
 8001be4:	781b      	ldrb	r3, [r3, #0]
 8001be6:	2b07      	cmp	r3, #7
 8001be8:	d800      	bhi.n	8001bec <read_xbee+0x3d8>
 8001bea:	e786      	b.n	8001afa <read_xbee+0x2e6>
			  for(uint8_t i=0; i<2; i++) sum += (((uint16_t)0xFF<<(8-8*i)) & received_frame.address16)>>(8-i*8);
 8001bec:	2316      	movs	r3, #22
 8001bee:	2250      	movs	r2, #80	; 0x50
 8001bf0:	18ba      	adds	r2, r7, r2
 8001bf2:	18d2      	adds	r2, r2, r3
 8001bf4:	2300      	movs	r3, #0
 8001bf6:	7013      	strb	r3, [r2, #0]
 8001bf8:	e029      	b.n	8001c4e <read_xbee+0x43a>
 8001bfa:	2016      	movs	r0, #22
 8001bfc:	2550      	movs	r5, #80	; 0x50
 8001bfe:	197b      	adds	r3, r7, r5
 8001c00:	181b      	adds	r3, r3, r0
 8001c02:	781a      	ldrb	r2, [r3, #0]
 8001c04:	2301      	movs	r3, #1
 8001c06:	1a9b      	subs	r3, r3, r2
 8001c08:	00da      	lsls	r2, r3, #3
 8001c0a:	23ff      	movs	r3, #255	; 0xff
 8001c0c:	4093      	lsls	r3, r2
 8001c0e:	001a      	movs	r2, r3
 8001c10:	4b9b      	ldr	r3, [pc, #620]	; (8001e80 <read_xbee+0x66c>)
 8001c12:	8a1b      	ldrh	r3, [r3, #16]
 8001c14:	4013      	ands	r3, r2
 8001c16:	0019      	movs	r1, r3
 8001c18:	0004      	movs	r4, r0
 8001c1a:	197b      	adds	r3, r7, r5
 8001c1c:	181b      	adds	r3, r3, r0
 8001c1e:	781a      	ldrb	r2, [r3, #0]
 8001c20:	2301      	movs	r3, #1
 8001c22:	1a9b      	subs	r3, r3, r2
 8001c24:	00db      	lsls	r3, r3, #3
 8001c26:	4119      	asrs	r1, r3
 8001c28:	000b      	movs	r3, r1
 8001c2a:	62bb      	str	r3, [r7, #40]	; 0x28
 8001c2c:	17db      	asrs	r3, r3, #31
 8001c2e:	62fb      	str	r3, [r7, #44]	; 0x2c
 8001c30:	6eba      	ldr	r2, [r7, #104]	; 0x68
 8001c32:	6efb      	ldr	r3, [r7, #108]	; 0x6c
 8001c34:	6ab8      	ldr	r0, [r7, #40]	; 0x28
 8001c36:	6af9      	ldr	r1, [r7, #44]	; 0x2c
 8001c38:	1812      	adds	r2, r2, r0
 8001c3a:	414b      	adcs	r3, r1
 8001c3c:	66ba      	str	r2, [r7, #104]	; 0x68
 8001c3e:	66fb      	str	r3, [r7, #108]	; 0x6c
 8001c40:	197b      	adds	r3, r7, r5
 8001c42:	191b      	adds	r3, r3, r4
 8001c44:	781b      	ldrb	r3, [r3, #0]
 8001c46:	197a      	adds	r2, r7, r5
 8001c48:	1912      	adds	r2, r2, r4
 8001c4a:	3301      	adds	r3, #1
 8001c4c:	7013      	strb	r3, [r2, #0]
 8001c4e:	2316      	movs	r3, #22
 8001c50:	2250      	movs	r2, #80	; 0x50
 8001c52:	4694      	mov	ip, r2
 8001c54:	44bc      	add	ip, r7
 8001c56:	4463      	add	r3, ip
 8001c58:	781b      	ldrb	r3, [r3, #0]
 8001c5a:	2b01      	cmp	r3, #1
 8001c5c:	d9cd      	bls.n	8001bfa <read_xbee+0x3e6>
			  if(received_frame.id==receive_packet) for(uint16_t i=0; i<received_frame.length-12; i++) sum += received_frame.content[i];
 8001c5e:	4b88      	ldr	r3, [pc, #544]	; (8001e80 <read_xbee+0x66c>)
 8001c60:	78db      	ldrb	r3, [r3, #3]
 8001c62:	2b90      	cmp	r3, #144	; 0x90
 8001c64:	d12d      	bne.n	8001cc2 <read_xbee+0x4ae>
 8001c66:	2314      	movs	r3, #20
 8001c68:	2250      	movs	r2, #80	; 0x50
 8001c6a:	4694      	mov	ip, r2
 8001c6c:	44bc      	add	ip, r7
 8001c6e:	4463      	add	r3, ip
 8001c70:	2200      	movs	r2, #0
 8001c72:	801a      	strh	r2, [r3, #0]
 8001c74:	e019      	b.n	8001caa <read_xbee+0x496>
 8001c76:	2414      	movs	r4, #20
 8001c78:	2550      	movs	r5, #80	; 0x50
 8001c7a:	197b      	adds	r3, r7, r5
 8001c7c:	191b      	adds	r3, r3, r4
 8001c7e:	881b      	ldrh	r3, [r3, #0]
 8001c80:	4a7f      	ldr	r2, [pc, #508]	; (8001e80 <read_xbee+0x66c>)
 8001c82:	18d3      	adds	r3, r2, r3
 8001c84:	7cdb      	ldrb	r3, [r3, #19]
 8001c86:	623b      	str	r3, [r7, #32]
 8001c88:	2300      	movs	r3, #0
 8001c8a:	627b      	str	r3, [r7, #36]	; 0x24
 8001c8c:	6eba      	ldr	r2, [r7, #104]	; 0x68
 8001c8e:	6efb      	ldr	r3, [r7, #108]	; 0x6c
 8001c90:	6a38      	ldr	r0, [r7, #32]
 8001c92:	6a79      	ldr	r1, [r7, #36]	; 0x24
 8001c94:	1812      	adds	r2, r2, r0
 8001c96:	414b      	adcs	r3, r1
 8001c98:	66ba      	str	r2, [r7, #104]	; 0x68
 8001c9a:	66fb      	str	r3, [r7, #108]	; 0x6c
 8001c9c:	197b      	adds	r3, r7, r5
 8001c9e:	191b      	adds	r3, r3, r4
 8001ca0:	881a      	ldrh	r2, [r3, #0]
 8001ca2:	197b      	adds	r3, r7, r5
 8001ca4:	191b      	adds	r3, r3, r4
 8001ca6:	3201      	adds	r2, #1
 8001ca8:	801a      	strh	r2, [r3, #0]
 8001caa:	2314      	movs	r3, #20
 8001cac:	2250      	movs	r2, #80	; 0x50
 8001cae:	4694      	mov	ip, r2
 8001cb0:	44bc      	add	ip, r7
 8001cb2:	4463      	add	r3, ip
 8001cb4:	881a      	ldrh	r2, [r3, #0]
 8001cb6:	4b72      	ldr	r3, [pc, #456]	; (8001e80 <read_xbee+0x66c>)
 8001cb8:	881b      	ldrh	r3, [r3, #0]
 8001cba:	3b0c      	subs	r3, #12
 8001cbc:	429a      	cmp	r2, r3
 8001cbe:	dbda      	blt.n	8001c76 <read_xbee+0x462>
 8001cc0:	e05d      	b.n	8001d7e <read_xbee+0x56a>
			  else if(received_frame.type==remote_command_response){
 8001cc2:	4b6f      	ldr	r3, [pc, #444]	; (8001e80 <read_xbee+0x66c>)
 8001cc4:	789b      	ldrb	r3, [r3, #2]
 8001cc6:	2b97      	cmp	r3, #151	; 0x97
 8001cc8:	d159      	bne.n	8001d7e <read_xbee+0x56a>
				  for(uint16_t i=0; i<received_frame.length-15; i++) sum += received_frame.content[i];
 8001cca:	2312      	movs	r3, #18
 8001ccc:	2250      	movs	r2, #80	; 0x50
 8001cce:	4694      	mov	ip, r2
 8001cd0:	44bc      	add	ip, r7
 8001cd2:	4463      	add	r3, ip
 8001cd4:	2200      	movs	r2, #0
 8001cd6:	801a      	strh	r2, [r3, #0]
 8001cd8:	e019      	b.n	8001d0e <read_xbee+0x4fa>
 8001cda:	2412      	movs	r4, #18
 8001cdc:	2550      	movs	r5, #80	; 0x50
 8001cde:	197b      	adds	r3, r7, r5
 8001ce0:	191b      	adds	r3, r3, r4
 8001ce2:	881b      	ldrh	r3, [r3, #0]
 8001ce4:	4a66      	ldr	r2, [pc, #408]	; (8001e80 <read_xbee+0x66c>)
 8001ce6:	18d3      	adds	r3, r2, r3
 8001ce8:	7cdb      	ldrb	r3, [r3, #19]
 8001cea:	61bb      	str	r3, [r7, #24]
 8001cec:	2300      	movs	r3, #0
 8001cee:	61fb      	str	r3, [r7, #28]
 8001cf0:	6eba      	ldr	r2, [r7, #104]	; 0x68
 8001cf2:	6efb      	ldr	r3, [r7, #108]	; 0x6c
 8001cf4:	69b8      	ldr	r0, [r7, #24]
 8001cf6:	69f9      	ldr	r1, [r7, #28]
 8001cf8:	1812      	adds	r2, r2, r0
 8001cfa:	414b      	adcs	r3, r1
 8001cfc:	66ba      	str	r2, [r7, #104]	; 0x68
 8001cfe:	66fb      	str	r3, [r7, #108]	; 0x6c
 8001d00:	197b      	adds	r3, r7, r5
 8001d02:	191b      	adds	r3, r3, r4
 8001d04:	881a      	ldrh	r2, [r3, #0]
 8001d06:	197b      	adds	r3, r7, r5
 8001d08:	191b      	adds	r3, r3, r4
 8001d0a:	3201      	adds	r2, #1
 8001d0c:	801a      	strh	r2, [r3, #0]
 8001d0e:	2312      	movs	r3, #18
 8001d10:	2250      	movs	r2, #80	; 0x50
 8001d12:	4694      	mov	ip, r2
 8001d14:	44bc      	add	ip, r7
 8001d16:	4463      	add	r3, ip
 8001d18:	881a      	ldrh	r2, [r3, #0]
 8001d1a:	4b59      	ldr	r3, [pc, #356]	; (8001e80 <read_xbee+0x66c>)
 8001d1c:	881b      	ldrh	r3, [r3, #0]
 8001d1e:	3b0f      	subs	r3, #15
 8001d20:	429a      	cmp	r2, r3
 8001d22:	dbda      	blt.n	8001cda <read_xbee+0x4c6>
				  for(uint8_t i=0; i<4; i++) sum += received_frame.command_status[i];
 8001d24:	2311      	movs	r3, #17
 8001d26:	2250      	movs	r2, #80	; 0x50
 8001d28:	4694      	mov	ip, r2
 8001d2a:	44bc      	add	ip, r7
 8001d2c:	4463      	add	r3, ip
 8001d2e:	2200      	movs	r2, #0
 8001d30:	701a      	strb	r2, [r3, #0]
 8001d32:	e01c      	b.n	8001d6e <read_xbee+0x55a>
 8001d34:	2411      	movs	r4, #17
 8001d36:	2550      	movs	r5, #80	; 0x50
 8001d38:	197b      	adds	r3, r7, r5
 8001d3a:	191b      	adds	r3, r3, r4
 8001d3c:	781a      	ldrb	r2, [r3, #0]
 8001d3e:	4950      	ldr	r1, [pc, #320]	; (8001e80 <read_xbee+0x66c>)
 8001d40:	238a      	movs	r3, #138	; 0x8a
 8001d42:	005b      	lsls	r3, r3, #1
 8001d44:	188a      	adds	r2, r1, r2
 8001d46:	18d3      	adds	r3, r2, r3
 8001d48:	781b      	ldrb	r3, [r3, #0]
 8001d4a:	613b      	str	r3, [r7, #16]
 8001d4c:	2300      	movs	r3, #0
 8001d4e:	617b      	str	r3, [r7, #20]
 8001d50:	6eba      	ldr	r2, [r7, #104]	; 0x68
 8001d52:	6efb      	ldr	r3, [r7, #108]	; 0x6c
 8001d54:	6938      	ldr	r0, [r7, #16]
 8001d56:	6979      	ldr	r1, [r7, #20]
 8001d58:	1812      	adds	r2, r2, r0
 8001d5a:	414b      	adcs	r3, r1
 8001d5c:	66ba      	str	r2, [r7, #104]	; 0x68
 8001d5e:	66fb      	str	r3, [r7, #108]	; 0x6c
 8001d60:	197b      	adds	r3, r7, r5
 8001d62:	191b      	adds	r3, r3, r4
 8001d64:	781a      	ldrb	r2, [r3, #0]
 8001d66:	197b      	adds	r3, r7, r5
 8001d68:	191b      	adds	r3, r3, r4
 8001d6a:	3201      	adds	r2, #1
 8001d6c:	701a      	strb	r2, [r3, #0]
 8001d6e:	2311      	movs	r3, #17
 8001d70:	2250      	movs	r2, #80	; 0x50
 8001d72:	4694      	mov	ip, r2
 8001d74:	44bc      	add	ip, r7
 8001d76:	4463      	add	r3, ip
 8001d78:	781b      	ldrb	r3, [r3, #0]
 8001d7a:	2b03      	cmp	r3, #3
 8001d7c:	d9da      	bls.n	8001d34 <read_xbee+0x520>
			  }
			  sum += received_frame.type + received_frame.option + received_frame.id + received_frame.check_sum;
 8001d7e:	4b40      	ldr	r3, [pc, #256]	; (8001e80 <read_xbee+0x66c>)
 8001d80:	789b      	ldrb	r3, [r3, #2]
 8001d82:	001a      	movs	r2, r3
 8001d84:	4b3e      	ldr	r3, [pc, #248]	; (8001e80 <read_xbee+0x66c>)
 8001d86:	7c9b      	ldrb	r3, [r3, #18]
 8001d88:	18d3      	adds	r3, r2, r3
 8001d8a:	4a3d      	ldr	r2, [pc, #244]	; (8001e80 <read_xbee+0x66c>)
 8001d8c:	78d2      	ldrb	r2, [r2, #3]
 8001d8e:	189b      	adds	r3, r3, r2
 8001d90:	493b      	ldr	r1, [pc, #236]	; (8001e80 <read_xbee+0x66c>)
 8001d92:	228c      	movs	r2, #140	; 0x8c
 8001d94:	0052      	lsls	r2, r2, #1
 8001d96:	5c8a      	ldrb	r2, [r1, r2]
 8001d98:	189b      	adds	r3, r3, r2
 8001d9a:	60bb      	str	r3, [r7, #8]
 8001d9c:	17db      	asrs	r3, r3, #31
 8001d9e:	60fb      	str	r3, [r7, #12]
 8001da0:	6eba      	ldr	r2, [r7, #104]	; 0x68
 8001da2:	6efb      	ldr	r3, [r7, #108]	; 0x6c
 8001da4:	68b8      	ldr	r0, [r7, #8]
 8001da6:	68f9      	ldr	r1, [r7, #12]
 8001da8:	1812      	adds	r2, r2, r0
 8001daa:	414b      	adcs	r3, r1
 8001dac:	66ba      	str	r2, [r7, #104]	; 0x68
 8001dae:	66fb      	str	r3, [r7, #108]	; 0x6c
			  received_frame.check_sum_ok = (sum & 0xFF) == 0xFF;
 8001db0:	6ebb      	ldr	r3, [r7, #104]	; 0x68
 8001db2:	22ff      	movs	r2, #255	; 0xff
 8001db4:	4013      	ands	r3, r2
 8001db6:	603b      	str	r3, [r7, #0]
 8001db8:	6efb      	ldr	r3, [r7, #108]	; 0x6c
 8001dba:	2200      	movs	r2, #0
 8001dbc:	4013      	ands	r3, r2
 8001dbe:	607b      	str	r3, [r7, #4]
 8001dc0:	2301      	movs	r3, #1
 8001dc2:	6839      	ldr	r1, [r7, #0]
 8001dc4:	687a      	ldr	r2, [r7, #4]
 8001dc6:	0008      	movs	r0, r1
 8001dc8:	28ff      	cmp	r0, #255	; 0xff
 8001dca:	d101      	bne.n	8001dd0 <read_xbee+0x5bc>
 8001dcc:	2a00      	cmp	r2, #0
 8001dce:	d000      	beq.n	8001dd2 <read_xbee+0x5be>
 8001dd0:	2300      	movs	r3, #0
 8001dd2:	b2db      	uxtb	r3, r3
 8001dd4:	0019      	movs	r1, r3
 8001dd6:	4a2a      	ldr	r2, [pc, #168]	; (8001e80 <read_xbee+0x66c>)
 8001dd8:	231a      	movs	r3, #26
 8001dda:	33ff      	adds	r3, #255	; 0xff
 8001ddc:	54d1      	strb	r1, [r2, r3]
			  xbee_receive_state = process_content;
 8001dde:	4b29      	ldr	r3, [pc, #164]	; (8001e84 <read_xbee+0x670>)
 8001de0:	220a      	movs	r2, #10
 8001de2:	701a      	strb	r2, [r3, #0]
			  xbee_rx_read_index--;
 8001de4:	4b28      	ldr	r3, [pc, #160]	; (8001e88 <read_xbee+0x674>)
 8001de6:	781b      	ldrb	r3, [r3, #0]
 8001de8:	3b01      	subs	r3, #1
 8001dea:	b2da      	uxtb	r2, r3
 8001dec:	4b26      	ldr	r3, [pc, #152]	; (8001e88 <read_xbee+0x674>)
 8001dee:	701a      	strb	r2, [r3, #0]
		  break;
 8001df0:	e03c      	b.n	8001e6c <read_xbee+0x658>

		  case process_content:
			  switch(received_frame.content[0]){
 8001df2:	4b23      	ldr	r3, [pc, #140]	; (8001e80 <read_xbee+0x66c>)
 8001df4:	7cdb      	ldrb	r3, [r3, #19]
 8001df6:	2b53      	cmp	r3, #83	; 0x53
 8001df8:	d006      	beq.n	8001e08 <read_xbee+0x5f4>
 8001dfa:	dc1e      	bgt.n	8001e3a <read_xbee+0x626>
 8001dfc:	2b45      	cmp	r3, #69	; 0x45
 8001dfe:	d119      	bne.n	8001e34 <read_xbee+0x620>
			  	  case 'E': //swarming prefix
			  		  master_state = lora_alert;
 8001e00:	4b22      	ldr	r3, [pc, #136]	; (8001e8c <read_xbee+0x678>)
 8001e02:	2205      	movs	r2, #5
 8001e04:	701a      	strb	r2, [r3, #0]
			  	  break;
 8001e06:	e018      	b.n	8001e3a <read_xbee+0x626>

			  	  case 'O': //online prefix
			  	  break;

			  	  case 'S': //stop alert prefix
			  		  sscanf(received_frame.content, "S %s", id_check);
 8001e08:	2454      	movs	r4, #84	; 0x54
 8001e0a:	193a      	adds	r2, r7, r4
 8001e0c:	4920      	ldr	r1, [pc, #128]	; (8001e90 <read_xbee+0x67c>)
 8001e0e:	4b21      	ldr	r3, [pc, #132]	; (8001e94 <read_xbee+0x680>)
 8001e10:	0018      	movs	r0, r3
 8001e12:	f003 fd95 	bl	8005940 <siscanf>
			  		  if(memcmp(id_check, config[1][1], 8) == 0){
 8001e16:	4920      	ldr	r1, [pc, #128]	; (8001e98 <read_xbee+0x684>)
 8001e18:	193b      	adds	r3, r7, r4
 8001e1a:	2208      	movs	r2, #8
 8001e1c:	0018      	movs	r0, r3
 8001e1e:	f003 fd4f 	bl	80058c0 <memcmp>
 8001e22:	1e03      	subs	r3, r0, #0
 8001e24:	d108      	bne.n	8001e38 <read_xbee+0x624>
			  			  signal_state = signal_ok;
 8001e26:	4b1d      	ldr	r3, [pc, #116]	; (8001e9c <read_xbee+0x688>)
 8001e28:	2201      	movs	r2, #1
 8001e2a:	701a      	strb	r2, [r3, #0]
			  		  	  master_state = sparse_polling;
 8001e2c:	4b17      	ldr	r3, [pc, #92]	; (8001e8c <read_xbee+0x678>)
 8001e2e:	2203      	movs	r2, #3
 8001e30:	701a      	strb	r2, [r3, #0]
			  		  }

			      break;
 8001e32:	e001      	b.n	8001e38 <read_xbee+0x624>
			  	  break;
 8001e34:	46c0      	nop			; (mov r8, r8)
 8001e36:	e000      	b.n	8001e3a <read_xbee+0x626>
			      break;
 8001e38:	46c0      	nop			; (mov r8, r8)
			  }
	  		  xbee_receive_state = idle;
 8001e3a:	4b12      	ldr	r3, [pc, #72]	; (8001e84 <read_xbee+0x670>)
 8001e3c:	2200      	movs	r2, #0
 8001e3e:	701a      	strb	r2, [r3, #0]
			  memset(&received_frame, 0, sizeof(received_frame));
 8001e40:	2390      	movs	r3, #144	; 0x90
 8001e42:	005a      	lsls	r2, r3, #1
 8001e44:	4b0e      	ldr	r3, [pc, #56]	; (8001e80 <read_xbee+0x66c>)
 8001e46:	2100      	movs	r1, #0
 8001e48:	0018      	movs	r0, r3
 8001e4a:	f003 fd50 	bl	80058ee <memset>
			  memset(&xbee_rx_buffer, 0, sizeof(xbee_rx_buffer));
 8001e4e:	2380      	movs	r3, #128	; 0x80
 8001e50:	005a      	lsls	r2, r3, #1
 8001e52:	4b13      	ldr	r3, [pc, #76]	; (8001ea0 <read_xbee+0x68c>)
 8001e54:	2100      	movs	r1, #0
 8001e56:	0018      	movs	r0, r3
 8001e58:	f003 fd49 	bl	80058ee <memset>
			  xbee_rx_read_index = 0xFF;
 8001e5c:	4b0a      	ldr	r3, [pc, #40]	; (8001e88 <read_xbee+0x674>)
 8001e5e:	22ff      	movs	r2, #255	; 0xff
 8001e60:	701a      	strb	r2, [r3, #0]
			  xbee_rx_write_index = 0;
 8001e62:	4b10      	ldr	r3, [pc, #64]	; (8001ea4 <read_xbee+0x690>)
 8001e64:	2200      	movs	r2, #0
 8001e66:	701a      	strb	r2, [r3, #0]

		  break;
 8001e68:	e000      	b.n	8001e6c <read_xbee+0x658>
		  break;
 8001e6a:	46c0      	nop			; (mov r8, r8)
	  }

	  xbee_rx_read_index += 1;
 8001e6c:	4b06      	ldr	r3, [pc, #24]	; (8001e88 <read_xbee+0x674>)
 8001e6e:	781b      	ldrb	r3, [r3, #0]
 8001e70:	3301      	adds	r3, #1
 8001e72:	b2da      	uxtb	r2, r3
 8001e74:	4b04      	ldr	r3, [pc, #16]	; (8001e88 <read_xbee+0x674>)
 8001e76:	701a      	strb	r2, [r3, #0]

  }
}
 8001e78:	46c0      	nop			; (mov r8, r8)
 8001e7a:	46bd      	mov	sp, r7
 8001e7c:	b01d      	add	sp, #116	; 0x74
 8001e7e:	bdf0      	pop	{r4, r5, r6, r7, pc}
 8001e80:	20000438 	.word	0x20000438
 8001e84:	200005c6 	.word	0x200005c6
 8001e88:	20000424 	.word	0x20000424
 8001e8c:	2000030c 	.word	0x2000030c
 8001e90:	08006b88 	.word	0x08006b88
 8001e94:	2000044b 	.word	0x2000044b
 8001e98:	20000106 	.word	0x20000106
 8001e9c:	20000429 	.word	0x20000429
 8001ea0:	20000324 	.word	0x20000324
 8001ea4:	20000425 	.word	0x20000425

08001ea8 <Error_Handler>:
/**
  * @brief  This function is executed in case of error occurrence.
  * @retval None
  */
void Error_Handler(void)
{
 8001ea8:	b580      	push	{r7, lr}
 8001eaa:	af00      	add	r7, sp, #0
  \details Disables IRQ interrupts by setting the I-bit in the CPSR.
           Can only be executed in Privileged modes.
 */
__STATIC_FORCEINLINE void __disable_irq(void)
{
  __ASM volatile ("cpsid i" : : : "memory");
 8001eac:	b672      	cpsid	i
}
 8001eae:	46c0      	nop			; (mov r8, r8)
  /* USER CODE BEGIN Error_Handler_Debug */
  /* User can add his own implementation to report the HAL error return state */
  __disable_irq();
  while (1)
 8001eb0:	e7fe      	b.n	8001eb0 <Error_Handler+0x8>
	...

08001eb4 <HAL_MspInit>:
 8001eb4:	b580      	push	{r7, lr}
 8001eb6:	af00      	add	r7, sp, #0
 8001eb8:	4b07      	ldr	r3, [pc, #28]	; (8001ed8 <HAL_MspInit+0x24>)
 8001eba:	6b5a      	ldr	r2, [r3, #52]	; 0x34
 8001ebc:	4b06      	ldr	r3, [pc, #24]	; (8001ed8 <HAL_MspInit+0x24>)
 8001ebe:	2101      	movs	r1, #1
 8001ec0:	430a      	orrs	r2, r1
 8001ec2:	635a      	str	r2, [r3, #52]	; 0x34
 8001ec4:	4b04      	ldr	r3, [pc, #16]	; (8001ed8 <HAL_MspInit+0x24>)
 8001ec6:	6b9a      	ldr	r2, [r3, #56]	; 0x38
 8001ec8:	4b03      	ldr	r3, [pc, #12]	; (8001ed8 <HAL_MspInit+0x24>)
 8001eca:	2180      	movs	r1, #128	; 0x80
 8001ecc:	0549      	lsls	r1, r1, #21
 8001ece:	430a      	orrs	r2, r1
 8001ed0:	639a      	str	r2, [r3, #56]	; 0x38
 8001ed2:	46c0      	nop			; (mov r8, r8)
 8001ed4:	46bd      	mov	sp, r7
 8001ed6:	bd80      	pop	{r7, pc}
 8001ed8:	40021000 	.word	0x40021000

08001edc <HAL_SPI_MspInit>:
 8001edc:	b590      	push	{r4, r7, lr}
 8001ede:	b089      	sub	sp, #36	; 0x24
 8001ee0:	af00      	add	r7, sp, #0
 8001ee2:	6078      	str	r0, [r7, #4]
 8001ee4:	240c      	movs	r4, #12
 8001ee6:	193b      	adds	r3, r7, r4
 8001ee8:	0018      	movs	r0, r3
 8001eea:	2314      	movs	r3, #20
 8001eec:	001a      	movs	r2, r3
 8001eee:	2100      	movs	r1, #0
 8001ef0:	f003 fcfd 	bl	80058ee <memset>
 8001ef4:	687b      	ldr	r3, [r7, #4]
 8001ef6:	681b      	ldr	r3, [r3, #0]
 8001ef8:	4a18      	ldr	r2, [pc, #96]	; (8001f5c <HAL_SPI_MspInit+0x80>)
 8001efa:	4293      	cmp	r3, r2
 8001efc:	d129      	bne.n	8001f52 <HAL_SPI_MspInit+0x76>
 8001efe:	4b18      	ldr	r3, [pc, #96]	; (8001f60 <HAL_SPI_MspInit+0x84>)
 8001f00:	6b9a      	ldr	r2, [r3, #56]	; 0x38
 8001f02:	4b17      	ldr	r3, [pc, #92]	; (8001f60 <HAL_SPI_MspInit+0x84>)
 8001f04:	2180      	movs	r1, #128	; 0x80
 8001f06:	01c9      	lsls	r1, r1, #7
 8001f08:	430a      	orrs	r2, r1
 8001f0a:	639a      	str	r2, [r3, #56]	; 0x38
 8001f0c:	4b14      	ldr	r3, [pc, #80]	; (8001f60 <HAL_SPI_MspInit+0x84>)
 8001f0e:	6ada      	ldr	r2, [r3, #44]	; 0x2c
 8001f10:	4b13      	ldr	r3, [pc, #76]	; (8001f60 <HAL_SPI_MspInit+0x84>)
 8001f12:	2102      	movs	r1, #2
 8001f14:	430a      	orrs	r2, r1
 8001f16:	62da      	str	r2, [r3, #44]	; 0x2c
 8001f18:	4b11      	ldr	r3, [pc, #68]	; (8001f60 <HAL_SPI_MspInit+0x84>)
 8001f1a:	6adb      	ldr	r3, [r3, #44]	; 0x2c
 8001f1c:	2202      	movs	r2, #2
 8001f1e:	4013      	ands	r3, r2
 8001f20:	60bb      	str	r3, [r7, #8]
 8001f22:	68bb      	ldr	r3, [r7, #8]
 8001f24:	193b      	adds	r3, r7, r4
 8001f26:	22f0      	movs	r2, #240	; 0xf0
 8001f28:	0212      	lsls	r2, r2, #8
 8001f2a:	601a      	str	r2, [r3, #0]
 8001f2c:	0021      	movs	r1, r4
 8001f2e:	187b      	adds	r3, r7, r1
 8001f30:	2202      	movs	r2, #2
 8001f32:	605a      	str	r2, [r3, #4]
 8001f34:	187b      	adds	r3, r7, r1
 8001f36:	2200      	movs	r2, #0
 8001f38:	609a      	str	r2, [r3, #8]
 8001f3a:	187b      	adds	r3, r7, r1
 8001f3c:	2203      	movs	r2, #3
 8001f3e:	60da      	str	r2, [r3, #12]
 8001f40:	187b      	adds	r3, r7, r1
 8001f42:	2200      	movs	r2, #0
 8001f44:	611a      	str	r2, [r3, #16]
 8001f46:	187b      	adds	r3, r7, r1
 8001f48:	4a06      	ldr	r2, [pc, #24]	; (8001f64 <HAL_SPI_MspInit+0x88>)
 8001f4a:	0019      	movs	r1, r3
 8001f4c:	0010      	movs	r0, r2
 8001f4e:	f000 fb59 	bl	8002604 <HAL_GPIO_Init>
 8001f52:	46c0      	nop			; (mov r8, r8)
 8001f54:	46bd      	mov	sp, r7
 8001f56:	b009      	add	sp, #36	; 0x24
 8001f58:	bd90      	pop	{r4, r7, pc}
 8001f5a:	46c0      	nop			; (mov r8, r8)
 8001f5c:	40003800 	.word	0x40003800
 8001f60:	40021000 	.word	0x40021000
 8001f64:	50000400 	.word	0x50000400

08001f68 <HAL_TIM_Base_MspInit>:
 8001f68:	b580      	push	{r7, lr}
 8001f6a:	b082      	sub	sp, #8
 8001f6c:	af00      	add	r7, sp, #0
 8001f6e:	6078      	str	r0, [r7, #4]
 8001f70:	687b      	ldr	r3, [r7, #4]
 8001f72:	681a      	ldr	r2, [r3, #0]
 8001f74:	2380      	movs	r3, #128	; 0x80
 8001f76:	05db      	lsls	r3, r3, #23
 8001f78:	429a      	cmp	r2, r3
 8001f7a:	d10e      	bne.n	8001f9a <HAL_TIM_Base_MspInit+0x32>
 8001f7c:	4b12      	ldr	r3, [pc, #72]	; (8001fc8 <HAL_TIM_Base_MspInit+0x60>)
 8001f7e:	6b9a      	ldr	r2, [r3, #56]	; 0x38
 8001f80:	4b11      	ldr	r3, [pc, #68]	; (8001fc8 <HAL_TIM_Base_MspInit+0x60>)
 8001f82:	2101      	movs	r1, #1
 8001f84:	430a      	orrs	r2, r1
 8001f86:	639a      	str	r2, [r3, #56]	; 0x38
 8001f88:	2200      	movs	r2, #0
 8001f8a:	2100      	movs	r1, #0
 8001f8c:	200f      	movs	r0, #15
 8001f8e:	f000 fa7f 	bl	8002490 <HAL_NVIC_SetPriority>
 8001f92:	200f      	movs	r0, #15
 8001f94:	f000 fa91 	bl	80024ba <HAL_NVIC_EnableIRQ>
 8001f98:	e012      	b.n	8001fc0 <HAL_TIM_Base_MspInit+0x58>
 8001f9a:	687b      	ldr	r3, [r7, #4]
 8001f9c:	681b      	ldr	r3, [r3, #0]
 8001f9e:	4a0b      	ldr	r2, [pc, #44]	; (8001fcc <HAL_TIM_Base_MspInit+0x64>)
 8001fa0:	4293      	cmp	r3, r2
 8001fa2:	d10d      	bne.n	8001fc0 <HAL_TIM_Base_MspInit+0x58>
 8001fa4:	4b08      	ldr	r3, [pc, #32]	; (8001fc8 <HAL_TIM_Base_MspInit+0x60>)
 8001fa6:	6b9a      	ldr	r2, [r3, #56]	; 0x38
 8001fa8:	4b07      	ldr	r3, [pc, #28]	; (8001fc8 <HAL_TIM_Base_MspInit+0x60>)
 8001faa:	2102      	movs	r1, #2
 8001fac:	430a      	orrs	r2, r1
 8001fae:	639a      	str	r2, [r3, #56]	; 0x38
 8001fb0:	2200      	movs	r2, #0
 8001fb2:	2100      	movs	r1, #0
 8001fb4:	2010      	movs	r0, #16
 8001fb6:	f000 fa6b 	bl	8002490 <HAL_NVIC_SetPriority>
 8001fba:	2010      	movs	r0, #16
 8001fbc:	f000 fa7d 	bl	80024ba <HAL_NVIC_EnableIRQ>
 8001fc0:	46c0      	nop			; (mov r8, r8)
 8001fc2:	46bd      	mov	sp, r7
 8001fc4:	b002      	add	sp, #8
 8001fc6:	bd80      	pop	{r7, pc}
 8001fc8:	40021000 	.word	0x40021000
 8001fcc:	40000400 	.word	0x40000400

08001fd0 <HAL_UART_MspInit>:
 8001fd0:	b590      	push	{r4, r7, lr}
 8001fd2:	b08b      	sub	sp, #44	; 0x2c
 8001fd4:	af00      	add	r7, sp, #0
 8001fd6:	6078      	str	r0, [r7, #4]
 8001fd8:	2414      	movs	r4, #20
 8001fda:	193b      	adds	r3, r7, r4
 8001fdc:	0018      	movs	r0, r3
 8001fde:	2314      	movs	r3, #20
 8001fe0:	001a      	movs	r2, r3
 8001fe2:	2100      	movs	r1, #0
 8001fe4:	f003 fc83 	bl	80058ee <memset>
 8001fe8:	687b      	ldr	r3, [r7, #4]
 8001fea:	681b      	ldr	r3, [r3, #0]
 8001fec:	4a33      	ldr	r2, [pc, #204]	; (80020bc <HAL_UART_MspInit+0xec>)
 8001fee:	4293      	cmp	r3, r2
 8001ff0:	d12a      	bne.n	8002048 <HAL_UART_MspInit+0x78>
 8001ff2:	4b33      	ldr	r3, [pc, #204]	; (80020c0 <HAL_UART_MspInit+0xf0>)
 8001ff4:	6b9a      	ldr	r2, [r3, #56]	; 0x38
 8001ff6:	4b32      	ldr	r3, [pc, #200]	; (80020c0 <HAL_UART_MspInit+0xf0>)
 8001ff8:	2180      	movs	r1, #128	; 0x80
 8001ffa:	0289      	lsls	r1, r1, #10
 8001ffc:	430a      	orrs	r2, r1
 8001ffe:	639a      	str	r2, [r3, #56]	; 0x38
 8002000:	4b2f      	ldr	r3, [pc, #188]	; (80020c0 <HAL_UART_MspInit+0xf0>)
 8002002:	6ada      	ldr	r2, [r3, #44]	; 0x2c
 8002004:	4b2e      	ldr	r3, [pc, #184]	; (80020c0 <HAL_UART_MspInit+0xf0>)
 8002006:	2101      	movs	r1, #1
 8002008:	430a      	orrs	r2, r1
 800200a:	62da      	str	r2, [r3, #44]	; 0x2c
 800200c:	4b2c      	ldr	r3, [pc, #176]	; (80020c0 <HAL_UART_MspInit+0xf0>)
 800200e:	6adb      	ldr	r3, [r3, #44]	; 0x2c
 8002010:	2201      	movs	r2, #1
 8002012:	4013      	ands	r3, r2
 8002014:	613b      	str	r3, [r7, #16]
 8002016:	693b      	ldr	r3, [r7, #16]
 8002018:	0021      	movs	r1, r4
 800201a:	187b      	adds	r3, r7, r1
 800201c:	220c      	movs	r2, #12
 800201e:	601a      	str	r2, [r3, #0]
 8002020:	187b      	adds	r3, r7, r1
 8002022:	2202      	movs	r2, #2
 8002024:	605a      	str	r2, [r3, #4]
 8002026:	187b      	adds	r3, r7, r1
 8002028:	2200      	movs	r2, #0
 800202a:	609a      	str	r2, [r3, #8]
 800202c:	187b      	adds	r3, r7, r1
 800202e:	2203      	movs	r2, #3
 8002030:	60da      	str	r2, [r3, #12]
 8002032:	187b      	adds	r3, r7, r1
 8002034:	2204      	movs	r2, #4
 8002036:	611a      	str	r2, [r3, #16]
 8002038:	187a      	adds	r2, r7, r1
 800203a:	23a0      	movs	r3, #160	; 0xa0
 800203c:	05db      	lsls	r3, r3, #23
 800203e:	0011      	movs	r1, r2
 8002040:	0018      	movs	r0, r3
 8002042:	f000 fadf 	bl	8002604 <HAL_GPIO_Init>
 8002046:	e035      	b.n	80020b4 <HAL_UART_MspInit+0xe4>
 8002048:	687b      	ldr	r3, [r7, #4]
 800204a:	681b      	ldr	r3, [r3, #0]
 800204c:	4a1d      	ldr	r2, [pc, #116]	; (80020c4 <HAL_UART_MspInit+0xf4>)
 800204e:	4293      	cmp	r3, r2
 8002050:	d130      	bne.n	80020b4 <HAL_UART_MspInit+0xe4>
 8002052:	4b1b      	ldr	r3, [pc, #108]	; (80020c0 <HAL_UART_MspInit+0xf0>)
 8002054:	6b9a      	ldr	r2, [r3, #56]	; 0x38
 8002056:	4b1a      	ldr	r3, [pc, #104]	; (80020c0 <HAL_UART_MspInit+0xf0>)
 8002058:	2180      	movs	r1, #128	; 0x80
 800205a:	0349      	lsls	r1, r1, #13
 800205c:	430a      	orrs	r2, r1
 800205e:	639a      	str	r2, [r3, #56]	; 0x38
 8002060:	4b17      	ldr	r3, [pc, #92]	; (80020c0 <HAL_UART_MspInit+0xf0>)
 8002062:	6ada      	ldr	r2, [r3, #44]	; 0x2c
 8002064:	4b16      	ldr	r3, [pc, #88]	; (80020c0 <HAL_UART_MspInit+0xf0>)
 8002066:	2102      	movs	r1, #2
 8002068:	430a      	orrs	r2, r1
 800206a:	62da      	str	r2, [r3, #44]	; 0x2c
 800206c:	4b14      	ldr	r3, [pc, #80]	; (80020c0 <HAL_UART_MspInit+0xf0>)
 800206e:	6adb      	ldr	r3, [r3, #44]	; 0x2c
 8002070:	2202      	movs	r2, #2
 8002072:	4013      	ands	r3, r2
 8002074:	60fb      	str	r3, [r7, #12]
 8002076:	68fb      	ldr	r3, [r7, #12]
 8002078:	2114      	movs	r1, #20
 800207a:	187b      	adds	r3, r7, r1
 800207c:	2218      	movs	r2, #24
 800207e:	601a      	str	r2, [r3, #0]
 8002080:	187b      	adds	r3, r7, r1
 8002082:	2202      	movs	r2, #2
 8002084:	605a      	str	r2, [r3, #4]
 8002086:	187b      	adds	r3, r7, r1
 8002088:	2200      	movs	r2, #0
 800208a:	609a      	str	r2, [r3, #8]
 800208c:	187b      	adds	r3, r7, r1
 800208e:	2203      	movs	r2, #3
 8002090:	60da      	str	r2, [r3, #12]
 8002092:	187b      	adds	r3, r7, r1
 8002094:	2206      	movs	r2, #6
 8002096:	611a      	str	r2, [r3, #16]
 8002098:	187b      	adds	r3, r7, r1
 800209a:	4a0b      	ldr	r2, [pc, #44]	; (80020c8 <HAL_UART_MspInit+0xf8>)
 800209c:	0019      	movs	r1, r3
 800209e:	0010      	movs	r0, r2
 80020a0:	f000 fab0 	bl	8002604 <HAL_GPIO_Init>
 80020a4:	2200      	movs	r2, #0
 80020a6:	2100      	movs	r1, #0
 80020a8:	200e      	movs	r0, #14
 80020aa:	f000 f9f1 	bl	8002490 <HAL_NVIC_SetPriority>
 80020ae:	200e      	movs	r0, #14
 80020b0:	f000 fa03 	bl	80024ba <HAL_NVIC_EnableIRQ>
 80020b4:	46c0      	nop			; (mov r8, r8)
 80020b6:	46bd      	mov	sp, r7
 80020b8:	b00b      	add	sp, #44	; 0x2c
 80020ba:	bd90      	pop	{r4, r7, pc}
 80020bc:	40004400 	.word	0x40004400
 80020c0:	40021000 	.word	0x40021000
 80020c4:	40005000 	.word	0x40005000
 80020c8:	50000400 	.word	0x50000400

080020cc <NMI_Handler>:
 80020cc:	b580      	push	{r7, lr}
 80020ce:	af00      	add	r7, sp, #0
 80020d0:	e7fe      	b.n	80020d0 <NMI_Handler+0x4>

080020d2 <HardFault_Handler>:
 80020d2:	b580      	push	{r7, lr}
 80020d4:	af00      	add	r7, sp, #0
 80020d6:	e7fe      	b.n	80020d6 <HardFault_Handler+0x4>

080020d8 <SVC_Handler>:
 80020d8:	b580      	push	{r7, lr}
 80020da:	af00      	add	r7, sp, #0
 80020dc:	46c0      	nop			; (mov r8, r8)
 80020de:	46bd      	mov	sp, r7
 80020e0:	bd80      	pop	{r7, pc}

080020e2 <PendSV_Handler>:
 80020e2:	b580      	push	{r7, lr}
 80020e4:	af00      	add	r7, sp, #0
 80020e6:	46c0      	nop			; (mov r8, r8)
 80020e8:	46bd      	mov	sp, r7
 80020ea:	bd80      	pop	{r7, pc}

080020ec <SysTick_Handler>:
 80020ec:	b580      	push	{r7, lr}
 80020ee:	af00      	add	r7, sp, #0
 80020f0:	f000 f8e2 	bl	80022b8 <HAL_IncTick>
 80020f4:	46c0      	nop			; (mov r8, r8)
 80020f6:	46bd      	mov	sp, r7
 80020f8:	bd80      	pop	{r7, pc}
	...

080020fc <USART4_5_IRQHandler>:
 80020fc:	b580      	push	{r7, lr}
 80020fe:	af00      	add	r7, sp, #0
 8002100:	4b03      	ldr	r3, [pc, #12]	; (8002110 <USART4_5_IRQHandler+0x14>)
 8002102:	0018      	movs	r0, r3
 8002104:	f002 f97a 	bl	80043fc <HAL_UART_IRQHandler>
 8002108:	46c0      	nop			; (mov r8, r8)
 800210a:	46bd      	mov	sp, r7
 800210c:	bd80      	pop	{r7, pc}
 800210e:	46c0      	nop			; (mov r8, r8)
 8002110:	20000608 	.word	0x20000608

08002114 <TIM2_IRQHandler>:
 8002114:	b580      	push	{r7, lr}
 8002116:	af00      	add	r7, sp, #0
 8002118:	4b03      	ldr	r3, [pc, #12]	; (8002128 <TIM2_IRQHandler+0x14>)
 800211a:	0018      	movs	r0, r3
 800211c:	f001 fcd8 	bl	8003ad0 <HAL_TIM_IRQHandler>
 8002120:	46c0      	nop			; (mov r8, r8)
 8002122:	46bd      	mov	sp, r7
 8002124:	bd80      	pop	{r7, pc}
 8002126:	46c0      	nop			; (mov r8, r8)
 8002128:	2000068c 	.word	0x2000068c

0800212c <TIM3_IRQHandler>:
 800212c:	b580      	push	{r7, lr}
 800212e:	af00      	add	r7, sp, #0
 8002130:	4b03      	ldr	r3, [pc, #12]	; (8002140 <TIM3_IRQHandler+0x14>)
 8002132:	0018      	movs	r0, r3
 8002134:	f001 fccc 	bl	8003ad0 <HAL_TIM_IRQHandler>
 8002138:	46c0      	nop			; (mov r8, r8)
 800213a:	46bd      	mov	sp, r7
 800213c:	bd80      	pop	{r7, pc}
 800213e:	46c0      	nop			; (mov r8, r8)
 8002140:	200005c8 	.word	0x200005c8

08002144 <_sbrk>:
 8002144:	b580      	push	{r7, lr}
 8002146:	b086      	sub	sp, #24
 8002148:	af00      	add	r7, sp, #0
 800214a:	6078      	str	r0, [r7, #4]
 800214c:	4a14      	ldr	r2, [pc, #80]	; (80021a0 <_sbrk+0x5c>)
 800214e:	4b15      	ldr	r3, [pc, #84]	; (80021a4 <_sbrk+0x60>)
 8002150:	1ad3      	subs	r3, r2, r3
 8002152:	617b      	str	r3, [r7, #20]
 8002154:	697b      	ldr	r3, [r7, #20]
 8002156:	613b      	str	r3, [r7, #16]
 8002158:	4b13      	ldr	r3, [pc, #76]	; (80021a8 <_sbrk+0x64>)
 800215a:	681b      	ldr	r3, [r3, #0]
 800215c:	2b00      	cmp	r3, #0
 800215e:	d102      	bne.n	8002166 <_sbrk+0x22>
 8002160:	4b11      	ldr	r3, [pc, #68]	; (80021a8 <_sbrk+0x64>)
 8002162:	4a12      	ldr	r2, [pc, #72]	; (80021ac <_sbrk+0x68>)
 8002164:	601a      	str	r2, [r3, #0]
 8002166:	4b10      	ldr	r3, [pc, #64]	; (80021a8 <_sbrk+0x64>)
 8002168:	681a      	ldr	r2, [r3, #0]
 800216a:	687b      	ldr	r3, [r7, #4]
 800216c:	18d3      	adds	r3, r2, r3
 800216e:	693a      	ldr	r2, [r7, #16]
 8002170:	429a      	cmp	r2, r3
 8002172:	d207      	bcs.n	8002184 <_sbrk+0x40>
 8002174:	f003 fb7a 	bl	800586c <__errno>
 8002178:	0003      	movs	r3, r0
 800217a:	220c      	movs	r2, #12
 800217c:	601a      	str	r2, [r3, #0]
 800217e:	2301      	movs	r3, #1
 8002180:	425b      	negs	r3, r3
 8002182:	e009      	b.n	8002198 <_sbrk+0x54>
 8002184:	4b08      	ldr	r3, [pc, #32]	; (80021a8 <_sbrk+0x64>)
 8002186:	681b      	ldr	r3, [r3, #0]
 8002188:	60fb      	str	r3, [r7, #12]
 800218a:	4b07      	ldr	r3, [pc, #28]	; (80021a8 <_sbrk+0x64>)
 800218c:	681a      	ldr	r2, [r3, #0]
 800218e:	687b      	ldr	r3, [r7, #4]
 8002190:	18d2      	adds	r2, r2, r3
 8002192:	4b05      	ldr	r3, [pc, #20]	; (80021a8 <_sbrk+0x64>)
 8002194:	601a      	str	r2, [r3, #0]
 8002196:	68fb      	ldr	r3, [r7, #12]
 8002198:	0018      	movs	r0, r3
 800219a:	46bd      	mov	sp, r7
 800219c:	b006      	add	sp, #24
 800219e:	bd80      	pop	{r7, pc}
 80021a0:	20005000 	.word	0x20005000
 80021a4:	00000400 	.word	0x00000400
 80021a8:	2000055c 	.word	0x2000055c
 80021ac:	20000768 	.word	0x20000768

080021b0 <SystemInit>:
 80021b0:	b580      	push	{r7, lr}
 80021b2:	af00      	add	r7, sp, #0
 80021b4:	46c0      	nop			; (mov r8, r8)
 80021b6:	46bd      	mov	sp, r7
 80021b8:	bd80      	pop	{r7, pc}
	...

080021bc <Reset_Handler>:
 80021bc:	480d      	ldr	r0, [pc, #52]	; (80021f4 <LoopForever+0x2>)
 80021be:	4685      	mov	sp, r0
 80021c0:	480d      	ldr	r0, [pc, #52]	; (80021f8 <LoopForever+0x6>)
 80021c2:	490e      	ldr	r1, [pc, #56]	; (80021fc <LoopForever+0xa>)
 80021c4:	4a0e      	ldr	r2, [pc, #56]	; (8002200 <LoopForever+0xe>)
 80021c6:	2300      	movs	r3, #0
 80021c8:	e002      	b.n	80021d0 <LoopCopyDataInit>

080021ca <CopyDataInit>:
 80021ca:	58d4      	ldr	r4, [r2, r3]
 80021cc:	50c4      	str	r4, [r0, r3]
 80021ce:	3304      	adds	r3, #4

080021d0 <LoopCopyDataInit>:
 80021d0:	18c4      	adds	r4, r0, r3
 80021d2:	428c      	cmp	r4, r1
 80021d4:	d3f9      	bcc.n	80021ca <CopyDataInit>
 80021d6:	4a0b      	ldr	r2, [pc, #44]	; (8002204 <LoopForever+0x12>)
 80021d8:	4c0b      	ldr	r4, [pc, #44]	; (8002208 <LoopForever+0x16>)
 80021da:	2300      	movs	r3, #0
 80021dc:	e001      	b.n	80021e2 <LoopFillZerobss>

080021de <FillZerobss>:
 80021de:	6013      	str	r3, [r2, #0]
 80021e0:	3204      	adds	r2, #4

080021e2 <LoopFillZerobss>:
 80021e2:	42a2      	cmp	r2, r4
 80021e4:	d3fb      	bcc.n	80021de <FillZerobss>
 80021e6:	f7ff ffe3 	bl	80021b0 <SystemInit>
 80021ea:	f003 fb45 	bl	8005878 <__libc_init_array>
 80021ee:	f7fe fa51 	bl	8000694 <main>

080021f2 <LoopForever>:
 80021f2:	e7fe      	b.n	80021f2 <LoopForever>
 80021f4:	20005000 	.word	0x20005000
 80021f8:	20000000 	.word	0x20000000
 80021fc:	200002ec 	.word	0x200002ec
 8002200:	08006e24 	.word	0x08006e24
 8002204:	200002f0 	.word	0x200002f0
 8002208:	20000764 	.word	0x20000764

0800220c <ADC1_COMP_IRQHandler>:
 800220c:	e7fe      	b.n	800220c <ADC1_COMP_IRQHandler>
	...

08002210 <HAL_Init>:
 8002210:	b580      	push	{r7, lr}
 8002212:	b082      	sub	sp, #8
 8002214:	af00      	add	r7, sp, #0
 8002216:	1dfb      	adds	r3, r7, #7
 8002218:	2200      	movs	r2, #0
 800221a:	701a      	strb	r2, [r3, #0]
 800221c:	4b0b      	ldr	r3, [pc, #44]	; (800224c <HAL_Init+0x3c>)
 800221e:	681a      	ldr	r2, [r3, #0]
 8002220:	4b0a      	ldr	r3, [pc, #40]	; (800224c <HAL_Init+0x3c>)
 8002222:	2140      	movs	r1, #64	; 0x40
 8002224:	430a      	orrs	r2, r1
 8002226:	601a      	str	r2, [r3, #0]
 8002228:	2003      	movs	r0, #3
 800222a:	f000 f811 	bl	8002250 <HAL_InitTick>
 800222e:	1e03      	subs	r3, r0, #0
 8002230:	d003      	beq.n	800223a <HAL_Init+0x2a>
 8002232:	1dfb      	adds	r3, r7, #7
 8002234:	2201      	movs	r2, #1
 8002236:	701a      	strb	r2, [r3, #0]
 8002238:	e001      	b.n	800223e <HAL_Init+0x2e>
 800223a:	f7ff fe3b 	bl	8001eb4 <HAL_MspInit>
 800223e:	1dfb      	adds	r3, r7, #7
 8002240:	781b      	ldrb	r3, [r3, #0]
 8002242:	0018      	movs	r0, r3
 8002244:	46bd      	mov	sp, r7
 8002246:	b002      	add	sp, #8
 8002248:	bd80      	pop	{r7, pc}
 800224a:	46c0      	nop			; (mov r8, r8)
 800224c:	40022000 	.word	0x40022000

08002250 <HAL_InitTick>:
 8002250:	b590      	push	{r4, r7, lr}
 8002252:	b083      	sub	sp, #12
 8002254:	af00      	add	r7, sp, #0
 8002256:	6078      	str	r0, [r7, #4]
 8002258:	4b14      	ldr	r3, [pc, #80]	; (80022ac <HAL_InitTick+0x5c>)
 800225a:	681c      	ldr	r4, [r3, #0]
 800225c:	4b14      	ldr	r3, [pc, #80]	; (80022b0 <HAL_InitTick+0x60>)
 800225e:	781b      	ldrb	r3, [r3, #0]
 8002260:	0019      	movs	r1, r3
 8002262:	23fa      	movs	r3, #250	; 0xfa
 8002264:	0098      	lsls	r0, r3, #2
 8002266:	f7fd ff61 	bl	800012c <__udivsi3>
 800226a:	0003      	movs	r3, r0
 800226c:	0019      	movs	r1, r3
 800226e:	0020      	movs	r0, r4
 8002270:	f7fd ff5c 	bl	800012c <__udivsi3>
 8002274:	0003      	movs	r3, r0
 8002276:	0018      	movs	r0, r3
 8002278:	f000 f92f 	bl	80024da <HAL_SYSTICK_Config>
 800227c:	1e03      	subs	r3, r0, #0
 800227e:	d001      	beq.n	8002284 <HAL_InitTick+0x34>
 8002280:	2301      	movs	r3, #1
 8002282:	e00f      	b.n	80022a4 <HAL_InitTick+0x54>
 8002284:	687b      	ldr	r3, [r7, #4]
 8002286:	2b03      	cmp	r3, #3
 8002288:	d80b      	bhi.n	80022a2 <HAL_InitTick+0x52>
 800228a:	6879      	ldr	r1, [r7, #4]
 800228c:	2301      	movs	r3, #1
 800228e:	425b      	negs	r3, r3
 8002290:	2200      	movs	r2, #0
 8002292:	0018      	movs	r0, r3
 8002294:	f000 f8fc 	bl	8002490 <HAL_NVIC_SetPriority>
 8002298:	4b06      	ldr	r3, [pc, #24]	; (80022b4 <HAL_InitTick+0x64>)
 800229a:	687a      	ldr	r2, [r7, #4]
 800229c:	601a      	str	r2, [r3, #0]
 800229e:	2300      	movs	r3, #0
 80022a0:	e000      	b.n	80022a4 <HAL_InitTick+0x54>
 80022a2:	2301      	movs	r3, #1
 80022a4:	0018      	movs	r0, r3
 80022a6:	46bd      	mov	sp, r7
 80022a8:	b003      	add	sp, #12
 80022aa:	bd90      	pop	{r4, r7, pc}
 80022ac:	2000027c 	.word	0x2000027c
 80022b0:	20000284 	.word	0x20000284
 80022b4:	20000280 	.word	0x20000280

080022b8 <HAL_IncTick>:
 80022b8:	b580      	push	{r7, lr}
 80022ba:	af00      	add	r7, sp, #0
 80022bc:	4b05      	ldr	r3, [pc, #20]	; (80022d4 <HAL_IncTick+0x1c>)
 80022be:	781b      	ldrb	r3, [r3, #0]
 80022c0:	001a      	movs	r2, r3
 80022c2:	4b05      	ldr	r3, [pc, #20]	; (80022d8 <HAL_IncTick+0x20>)
 80022c4:	681b      	ldr	r3, [r3, #0]
 80022c6:	18d2      	adds	r2, r2, r3
 80022c8:	4b03      	ldr	r3, [pc, #12]	; (80022d8 <HAL_IncTick+0x20>)
 80022ca:	601a      	str	r2, [r3, #0]
 80022cc:	46c0      	nop			; (mov r8, r8)
 80022ce:	46bd      	mov	sp, r7
 80022d0:	bd80      	pop	{r7, pc}
 80022d2:	46c0      	nop			; (mov r8, r8)
 80022d4:	20000284 	.word	0x20000284
 80022d8:	20000750 	.word	0x20000750

080022dc <HAL_GetTick>:
 80022dc:	b580      	push	{r7, lr}
 80022de:	af00      	add	r7, sp, #0
 80022e0:	4b02      	ldr	r3, [pc, #8]	; (80022ec <HAL_GetTick+0x10>)
 80022e2:	681b      	ldr	r3, [r3, #0]
 80022e4:	0018      	movs	r0, r3
 80022e6:	46bd      	mov	sp, r7
 80022e8:	bd80      	pop	{r7, pc}
 80022ea:	46c0      	nop			; (mov r8, r8)
 80022ec:	20000750 	.word	0x20000750

080022f0 <HAL_Delay>:
 80022f0:	b580      	push	{r7, lr}
 80022f2:	b084      	sub	sp, #16
 80022f4:	af00      	add	r7, sp, #0
 80022f6:	6078      	str	r0, [r7, #4]
 80022f8:	f7ff fff0 	bl	80022dc <HAL_GetTick>
 80022fc:	0003      	movs	r3, r0
 80022fe:	60bb      	str	r3, [r7, #8]
 8002300:	687b      	ldr	r3, [r7, #4]
 8002302:	60fb      	str	r3, [r7, #12]
 8002304:	68fb      	ldr	r3, [r7, #12]
 8002306:	3301      	adds	r3, #1
 8002308:	d005      	beq.n	8002316 <HAL_Delay+0x26>
 800230a:	4b0a      	ldr	r3, [pc, #40]	; (8002334 <HAL_Delay+0x44>)
 800230c:	781b      	ldrb	r3, [r3, #0]
 800230e:	001a      	movs	r2, r3
 8002310:	68fb      	ldr	r3, [r7, #12]
 8002312:	189b      	adds	r3, r3, r2
 8002314:	60fb      	str	r3, [r7, #12]
 8002316:	46c0      	nop			; (mov r8, r8)
 8002318:	f7ff ffe0 	bl	80022dc <HAL_GetTick>
 800231c:	0002      	movs	r2, r0
 800231e:	68bb      	ldr	r3, [r7, #8]
 8002320:	1ad3      	subs	r3, r2, r3
 8002322:	68fa      	ldr	r2, [r7, #12]
 8002324:	429a      	cmp	r2, r3
 8002326:	d8f7      	bhi.n	8002318 <HAL_Delay+0x28>
 8002328:	46c0      	nop			; (mov r8, r8)
 800232a:	46c0      	nop			; (mov r8, r8)
 800232c:	46bd      	mov	sp, r7
 800232e:	b004      	add	sp, #16
 8002330:	bd80      	pop	{r7, pc}
 8002332:	46c0      	nop			; (mov r8, r8)
 8002334:	20000284 	.word	0x20000284

08002338 <__NVIC_EnableIRQ>:
 8002338:	b580      	push	{r7, lr}
 800233a:	b082      	sub	sp, #8
 800233c:	af00      	add	r7, sp, #0
 800233e:	0002      	movs	r2, r0
 8002340:	1dfb      	adds	r3, r7, #7
 8002342:	701a      	strb	r2, [r3, #0]
 8002344:	1dfb      	adds	r3, r7, #7
 8002346:	781b      	ldrb	r3, [r3, #0]
 8002348:	2b7f      	cmp	r3, #127	; 0x7f
 800234a:	d809      	bhi.n	8002360 <__NVIC_EnableIRQ+0x28>
 800234c:	1dfb      	adds	r3, r7, #7
 800234e:	781b      	ldrb	r3, [r3, #0]
 8002350:	001a      	movs	r2, r3
 8002352:	231f      	movs	r3, #31
 8002354:	401a      	ands	r2, r3
 8002356:	4b04      	ldr	r3, [pc, #16]	; (8002368 <__NVIC_EnableIRQ+0x30>)
 8002358:	2101      	movs	r1, #1
 800235a:	4091      	lsls	r1, r2
 800235c:	000a      	movs	r2, r1
 800235e:	601a      	str	r2, [r3, #0]
 8002360:	46c0      	nop			; (mov r8, r8)
 8002362:	46bd      	mov	sp, r7
 8002364:	b002      	add	sp, #8
 8002366:	bd80      	pop	{r7, pc}
 8002368:	e000e100 	.word	0xe000e100

0800236c <__NVIC_SetPriority>:
 800236c:	b590      	push	{r4, r7, lr}
 800236e:	b083      	sub	sp, #12
 8002370:	af00      	add	r7, sp, #0
 8002372:	0002      	movs	r2, r0
 8002374:	6039      	str	r1, [r7, #0]
 8002376:	1dfb      	adds	r3, r7, #7
 8002378:	701a      	strb	r2, [r3, #0]
 800237a:	1dfb      	adds	r3, r7, #7
 800237c:	781b      	ldrb	r3, [r3, #0]
 800237e:	2b7f      	cmp	r3, #127	; 0x7f
 8002380:	d828      	bhi.n	80023d4 <__NVIC_SetPriority+0x68>
 8002382:	4a2f      	ldr	r2, [pc, #188]	; (8002440 <__NVIC_SetPriority+0xd4>)
 8002384:	1dfb      	adds	r3, r7, #7
 8002386:	781b      	ldrb	r3, [r3, #0]
 8002388:	b25b      	sxtb	r3, r3
 800238a:	089b      	lsrs	r3, r3, #2
 800238c:	33c0      	adds	r3, #192	; 0xc0
 800238e:	009b      	lsls	r3, r3, #2
 8002390:	589b      	ldr	r3, [r3, r2]
 8002392:	1dfa      	adds	r2, r7, #7
 8002394:	7812      	ldrb	r2, [r2, #0]
 8002396:	0011      	movs	r1, r2
 8002398:	2203      	movs	r2, #3
 800239a:	400a      	ands	r2, r1
 800239c:	00d2      	lsls	r2, r2, #3
 800239e:	21ff      	movs	r1, #255	; 0xff
 80023a0:	4091      	lsls	r1, r2
 80023a2:	000a      	movs	r2, r1
 80023a4:	43d2      	mvns	r2, r2
 80023a6:	401a      	ands	r2, r3
 80023a8:	0011      	movs	r1, r2
 80023aa:	683b      	ldr	r3, [r7, #0]
 80023ac:	019b      	lsls	r3, r3, #6
 80023ae:	22ff      	movs	r2, #255	; 0xff
 80023b0:	401a      	ands	r2, r3
 80023b2:	1dfb      	adds	r3, r7, #7
 80023b4:	781b      	ldrb	r3, [r3, #0]
 80023b6:	0018      	movs	r0, r3
 80023b8:	2303      	movs	r3, #3
 80023ba:	4003      	ands	r3, r0
 80023bc:	00db      	lsls	r3, r3, #3
 80023be:	409a      	lsls	r2, r3
 80023c0:	481f      	ldr	r0, [pc, #124]	; (8002440 <__NVIC_SetPriority+0xd4>)
 80023c2:	1dfb      	adds	r3, r7, #7
 80023c4:	781b      	ldrb	r3, [r3, #0]
 80023c6:	b25b      	sxtb	r3, r3
 80023c8:	089b      	lsrs	r3, r3, #2
 80023ca:	430a      	orrs	r2, r1
 80023cc:	33c0      	adds	r3, #192	; 0xc0
 80023ce:	009b      	lsls	r3, r3, #2
 80023d0:	501a      	str	r2, [r3, r0]
 80023d2:	e031      	b.n	8002438 <__NVIC_SetPriority+0xcc>
 80023d4:	4a1b      	ldr	r2, [pc, #108]	; (8002444 <__NVIC_SetPriority+0xd8>)
 80023d6:	1dfb      	adds	r3, r7, #7
 80023d8:	781b      	ldrb	r3, [r3, #0]
 80023da:	0019      	movs	r1, r3
 80023dc:	230f      	movs	r3, #15
 80023de:	400b      	ands	r3, r1
 80023e0:	3b08      	subs	r3, #8
 80023e2:	089b      	lsrs	r3, r3, #2
 80023e4:	3306      	adds	r3, #6
 80023e6:	009b      	lsls	r3, r3, #2
 80023e8:	18d3      	adds	r3, r2, r3
 80023ea:	3304      	adds	r3, #4
 80023ec:	681b      	ldr	r3, [r3, #0]
 80023ee:	1dfa      	adds	r2, r7, #7
 80023f0:	7812      	ldrb	r2, [r2, #0]
 80023f2:	0011      	movs	r1, r2
 80023f4:	2203      	movs	r2, #3
 80023f6:	400a      	ands	r2, r1
 80023f8:	00d2      	lsls	r2, r2, #3
 80023fa:	21ff      	movs	r1, #255	; 0xff
 80023fc:	4091      	lsls	r1, r2
 80023fe:	000a      	movs	r2, r1
 8002400:	43d2      	mvns	r2, r2
 8002402:	401a      	ands	r2, r3
 8002404:	0011      	movs	r1, r2
 8002406:	683b      	ldr	r3, [r7, #0]
 8002408:	019b      	lsls	r3, r3, #6
 800240a:	22ff      	movs	r2, #255	; 0xff
 800240c:	401a      	ands	r2, r3
 800240e:	1dfb      	adds	r3, r7, #7
 8002410:	781b      	ldrb	r3, [r3, #0]
 8002412:	0018      	movs	r0, r3
 8002414:	2303      	movs	r3, #3
 8002416:	4003      	ands	r3, r0
 8002418:	00db      	lsls	r3, r3, #3
 800241a:	409a      	lsls	r2, r3
 800241c:	4809      	ldr	r0, [pc, #36]	; (8002444 <__NVIC_SetPriority+0xd8>)
 800241e:	1dfb      	adds	r3, r7, #7
 8002420:	781b      	ldrb	r3, [r3, #0]
 8002422:	001c      	movs	r4, r3
 8002424:	230f      	movs	r3, #15
 8002426:	4023      	ands	r3, r4
 8002428:	3b08      	subs	r3, #8
 800242a:	089b      	lsrs	r3, r3, #2
 800242c:	430a      	orrs	r2, r1
 800242e:	3306      	adds	r3, #6
 8002430:	009b      	lsls	r3, r3, #2
 8002432:	18c3      	adds	r3, r0, r3
 8002434:	3304      	adds	r3, #4
 8002436:	601a      	str	r2, [r3, #0]
 8002438:	46c0      	nop			; (mov r8, r8)
 800243a:	46bd      	mov	sp, r7
 800243c:	b003      	add	sp, #12
 800243e:	bd90      	pop	{r4, r7, pc}
 8002440:	e000e100 	.word	0xe000e100
 8002444:	e000ed00 	.word	0xe000ed00

08002448 <SysTick_Config>:
 8002448:	b580      	push	{r7, lr}
 800244a:	b082      	sub	sp, #8
 800244c:	af00      	add	r7, sp, #0
 800244e:	6078      	str	r0, [r7, #4]
 8002450:	687b      	ldr	r3, [r7, #4]
 8002452:	1e5a      	subs	r2, r3, #1
 8002454:	2380      	movs	r3, #128	; 0x80
 8002456:	045b      	lsls	r3, r3, #17
 8002458:	429a      	cmp	r2, r3
 800245a:	d301      	bcc.n	8002460 <SysTick_Config+0x18>
 800245c:	2301      	movs	r3, #1
 800245e:	e010      	b.n	8002482 <SysTick_Config+0x3a>
 8002460:	4b0a      	ldr	r3, [pc, #40]	; (800248c <SysTick_Config+0x44>)
 8002462:	687a      	ldr	r2, [r7, #4]
 8002464:	3a01      	subs	r2, #1
 8002466:	605a      	str	r2, [r3, #4]
 8002468:	2301      	movs	r3, #1
 800246a:	425b      	negs	r3, r3
 800246c:	2103      	movs	r1, #3
 800246e:	0018      	movs	r0, r3
 8002470:	f7ff ff7c 	bl	800236c <__NVIC_SetPriority>
 8002474:	4b05      	ldr	r3, [pc, #20]	; (800248c <SysTick_Config+0x44>)
 8002476:	2200      	movs	r2, #0
 8002478:	609a      	str	r2, [r3, #8]
 800247a:	4b04      	ldr	r3, [pc, #16]	; (800248c <SysTick_Config+0x44>)
 800247c:	2207      	movs	r2, #7
 800247e:	601a      	str	r2, [r3, #0]
 8002480:	2300      	movs	r3, #0
 8002482:	0018      	movs	r0, r3
 8002484:	46bd      	mov	sp, r7
 8002486:	b002      	add	sp, #8
 8002488:	bd80      	pop	{r7, pc}
 800248a:	46c0      	nop			; (mov r8, r8)
 800248c:	e000e010 	.word	0xe000e010

08002490 <HAL_NVIC_SetPriority>:
 8002490:	b580      	push	{r7, lr}
 8002492:	b084      	sub	sp, #16
 8002494:	af00      	add	r7, sp, #0
 8002496:	60b9      	str	r1, [r7, #8]
 8002498:	607a      	str	r2, [r7, #4]
 800249a:	210f      	movs	r1, #15
 800249c:	187b      	adds	r3, r7, r1
 800249e:	1c02      	adds	r2, r0, #0
 80024a0:	701a      	strb	r2, [r3, #0]
 80024a2:	68ba      	ldr	r2, [r7, #8]
 80024a4:	187b      	adds	r3, r7, r1
 80024a6:	781b      	ldrb	r3, [r3, #0]
 80024a8:	b25b      	sxtb	r3, r3
 80024aa:	0011      	movs	r1, r2
 80024ac:	0018      	movs	r0, r3
 80024ae:	f7ff ff5d 	bl	800236c <__NVIC_SetPriority>
 80024b2:	46c0      	nop			; (mov r8, r8)
 80024b4:	46bd      	mov	sp, r7
 80024b6:	b004      	add	sp, #16
 80024b8:	bd80      	pop	{r7, pc}

080024ba <HAL_NVIC_EnableIRQ>:
 80024ba:	b580      	push	{r7, lr}
 80024bc:	b082      	sub	sp, #8
 80024be:	af00      	add	r7, sp, #0
 80024c0:	0002      	movs	r2, r0
 80024c2:	1dfb      	adds	r3, r7, #7
 80024c4:	701a      	strb	r2, [r3, #0]
 80024c6:	1dfb      	adds	r3, r7, #7
 80024c8:	781b      	ldrb	r3, [r3, #0]
 80024ca:	b25b      	sxtb	r3, r3
 80024cc:	0018      	movs	r0, r3
 80024ce:	f7ff ff33 	bl	8002338 <__NVIC_EnableIRQ>
 80024d2:	46c0      	nop			; (mov r8, r8)
 80024d4:	46bd      	mov	sp, r7
 80024d6:	b002      	add	sp, #8
 80024d8:	bd80      	pop	{r7, pc}

080024da <HAL_SYSTICK_Config>:
 80024da:	b580      	push	{r7, lr}
 80024dc:	b082      	sub	sp, #8
 80024de:	af00      	add	r7, sp, #0
 80024e0:	6078      	str	r0, [r7, #4]
 80024e2:	687b      	ldr	r3, [r7, #4]
 80024e4:	0018      	movs	r0, r3
 80024e6:	f7ff ffaf 	bl	8002448 <SysTick_Config>
 80024ea:	0003      	movs	r3, r0
 80024ec:	0018      	movs	r0, r3
 80024ee:	46bd      	mov	sp, r7
 80024f0:	b002      	add	sp, #8
 80024f2:	bd80      	pop	{r7, pc}

080024f4 <HAL_DMA_Abort>:
 80024f4:	b580      	push	{r7, lr}
 80024f6:	b084      	sub	sp, #16
 80024f8:	af00      	add	r7, sp, #0
 80024fa:	6078      	str	r0, [r7, #4]
 80024fc:	230f      	movs	r3, #15
 80024fe:	18fb      	adds	r3, r7, r3
 8002500:	2200      	movs	r2, #0
 8002502:	701a      	strb	r2, [r3, #0]
 8002504:	687b      	ldr	r3, [r7, #4]
 8002506:	2225      	movs	r2, #37	; 0x25
 8002508:	5c9b      	ldrb	r3, [r3, r2]
 800250a:	b2db      	uxtb	r3, r3
 800250c:	2b02      	cmp	r3, #2
 800250e:	d008      	beq.n	8002522 <HAL_DMA_Abort+0x2e>
 8002510:	687b      	ldr	r3, [r7, #4]
 8002512:	2204      	movs	r2, #4
 8002514:	63da      	str	r2, [r3, #60]	; 0x3c
 8002516:	687b      	ldr	r3, [r7, #4]
 8002518:	2224      	movs	r2, #36	; 0x24
 800251a:	2100      	movs	r1, #0
 800251c:	5499      	strb	r1, [r3, r2]
 800251e:	2301      	movs	r3, #1
 8002520:	e024      	b.n	800256c <HAL_DMA_Abort+0x78>
 8002522:	687b      	ldr	r3, [r7, #4]
 8002524:	681b      	ldr	r3, [r3, #0]
 8002526:	681a      	ldr	r2, [r3, #0]
 8002528:	687b      	ldr	r3, [r7, #4]
 800252a:	681b      	ldr	r3, [r3, #0]
 800252c:	210e      	movs	r1, #14
 800252e:	438a      	bics	r2, r1
 8002530:	601a      	str	r2, [r3, #0]
 8002532:	687b      	ldr	r3, [r7, #4]
 8002534:	681b      	ldr	r3, [r3, #0]
 8002536:	681a      	ldr	r2, [r3, #0]
 8002538:	687b      	ldr	r3, [r7, #4]
 800253a:	681b      	ldr	r3, [r3, #0]
 800253c:	2101      	movs	r1, #1
 800253e:	438a      	bics	r2, r1
 8002540:	601a      	str	r2, [r3, #0]
 8002542:	687b      	ldr	r3, [r7, #4]
 8002544:	6c5b      	ldr	r3, [r3, #68]	; 0x44
 8002546:	221c      	movs	r2, #28
 8002548:	401a      	ands	r2, r3
 800254a:	687b      	ldr	r3, [r7, #4]
 800254c:	6c1b      	ldr	r3, [r3, #64]	; 0x40
 800254e:	2101      	movs	r1, #1
 8002550:	4091      	lsls	r1, r2
 8002552:	000a      	movs	r2, r1
 8002554:	605a      	str	r2, [r3, #4]
 8002556:	687b      	ldr	r3, [r7, #4]
 8002558:	2225      	movs	r2, #37	; 0x25
 800255a:	2101      	movs	r1, #1
 800255c:	5499      	strb	r1, [r3, r2]
 800255e:	687b      	ldr	r3, [r7, #4]
 8002560:	2224      	movs	r2, #36	; 0x24
 8002562:	2100      	movs	r1, #0
 8002564:	5499      	strb	r1, [r3, r2]
 8002566:	230f      	movs	r3, #15
 8002568:	18fb      	adds	r3, r7, r3
 800256a:	781b      	ldrb	r3, [r3, #0]
 800256c:	0018      	movs	r0, r3
 800256e:	46bd      	mov	sp, r7
 8002570:	b004      	add	sp, #16
 8002572:	bd80      	pop	{r7, pc}

08002574 <HAL_DMA_Abort_IT>:
 8002574:	b580      	push	{r7, lr}
 8002576:	b084      	sub	sp, #16
 8002578:	af00      	add	r7, sp, #0
 800257a:	6078      	str	r0, [r7, #4]
 800257c:	210f      	movs	r1, #15
 800257e:	187b      	adds	r3, r7, r1
 8002580:	2200      	movs	r2, #0
 8002582:	701a      	strb	r2, [r3, #0]
 8002584:	687b      	ldr	r3, [r7, #4]
 8002586:	2225      	movs	r2, #37	; 0x25
 8002588:	5c9b      	ldrb	r3, [r3, r2]
 800258a:	b2db      	uxtb	r3, r3
 800258c:	2b02      	cmp	r3, #2
 800258e:	d006      	beq.n	800259e <HAL_DMA_Abort_IT+0x2a>
 8002590:	687b      	ldr	r3, [r7, #4]
 8002592:	2204      	movs	r2, #4
 8002594:	63da      	str	r2, [r3, #60]	; 0x3c
 8002596:	187b      	adds	r3, r7, r1
 8002598:	2201      	movs	r2, #1
 800259a:	701a      	strb	r2, [r3, #0]
 800259c:	e02a      	b.n	80025f4 <HAL_DMA_Abort_IT+0x80>
 800259e:	687b      	ldr	r3, [r7, #4]
 80025a0:	681b      	ldr	r3, [r3, #0]
 80025a2:	681a      	ldr	r2, [r3, #0]
 80025a4:	687b      	ldr	r3, [r7, #4]
 80025a6:	681b      	ldr	r3, [r3, #0]
 80025a8:	210e      	movs	r1, #14
 80025aa:	438a      	bics	r2, r1
 80025ac:	601a      	str	r2, [r3, #0]
 80025ae:	687b      	ldr	r3, [r7, #4]
 80025b0:	681b      	ldr	r3, [r3, #0]
 80025b2:	681a      	ldr	r2, [r3, #0]
 80025b4:	687b      	ldr	r3, [r7, #4]
 80025b6:	681b      	ldr	r3, [r3, #0]
 80025b8:	2101      	movs	r1, #1
 80025ba:	438a      	bics	r2, r1
 80025bc:	601a      	str	r2, [r3, #0]
 80025be:	687b      	ldr	r3, [r7, #4]
 80025c0:	6c5b      	ldr	r3, [r3, #68]	; 0x44
 80025c2:	221c      	movs	r2, #28
 80025c4:	401a      	ands	r2, r3
 80025c6:	687b      	ldr	r3, [r7, #4]
 80025c8:	6c1b      	ldr	r3, [r3, #64]	; 0x40
 80025ca:	2101      	movs	r1, #1
 80025cc:	4091      	lsls	r1, r2
 80025ce:	000a      	movs	r2, r1
 80025d0:	605a      	str	r2, [r3, #4]
 80025d2:	687b      	ldr	r3, [r7, #4]
 80025d4:	2225      	movs	r2, #37	; 0x25
 80025d6:	2101      	movs	r1, #1
 80025d8:	5499      	strb	r1, [r3, r2]
 80025da:	687b      	ldr	r3, [r7, #4]
 80025dc:	2224      	movs	r2, #36	; 0x24
 80025de:	2100      	movs	r1, #0
 80025e0:	5499      	strb	r1, [r3, r2]
 80025e2:	687b      	ldr	r3, [r7, #4]
 80025e4:	6b9b      	ldr	r3, [r3, #56]	; 0x38
 80025e6:	2b00      	cmp	r3, #0
 80025e8:	d004      	beq.n	80025f4 <HAL_DMA_Abort_IT+0x80>
 80025ea:	687b      	ldr	r3, [r7, #4]
 80025ec:	6b9b      	ldr	r3, [r3, #56]	; 0x38
 80025ee:	687a      	ldr	r2, [r7, #4]
 80025f0:	0010      	movs	r0, r2
 80025f2:	4798      	blx	r3
 80025f4:	230f      	movs	r3, #15
 80025f6:	18fb      	adds	r3, r7, r3
 80025f8:	781b      	ldrb	r3, [r3, #0]
 80025fa:	0018      	movs	r0, r3
 80025fc:	46bd      	mov	sp, r7
 80025fe:	b004      	add	sp, #16
 8002600:	bd80      	pop	{r7, pc}
	...

08002604 <HAL_GPIO_Init>:
 8002604:	b580      	push	{r7, lr}
 8002606:	b086      	sub	sp, #24
 8002608:	af00      	add	r7, sp, #0
 800260a:	6078      	str	r0, [r7, #4]
 800260c:	6039      	str	r1, [r7, #0]
 800260e:	2300      	movs	r3, #0
 8002610:	617b      	str	r3, [r7, #20]
 8002612:	2300      	movs	r3, #0
 8002614:	60fb      	str	r3, [r7, #12]
 8002616:	2300      	movs	r3, #0
 8002618:	613b      	str	r3, [r7, #16]
 800261a:	e155      	b.n	80028c8 <HAL_GPIO_Init+0x2c4>
 800261c:	683b      	ldr	r3, [r7, #0]
 800261e:	681b      	ldr	r3, [r3, #0]
 8002620:	2101      	movs	r1, #1
 8002622:	697a      	ldr	r2, [r7, #20]
 8002624:	4091      	lsls	r1, r2
 8002626:	000a      	movs	r2, r1
 8002628:	4013      	ands	r3, r2
 800262a:	60fb      	str	r3, [r7, #12]
 800262c:	68fb      	ldr	r3, [r7, #12]
 800262e:	2b00      	cmp	r3, #0
 8002630:	d100      	bne.n	8002634 <HAL_GPIO_Init+0x30>
 8002632:	e146      	b.n	80028c2 <HAL_GPIO_Init+0x2be>
 8002634:	683b      	ldr	r3, [r7, #0]
 8002636:	685b      	ldr	r3, [r3, #4]
 8002638:	2203      	movs	r2, #3
 800263a:	4013      	ands	r3, r2
 800263c:	2b01      	cmp	r3, #1
 800263e:	d005      	beq.n	800264c <HAL_GPIO_Init+0x48>
 8002640:	683b      	ldr	r3, [r7, #0]
 8002642:	685b      	ldr	r3, [r3, #4]
 8002644:	2203      	movs	r2, #3
 8002646:	4013      	ands	r3, r2
 8002648:	2b02      	cmp	r3, #2
 800264a:	d130      	bne.n	80026ae <HAL_GPIO_Init+0xaa>
 800264c:	687b      	ldr	r3, [r7, #4]
 800264e:	689b      	ldr	r3, [r3, #8]
 8002650:	613b      	str	r3, [r7, #16]
 8002652:	697b      	ldr	r3, [r7, #20]
 8002654:	005b      	lsls	r3, r3, #1
 8002656:	2203      	movs	r2, #3
 8002658:	409a      	lsls	r2, r3
 800265a:	0013      	movs	r3, r2
 800265c:	43da      	mvns	r2, r3
 800265e:	693b      	ldr	r3, [r7, #16]
 8002660:	4013      	ands	r3, r2
 8002662:	613b      	str	r3, [r7, #16]
 8002664:	683b      	ldr	r3, [r7, #0]
 8002666:	68da      	ldr	r2, [r3, #12]
 8002668:	697b      	ldr	r3, [r7, #20]
 800266a:	005b      	lsls	r3, r3, #1
 800266c:	409a      	lsls	r2, r3
 800266e:	0013      	movs	r3, r2
 8002670:	693a      	ldr	r2, [r7, #16]
 8002672:	4313      	orrs	r3, r2
 8002674:	613b      	str	r3, [r7, #16]
 8002676:	687b      	ldr	r3, [r7, #4]
 8002678:	693a      	ldr	r2, [r7, #16]
 800267a:	609a      	str	r2, [r3, #8]
 800267c:	687b      	ldr	r3, [r7, #4]
 800267e:	685b      	ldr	r3, [r3, #4]
 8002680:	613b      	str	r3, [r7, #16]
 8002682:	2201      	movs	r2, #1
 8002684:	697b      	ldr	r3, [r7, #20]
 8002686:	409a      	lsls	r2, r3
 8002688:	0013      	movs	r3, r2
 800268a:	43da      	mvns	r2, r3
 800268c:	693b      	ldr	r3, [r7, #16]
 800268e:	4013      	ands	r3, r2
 8002690:	613b      	str	r3, [r7, #16]
 8002692:	683b      	ldr	r3, [r7, #0]
 8002694:	685b      	ldr	r3, [r3, #4]
 8002696:	091b      	lsrs	r3, r3, #4
 8002698:	2201      	movs	r2, #1
 800269a:	401a      	ands	r2, r3
 800269c:	697b      	ldr	r3, [r7, #20]
 800269e:	409a      	lsls	r2, r3
 80026a0:	0013      	movs	r3, r2
 80026a2:	693a      	ldr	r2, [r7, #16]
 80026a4:	4313      	orrs	r3, r2
 80026a6:	613b      	str	r3, [r7, #16]
 80026a8:	687b      	ldr	r3, [r7, #4]
 80026aa:	693a      	ldr	r2, [r7, #16]
 80026ac:	605a      	str	r2, [r3, #4]
 80026ae:	683b      	ldr	r3, [r7, #0]
 80026b0:	685b      	ldr	r3, [r3, #4]
 80026b2:	2203      	movs	r2, #3
 80026b4:	4013      	ands	r3, r2
 80026b6:	2b03      	cmp	r3, #3
 80026b8:	d017      	beq.n	80026ea <HAL_GPIO_Init+0xe6>
 80026ba:	687b      	ldr	r3, [r7, #4]
 80026bc:	68db      	ldr	r3, [r3, #12]
 80026be:	613b      	str	r3, [r7, #16]
 80026c0:	697b      	ldr	r3, [r7, #20]
 80026c2:	005b      	lsls	r3, r3, #1
 80026c4:	2203      	movs	r2, #3
 80026c6:	409a      	lsls	r2, r3
 80026c8:	0013      	movs	r3, r2
 80026ca:	43da      	mvns	r2, r3
 80026cc:	693b      	ldr	r3, [r7, #16]
 80026ce:	4013      	ands	r3, r2
 80026d0:	613b      	str	r3, [r7, #16]
 80026d2:	683b      	ldr	r3, [r7, #0]
 80026d4:	689a      	ldr	r2, [r3, #8]
 80026d6:	697b      	ldr	r3, [r7, #20]
 80026d8:	005b      	lsls	r3, r3, #1
 80026da:	409a      	lsls	r2, r3
 80026dc:	0013      	movs	r3, r2
 80026de:	693a      	ldr	r2, [r7, #16]
 80026e0:	4313      	orrs	r3, r2
 80026e2:	613b      	str	r3, [r7, #16]
 80026e4:	687b      	ldr	r3, [r7, #4]
 80026e6:	693a      	ldr	r2, [r7, #16]
 80026e8:	60da      	str	r2, [r3, #12]
 80026ea:	683b      	ldr	r3, [r7, #0]
 80026ec:	685b      	ldr	r3, [r3, #4]
 80026ee:	2203      	movs	r2, #3
 80026f0:	4013      	ands	r3, r2
 80026f2:	2b02      	cmp	r3, #2
 80026f4:	d123      	bne.n	800273e <HAL_GPIO_Init+0x13a>
 80026f6:	697b      	ldr	r3, [r7, #20]
 80026f8:	08da      	lsrs	r2, r3, #3
 80026fa:	687b      	ldr	r3, [r7, #4]
 80026fc:	3208      	adds	r2, #8
 80026fe:	0092      	lsls	r2, r2, #2
 8002700:	58d3      	ldr	r3, [r2, r3]
 8002702:	613b      	str	r3, [r7, #16]
 8002704:	697b      	ldr	r3, [r7, #20]
 8002706:	2207      	movs	r2, #7
 8002708:	4013      	ands	r3, r2
 800270a:	009b      	lsls	r3, r3, #2
 800270c:	220f      	movs	r2, #15
 800270e:	409a      	lsls	r2, r3
 8002710:	0013      	movs	r3, r2
 8002712:	43da      	mvns	r2, r3
 8002714:	693b      	ldr	r3, [r7, #16]
 8002716:	4013      	ands	r3, r2
 8002718:	613b      	str	r3, [r7, #16]
 800271a:	683b      	ldr	r3, [r7, #0]
 800271c:	691a      	ldr	r2, [r3, #16]
 800271e:	697b      	ldr	r3, [r7, #20]
 8002720:	2107      	movs	r1, #7
 8002722:	400b      	ands	r3, r1
 8002724:	009b      	lsls	r3, r3, #2
 8002726:	409a      	lsls	r2, r3
 8002728:	0013      	movs	r3, r2
 800272a:	693a      	ldr	r2, [r7, #16]
 800272c:	4313      	orrs	r3, r2
 800272e:	613b      	str	r3, [r7, #16]
 8002730:	697b      	ldr	r3, [r7, #20]
 8002732:	08da      	lsrs	r2, r3, #3
 8002734:	687b      	ldr	r3, [r7, #4]
 8002736:	3208      	adds	r2, #8
 8002738:	0092      	lsls	r2, r2, #2
 800273a:	6939      	ldr	r1, [r7, #16]
 800273c:	50d1      	str	r1, [r2, r3]
 800273e:	687b      	ldr	r3, [r7, #4]
 8002740:	681b      	ldr	r3, [r3, #0]
 8002742:	613b      	str	r3, [r7, #16]
 8002744:	697b      	ldr	r3, [r7, #20]
 8002746:	005b      	lsls	r3, r3, #1
 8002748:	2203      	movs	r2, #3
 800274a:	409a      	lsls	r2, r3
 800274c:	0013      	movs	r3, r2
 800274e:	43da      	mvns	r2, r3
 8002750:	693b      	ldr	r3, [r7, #16]
 8002752:	4013      	ands	r3, r2
 8002754:	613b      	str	r3, [r7, #16]
 8002756:	683b      	ldr	r3, [r7, #0]
 8002758:	685b      	ldr	r3, [r3, #4]
 800275a:	2203      	movs	r2, #3
 800275c:	401a      	ands	r2, r3
 800275e:	697b      	ldr	r3, [r7, #20]
 8002760:	005b      	lsls	r3, r3, #1
 8002762:	409a      	lsls	r2, r3
 8002764:	0013      	movs	r3, r2
 8002766:	693a      	ldr	r2, [r7, #16]
 8002768:	4313      	orrs	r3, r2
 800276a:	613b      	str	r3, [r7, #16]
 800276c:	687b      	ldr	r3, [r7, #4]
 800276e:	693a      	ldr	r2, [r7, #16]
 8002770:	601a      	str	r2, [r3, #0]
 8002772:	683b      	ldr	r3, [r7, #0]
 8002774:	685a      	ldr	r2, [r3, #4]
 8002776:	23c0      	movs	r3, #192	; 0xc0
 8002778:	029b      	lsls	r3, r3, #10
 800277a:	4013      	ands	r3, r2
 800277c:	d100      	bne.n	8002780 <HAL_GPIO_Init+0x17c>
 800277e:	e0a0      	b.n	80028c2 <HAL_GPIO_Init+0x2be>
 8002780:	4b57      	ldr	r3, [pc, #348]	; (80028e0 <HAL_GPIO_Init+0x2dc>)
 8002782:	6b5a      	ldr	r2, [r3, #52]	; 0x34
 8002784:	4b56      	ldr	r3, [pc, #344]	; (80028e0 <HAL_GPIO_Init+0x2dc>)
 8002786:	2101      	movs	r1, #1
 8002788:	430a      	orrs	r2, r1
 800278a:	635a      	str	r2, [r3, #52]	; 0x34
 800278c:	4a55      	ldr	r2, [pc, #340]	; (80028e4 <HAL_GPIO_Init+0x2e0>)
 800278e:	697b      	ldr	r3, [r7, #20]
 8002790:	089b      	lsrs	r3, r3, #2
 8002792:	3302      	adds	r3, #2
 8002794:	009b      	lsls	r3, r3, #2
 8002796:	589b      	ldr	r3, [r3, r2]
 8002798:	613b      	str	r3, [r7, #16]
 800279a:	697b      	ldr	r3, [r7, #20]
 800279c:	2203      	movs	r2, #3
 800279e:	4013      	ands	r3, r2
 80027a0:	009b      	lsls	r3, r3, #2
 80027a2:	220f      	movs	r2, #15
 80027a4:	409a      	lsls	r2, r3
 80027a6:	0013      	movs	r3, r2
 80027a8:	43da      	mvns	r2, r3
 80027aa:	693b      	ldr	r3, [r7, #16]
 80027ac:	4013      	ands	r3, r2
 80027ae:	613b      	str	r3, [r7, #16]
 80027b0:	687a      	ldr	r2, [r7, #4]
 80027b2:	23a0      	movs	r3, #160	; 0xa0
 80027b4:	05db      	lsls	r3, r3, #23
 80027b6:	429a      	cmp	r2, r3
 80027b8:	d01f      	beq.n	80027fa <HAL_GPIO_Init+0x1f6>
 80027ba:	687b      	ldr	r3, [r7, #4]
 80027bc:	4a4a      	ldr	r2, [pc, #296]	; (80028e8 <HAL_GPIO_Init+0x2e4>)
 80027be:	4293      	cmp	r3, r2
 80027c0:	d019      	beq.n	80027f6 <HAL_GPIO_Init+0x1f2>
 80027c2:	687b      	ldr	r3, [r7, #4]
 80027c4:	4a49      	ldr	r2, [pc, #292]	; (80028ec <HAL_GPIO_Init+0x2e8>)
 80027c6:	4293      	cmp	r3, r2
 80027c8:	d013      	beq.n	80027f2 <HAL_GPIO_Init+0x1ee>
 80027ca:	687b      	ldr	r3, [r7, #4]
 80027cc:	4a48      	ldr	r2, [pc, #288]	; (80028f0 <HAL_GPIO_Init+0x2ec>)
 80027ce:	4293      	cmp	r3, r2
 80027d0:	d00d      	beq.n	80027ee <HAL_GPIO_Init+0x1ea>
 80027d2:	687b      	ldr	r3, [r7, #4]
 80027d4:	4a47      	ldr	r2, [pc, #284]	; (80028f4 <HAL_GPIO_Init+0x2f0>)
 80027d6:	4293      	cmp	r3, r2
 80027d8:	d007      	beq.n	80027ea <HAL_GPIO_Init+0x1e6>
 80027da:	687b      	ldr	r3, [r7, #4]
 80027dc:	4a46      	ldr	r2, [pc, #280]	; (80028f8 <HAL_GPIO_Init+0x2f4>)
 80027de:	4293      	cmp	r3, r2
 80027e0:	d101      	bne.n	80027e6 <HAL_GPIO_Init+0x1e2>
 80027e2:	2305      	movs	r3, #5
 80027e4:	e00a      	b.n	80027fc <HAL_GPIO_Init+0x1f8>
 80027e6:	2306      	movs	r3, #6
 80027e8:	e008      	b.n	80027fc <HAL_GPIO_Init+0x1f8>
 80027ea:	2304      	movs	r3, #4
 80027ec:	e006      	b.n	80027fc <HAL_GPIO_Init+0x1f8>
 80027ee:	2303      	movs	r3, #3
 80027f0:	e004      	b.n	80027fc <HAL_GPIO_Init+0x1f8>
 80027f2:	2302      	movs	r3, #2
 80027f4:	e002      	b.n	80027fc <HAL_GPIO_Init+0x1f8>
 80027f6:	2301      	movs	r3, #1
 80027f8:	e000      	b.n	80027fc <HAL_GPIO_Init+0x1f8>
 80027fa:	2300      	movs	r3, #0
 80027fc:	697a      	ldr	r2, [r7, #20]
 80027fe:	2103      	movs	r1, #3
 8002800:	400a      	ands	r2, r1
 8002802:	0092      	lsls	r2, r2, #2
 8002804:	4093      	lsls	r3, r2
 8002806:	693a      	ldr	r2, [r7, #16]
 8002808:	4313      	orrs	r3, r2
 800280a:	613b      	str	r3, [r7, #16]
 800280c:	4935      	ldr	r1, [pc, #212]	; (80028e4 <HAL_GPIO_Init+0x2e0>)
 800280e:	697b      	ldr	r3, [r7, #20]
 8002810:	089b      	lsrs	r3, r3, #2
 8002812:	3302      	adds	r3, #2
 8002814:	009b      	lsls	r3, r3, #2
 8002816:	693a      	ldr	r2, [r7, #16]
 8002818:	505a      	str	r2, [r3, r1]
 800281a:	4b38      	ldr	r3, [pc, #224]	; (80028fc <HAL_GPIO_Init+0x2f8>)
 800281c:	681b      	ldr	r3, [r3, #0]
 800281e:	613b      	str	r3, [r7, #16]
 8002820:	68fb      	ldr	r3, [r7, #12]
 8002822:	43da      	mvns	r2, r3
 8002824:	693b      	ldr	r3, [r7, #16]
 8002826:	4013      	ands	r3, r2
 8002828:	613b      	str	r3, [r7, #16]
 800282a:	683b      	ldr	r3, [r7, #0]
 800282c:	685a      	ldr	r2, [r3, #4]
 800282e:	2380      	movs	r3, #128	; 0x80
 8002830:	025b      	lsls	r3, r3, #9
 8002832:	4013      	ands	r3, r2
 8002834:	d003      	beq.n	800283e <HAL_GPIO_Init+0x23a>
 8002836:	693a      	ldr	r2, [r7, #16]
 8002838:	68fb      	ldr	r3, [r7, #12]
 800283a:	4313      	orrs	r3, r2
 800283c:	613b      	str	r3, [r7, #16]
 800283e:	4b2f      	ldr	r3, [pc, #188]	; (80028fc <HAL_GPIO_Init+0x2f8>)
 8002840:	693a      	ldr	r2, [r7, #16]
 8002842:	601a      	str	r2, [r3, #0]
 8002844:	4b2d      	ldr	r3, [pc, #180]	; (80028fc <HAL_GPIO_Init+0x2f8>)
 8002846:	685b      	ldr	r3, [r3, #4]
 8002848:	613b      	str	r3, [r7, #16]
 800284a:	68fb      	ldr	r3, [r7, #12]
 800284c:	43da      	mvns	r2, r3
 800284e:	693b      	ldr	r3, [r7, #16]
 8002850:	4013      	ands	r3, r2
 8002852:	613b      	str	r3, [r7, #16]
 8002854:	683b      	ldr	r3, [r7, #0]
 8002856:	685a      	ldr	r2, [r3, #4]
 8002858:	2380      	movs	r3, #128	; 0x80
 800285a:	029b      	lsls	r3, r3, #10
 800285c:	4013      	ands	r3, r2
 800285e:	d003      	beq.n	8002868 <HAL_GPIO_Init+0x264>
 8002860:	693a      	ldr	r2, [r7, #16]
 8002862:	68fb      	ldr	r3, [r7, #12]
 8002864:	4313      	orrs	r3, r2
 8002866:	613b      	str	r3, [r7, #16]
 8002868:	4b24      	ldr	r3, [pc, #144]	; (80028fc <HAL_GPIO_Init+0x2f8>)
 800286a:	693a      	ldr	r2, [r7, #16]
 800286c:	605a      	str	r2, [r3, #4]
 800286e:	4b23      	ldr	r3, [pc, #140]	; (80028fc <HAL_GPIO_Init+0x2f8>)
 8002870:	689b      	ldr	r3, [r3, #8]
 8002872:	613b      	str	r3, [r7, #16]
 8002874:	68fb      	ldr	r3, [r7, #12]
 8002876:	43da      	mvns	r2, r3
 8002878:	693b      	ldr	r3, [r7, #16]
 800287a:	4013      	ands	r3, r2
 800287c:	613b      	str	r3, [r7, #16]
 800287e:	683b      	ldr	r3, [r7, #0]
 8002880:	685a      	ldr	r2, [r3, #4]
 8002882:	2380      	movs	r3, #128	; 0x80
 8002884:	035b      	lsls	r3, r3, #13
 8002886:	4013      	ands	r3, r2
 8002888:	d003      	beq.n	8002892 <HAL_GPIO_Init+0x28e>
 800288a:	693a      	ldr	r2, [r7, #16]
 800288c:	68fb      	ldr	r3, [r7, #12]
 800288e:	4313      	orrs	r3, r2
 8002890:	613b      	str	r3, [r7, #16]
 8002892:	4b1a      	ldr	r3, [pc, #104]	; (80028fc <HAL_GPIO_Init+0x2f8>)
 8002894:	693a      	ldr	r2, [r7, #16]
 8002896:	609a      	str	r2, [r3, #8]
 8002898:	4b18      	ldr	r3, [pc, #96]	; (80028fc <HAL_GPIO_Init+0x2f8>)
 800289a:	68db      	ldr	r3, [r3, #12]
 800289c:	613b      	str	r3, [r7, #16]
 800289e:	68fb      	ldr	r3, [r7, #12]
 80028a0:	43da      	mvns	r2, r3
 80028a2:	693b      	ldr	r3, [r7, #16]
 80028a4:	4013      	ands	r3, r2
 80028a6:	613b      	str	r3, [r7, #16]
 80028a8:	683b      	ldr	r3, [r7, #0]
 80028aa:	685a      	ldr	r2, [r3, #4]
 80028ac:	2380      	movs	r3, #128	; 0x80
 80028ae:	039b      	lsls	r3, r3, #14
 80028b0:	4013      	ands	r3, r2
 80028b2:	d003      	beq.n	80028bc <HAL_GPIO_Init+0x2b8>
 80028b4:	693a      	ldr	r2, [r7, #16]
 80028b6:	68fb      	ldr	r3, [r7, #12]
 80028b8:	4313      	orrs	r3, r2
 80028ba:	613b      	str	r3, [r7, #16]
 80028bc:	4b0f      	ldr	r3, [pc, #60]	; (80028fc <HAL_GPIO_Init+0x2f8>)
 80028be:	693a      	ldr	r2, [r7, #16]
 80028c0:	60da      	str	r2, [r3, #12]
 80028c2:	697b      	ldr	r3, [r7, #20]
 80028c4:	3301      	adds	r3, #1
 80028c6:	617b      	str	r3, [r7, #20]
 80028c8:	683b      	ldr	r3, [r7, #0]
 80028ca:	681a      	ldr	r2, [r3, #0]
 80028cc:	697b      	ldr	r3, [r7, #20]
 80028ce:	40da      	lsrs	r2, r3
 80028d0:	1e13      	subs	r3, r2, #0
 80028d2:	d000      	beq.n	80028d6 <HAL_GPIO_Init+0x2d2>
 80028d4:	e6a2      	b.n	800261c <HAL_GPIO_Init+0x18>
 80028d6:	46c0      	nop			; (mov r8, r8)
 80028d8:	46c0      	nop			; (mov r8, r8)
 80028da:	46bd      	mov	sp, r7
 80028dc:	b006      	add	sp, #24
 80028de:	bd80      	pop	{r7, pc}
 80028e0:	40021000 	.word	0x40021000
 80028e4:	40010000 	.word	0x40010000
 80028e8:	50000400 	.word	0x50000400
 80028ec:	50000800 	.word	0x50000800
 80028f0:	50000c00 	.word	0x50000c00
 80028f4:	50001000 	.word	0x50001000
 80028f8:	50001c00 	.word	0x50001c00
 80028fc:	40010400 	.word	0x40010400

08002900 <HAL_GPIO_ReadPin>:
 8002900:	b580      	push	{r7, lr}
 8002902:	b084      	sub	sp, #16
 8002904:	af00      	add	r7, sp, #0
 8002906:	6078      	str	r0, [r7, #4]
 8002908:	000a      	movs	r2, r1
 800290a:	1cbb      	adds	r3, r7, #2
 800290c:	801a      	strh	r2, [r3, #0]
 800290e:	687b      	ldr	r3, [r7, #4]
 8002910:	691b      	ldr	r3, [r3, #16]
 8002912:	1cba      	adds	r2, r7, #2
 8002914:	8812      	ldrh	r2, [r2, #0]
 8002916:	4013      	ands	r3, r2
 8002918:	d004      	beq.n	8002924 <HAL_GPIO_ReadPin+0x24>
 800291a:	230f      	movs	r3, #15
 800291c:	18fb      	adds	r3, r7, r3
 800291e:	2201      	movs	r2, #1
 8002920:	701a      	strb	r2, [r3, #0]
 8002922:	e003      	b.n	800292c <HAL_GPIO_ReadPin+0x2c>
 8002924:	230f      	movs	r3, #15
 8002926:	18fb      	adds	r3, r7, r3
 8002928:	2200      	movs	r2, #0
 800292a:	701a      	strb	r2, [r3, #0]
 800292c:	230f      	movs	r3, #15
 800292e:	18fb      	adds	r3, r7, r3
 8002930:	781b      	ldrb	r3, [r3, #0]
 8002932:	0018      	movs	r0, r3
 8002934:	46bd      	mov	sp, r7
 8002936:	b004      	add	sp, #16
 8002938:	bd80      	pop	{r7, pc}

0800293a <HAL_GPIO_WritePin>:
 800293a:	b580      	push	{r7, lr}
 800293c:	b082      	sub	sp, #8
 800293e:	af00      	add	r7, sp, #0
 8002940:	6078      	str	r0, [r7, #4]
 8002942:	0008      	movs	r0, r1
 8002944:	0011      	movs	r1, r2
 8002946:	1cbb      	adds	r3, r7, #2
 8002948:	1c02      	adds	r2, r0, #0
 800294a:	801a      	strh	r2, [r3, #0]
 800294c:	1c7b      	adds	r3, r7, #1
 800294e:	1c0a      	adds	r2, r1, #0
 8002950:	701a      	strb	r2, [r3, #0]
 8002952:	1c7b      	adds	r3, r7, #1
 8002954:	781b      	ldrb	r3, [r3, #0]
 8002956:	2b00      	cmp	r3, #0
 8002958:	d004      	beq.n	8002964 <HAL_GPIO_WritePin+0x2a>
 800295a:	1cbb      	adds	r3, r7, #2
 800295c:	881a      	ldrh	r2, [r3, #0]
 800295e:	687b      	ldr	r3, [r7, #4]
 8002960:	619a      	str	r2, [r3, #24]
 8002962:	e003      	b.n	800296c <HAL_GPIO_WritePin+0x32>
 8002964:	1cbb      	adds	r3, r7, #2
 8002966:	881a      	ldrh	r2, [r3, #0]
 8002968:	687b      	ldr	r3, [r7, #4]
 800296a:	629a      	str	r2, [r3, #40]	; 0x28
 800296c:	46c0      	nop			; (mov r8, r8)
 800296e:	46bd      	mov	sp, r7
 8002970:	b002      	add	sp, #8
 8002972:	bd80      	pop	{r7, pc}

08002974 <HAL_GPIO_TogglePin>:
 8002974:	b580      	push	{r7, lr}
 8002976:	b084      	sub	sp, #16
 8002978:	af00      	add	r7, sp, #0
 800297a:	6078      	str	r0, [r7, #4]
 800297c:	000a      	movs	r2, r1
 800297e:	1cbb      	adds	r3, r7, #2
 8002980:	801a      	strh	r2, [r3, #0]
 8002982:	687b      	ldr	r3, [r7, #4]
 8002984:	695b      	ldr	r3, [r3, #20]
 8002986:	60fb      	str	r3, [r7, #12]
 8002988:	1cbb      	adds	r3, r7, #2
 800298a:	881b      	ldrh	r3, [r3, #0]
 800298c:	68fa      	ldr	r2, [r7, #12]
 800298e:	4013      	ands	r3, r2
 8002990:	041a      	lsls	r2, r3, #16
 8002992:	68fb      	ldr	r3, [r7, #12]
 8002994:	43db      	mvns	r3, r3
 8002996:	1cb9      	adds	r1, r7, #2
 8002998:	8809      	ldrh	r1, [r1, #0]
 800299a:	400b      	ands	r3, r1
 800299c:	431a      	orrs	r2, r3
 800299e:	687b      	ldr	r3, [r7, #4]
 80029a0:	619a      	str	r2, [r3, #24]
 80029a2:	46c0      	nop			; (mov r8, r8)
 80029a4:	46bd      	mov	sp, r7
 80029a6:	b004      	add	sp, #16
 80029a8:	bd80      	pop	{r7, pc}
	...

080029ac <HAL_RCC_OscConfig>:
 80029ac:	b5b0      	push	{r4, r5, r7, lr}
 80029ae:	b08a      	sub	sp, #40	; 0x28
 80029b0:	af00      	add	r7, sp, #0
 80029b2:	6078      	str	r0, [r7, #4]
 80029b4:	687b      	ldr	r3, [r7, #4]
 80029b6:	2b00      	cmp	r3, #0
 80029b8:	d102      	bne.n	80029c0 <HAL_RCC_OscConfig+0x14>
 80029ba:	2301      	movs	r3, #1
 80029bc:	f000 fbbf 	bl	800313e <HAL_RCC_OscConfig+0x792>
 80029c0:	4bc9      	ldr	r3, [pc, #804]	; (8002ce8 <HAL_RCC_OscConfig+0x33c>)
 80029c2:	68db      	ldr	r3, [r3, #12]
 80029c4:	220c      	movs	r2, #12
 80029c6:	4013      	ands	r3, r2
 80029c8:	61fb      	str	r3, [r7, #28]
 80029ca:	4bc7      	ldr	r3, [pc, #796]	; (8002ce8 <HAL_RCC_OscConfig+0x33c>)
 80029cc:	68da      	ldr	r2, [r3, #12]
 80029ce:	2380      	movs	r3, #128	; 0x80
 80029d0:	025b      	lsls	r3, r3, #9
 80029d2:	4013      	ands	r3, r2
 80029d4:	61bb      	str	r3, [r7, #24]
 80029d6:	687b      	ldr	r3, [r7, #4]
 80029d8:	681b      	ldr	r3, [r3, #0]
 80029da:	2201      	movs	r2, #1
 80029dc:	4013      	ands	r3, r2
 80029de:	d100      	bne.n	80029e2 <HAL_RCC_OscConfig+0x36>
 80029e0:	e07e      	b.n	8002ae0 <HAL_RCC_OscConfig+0x134>
 80029e2:	69fb      	ldr	r3, [r7, #28]
 80029e4:	2b08      	cmp	r3, #8
 80029e6:	d007      	beq.n	80029f8 <HAL_RCC_OscConfig+0x4c>
 80029e8:	69fb      	ldr	r3, [r7, #28]
 80029ea:	2b0c      	cmp	r3, #12
 80029ec:	d112      	bne.n	8002a14 <HAL_RCC_OscConfig+0x68>
 80029ee:	69ba      	ldr	r2, [r7, #24]
 80029f0:	2380      	movs	r3, #128	; 0x80
 80029f2:	025b      	lsls	r3, r3, #9
 80029f4:	429a      	cmp	r2, r3
 80029f6:	d10d      	bne.n	8002a14 <HAL_RCC_OscConfig+0x68>
 80029f8:	4bbb      	ldr	r3, [pc, #748]	; (8002ce8 <HAL_RCC_OscConfig+0x33c>)
 80029fa:	681a      	ldr	r2, [r3, #0]
 80029fc:	2380      	movs	r3, #128	; 0x80
 80029fe:	029b      	lsls	r3, r3, #10
 8002a00:	4013      	ands	r3, r2
 8002a02:	d100      	bne.n	8002a06 <HAL_RCC_OscConfig+0x5a>
 8002a04:	e06b      	b.n	8002ade <HAL_RCC_OscConfig+0x132>
 8002a06:	687b      	ldr	r3, [r7, #4]
 8002a08:	685b      	ldr	r3, [r3, #4]
 8002a0a:	2b00      	cmp	r3, #0
 8002a0c:	d167      	bne.n	8002ade <HAL_RCC_OscConfig+0x132>
 8002a0e:	2301      	movs	r3, #1
 8002a10:	f000 fb95 	bl	800313e <HAL_RCC_OscConfig+0x792>
 8002a14:	687b      	ldr	r3, [r7, #4]
 8002a16:	685a      	ldr	r2, [r3, #4]
 8002a18:	2380      	movs	r3, #128	; 0x80
 8002a1a:	025b      	lsls	r3, r3, #9
 8002a1c:	429a      	cmp	r2, r3
 8002a1e:	d107      	bne.n	8002a30 <HAL_RCC_OscConfig+0x84>
 8002a20:	4bb1      	ldr	r3, [pc, #708]	; (8002ce8 <HAL_RCC_OscConfig+0x33c>)
 8002a22:	681a      	ldr	r2, [r3, #0]
 8002a24:	4bb0      	ldr	r3, [pc, #704]	; (8002ce8 <HAL_RCC_OscConfig+0x33c>)
 8002a26:	2180      	movs	r1, #128	; 0x80
 8002a28:	0249      	lsls	r1, r1, #9
 8002a2a:	430a      	orrs	r2, r1
 8002a2c:	601a      	str	r2, [r3, #0]
 8002a2e:	e027      	b.n	8002a80 <HAL_RCC_OscConfig+0xd4>
 8002a30:	687b      	ldr	r3, [r7, #4]
 8002a32:	685a      	ldr	r2, [r3, #4]
 8002a34:	23a0      	movs	r3, #160	; 0xa0
 8002a36:	02db      	lsls	r3, r3, #11
 8002a38:	429a      	cmp	r2, r3
 8002a3a:	d10e      	bne.n	8002a5a <HAL_RCC_OscConfig+0xae>
 8002a3c:	4baa      	ldr	r3, [pc, #680]	; (8002ce8 <HAL_RCC_OscConfig+0x33c>)
 8002a3e:	681a      	ldr	r2, [r3, #0]
 8002a40:	4ba9      	ldr	r3, [pc, #676]	; (8002ce8 <HAL_RCC_OscConfig+0x33c>)
 8002a42:	2180      	movs	r1, #128	; 0x80
 8002a44:	02c9      	lsls	r1, r1, #11
 8002a46:	430a      	orrs	r2, r1
 8002a48:	601a      	str	r2, [r3, #0]
 8002a4a:	4ba7      	ldr	r3, [pc, #668]	; (8002ce8 <HAL_RCC_OscConfig+0x33c>)
 8002a4c:	681a      	ldr	r2, [r3, #0]
 8002a4e:	4ba6      	ldr	r3, [pc, #664]	; (8002ce8 <HAL_RCC_OscConfig+0x33c>)
 8002a50:	2180      	movs	r1, #128	; 0x80
 8002a52:	0249      	lsls	r1, r1, #9
 8002a54:	430a      	orrs	r2, r1
 8002a56:	601a      	str	r2, [r3, #0]
 8002a58:	e012      	b.n	8002a80 <HAL_RCC_OscConfig+0xd4>
 8002a5a:	4ba3      	ldr	r3, [pc, #652]	; (8002ce8 <HAL_RCC_OscConfig+0x33c>)
 8002a5c:	681a      	ldr	r2, [r3, #0]
 8002a5e:	4ba2      	ldr	r3, [pc, #648]	; (8002ce8 <HAL_RCC_OscConfig+0x33c>)
 8002a60:	49a2      	ldr	r1, [pc, #648]	; (8002cec <HAL_RCC_OscConfig+0x340>)
 8002a62:	400a      	ands	r2, r1
 8002a64:	601a      	str	r2, [r3, #0]
 8002a66:	4ba0      	ldr	r3, [pc, #640]	; (8002ce8 <HAL_RCC_OscConfig+0x33c>)
 8002a68:	681a      	ldr	r2, [r3, #0]
 8002a6a:	2380      	movs	r3, #128	; 0x80
 8002a6c:	025b      	lsls	r3, r3, #9
 8002a6e:	4013      	ands	r3, r2
 8002a70:	60fb      	str	r3, [r7, #12]
 8002a72:	68fb      	ldr	r3, [r7, #12]
 8002a74:	4b9c      	ldr	r3, [pc, #624]	; (8002ce8 <HAL_RCC_OscConfig+0x33c>)
 8002a76:	681a      	ldr	r2, [r3, #0]
 8002a78:	4b9b      	ldr	r3, [pc, #620]	; (8002ce8 <HAL_RCC_OscConfig+0x33c>)
 8002a7a:	499d      	ldr	r1, [pc, #628]	; (8002cf0 <HAL_RCC_OscConfig+0x344>)
 8002a7c:	400a      	ands	r2, r1
 8002a7e:	601a      	str	r2, [r3, #0]
 8002a80:	687b      	ldr	r3, [r7, #4]
 8002a82:	685b      	ldr	r3, [r3, #4]
 8002a84:	2b00      	cmp	r3, #0
 8002a86:	d015      	beq.n	8002ab4 <HAL_RCC_OscConfig+0x108>
 8002a88:	f7ff fc28 	bl	80022dc <HAL_GetTick>
 8002a8c:	0003      	movs	r3, r0
 8002a8e:	617b      	str	r3, [r7, #20]
 8002a90:	e009      	b.n	8002aa6 <HAL_RCC_OscConfig+0xfa>
 8002a92:	f7ff fc23 	bl	80022dc <HAL_GetTick>
 8002a96:	0002      	movs	r2, r0
 8002a98:	697b      	ldr	r3, [r7, #20]
 8002a9a:	1ad3      	subs	r3, r2, r3
 8002a9c:	2b64      	cmp	r3, #100	; 0x64
 8002a9e:	d902      	bls.n	8002aa6 <HAL_RCC_OscConfig+0xfa>
 8002aa0:	2303      	movs	r3, #3
 8002aa2:	f000 fb4c 	bl	800313e <HAL_RCC_OscConfig+0x792>
 8002aa6:	4b90      	ldr	r3, [pc, #576]	; (8002ce8 <HAL_RCC_OscConfig+0x33c>)
 8002aa8:	681a      	ldr	r2, [r3, #0]
 8002aaa:	2380      	movs	r3, #128	; 0x80
 8002aac:	029b      	lsls	r3, r3, #10
 8002aae:	4013      	ands	r3, r2
 8002ab0:	d0ef      	beq.n	8002a92 <HAL_RCC_OscConfig+0xe6>
 8002ab2:	e015      	b.n	8002ae0 <HAL_RCC_OscConfig+0x134>
 8002ab4:	f7ff fc12 	bl	80022dc <HAL_GetTick>
 8002ab8:	0003      	movs	r3, r0
 8002aba:	617b      	str	r3, [r7, #20]
 8002abc:	e008      	b.n	8002ad0 <HAL_RCC_OscConfig+0x124>
 8002abe:	f7ff fc0d 	bl	80022dc <HAL_GetTick>
 8002ac2:	0002      	movs	r2, r0
 8002ac4:	697b      	ldr	r3, [r7, #20]
 8002ac6:	1ad3      	subs	r3, r2, r3
 8002ac8:	2b64      	cmp	r3, #100	; 0x64
 8002aca:	d901      	bls.n	8002ad0 <HAL_RCC_OscConfig+0x124>
 8002acc:	2303      	movs	r3, #3
 8002ace:	e336      	b.n	800313e <HAL_RCC_OscConfig+0x792>
 8002ad0:	4b85      	ldr	r3, [pc, #532]	; (8002ce8 <HAL_RCC_OscConfig+0x33c>)
 8002ad2:	681a      	ldr	r2, [r3, #0]
 8002ad4:	2380      	movs	r3, #128	; 0x80
 8002ad6:	029b      	lsls	r3, r3, #10
 8002ad8:	4013      	ands	r3, r2
 8002ada:	d1f0      	bne.n	8002abe <HAL_RCC_OscConfig+0x112>
 8002adc:	e000      	b.n	8002ae0 <HAL_RCC_OscConfig+0x134>
 8002ade:	46c0      	nop			; (mov r8, r8)
 8002ae0:	687b      	ldr	r3, [r7, #4]
 8002ae2:	681b      	ldr	r3, [r3, #0]
 8002ae4:	2202      	movs	r2, #2
 8002ae6:	4013      	ands	r3, r2
 8002ae8:	d100      	bne.n	8002aec <HAL_RCC_OscConfig+0x140>
 8002aea:	e099      	b.n	8002c20 <HAL_RCC_OscConfig+0x274>
 8002aec:	687b      	ldr	r3, [r7, #4]
 8002aee:	68db      	ldr	r3, [r3, #12]
 8002af0:	627b      	str	r3, [r7, #36]	; 0x24
 8002af2:	6a7b      	ldr	r3, [r7, #36]	; 0x24
 8002af4:	2220      	movs	r2, #32
 8002af6:	4013      	ands	r3, r2
 8002af8:	d009      	beq.n	8002b0e <HAL_RCC_OscConfig+0x162>
 8002afa:	4b7b      	ldr	r3, [pc, #492]	; (8002ce8 <HAL_RCC_OscConfig+0x33c>)
 8002afc:	681a      	ldr	r2, [r3, #0]
 8002afe:	4b7a      	ldr	r3, [pc, #488]	; (8002ce8 <HAL_RCC_OscConfig+0x33c>)
 8002b00:	2120      	movs	r1, #32
 8002b02:	430a      	orrs	r2, r1
 8002b04:	601a      	str	r2, [r3, #0]
 8002b06:	6a7b      	ldr	r3, [r7, #36]	; 0x24
 8002b08:	2220      	movs	r2, #32
 8002b0a:	4393      	bics	r3, r2
 8002b0c:	627b      	str	r3, [r7, #36]	; 0x24
 8002b0e:	69fb      	ldr	r3, [r7, #28]
 8002b10:	2b04      	cmp	r3, #4
 8002b12:	d005      	beq.n	8002b20 <HAL_RCC_OscConfig+0x174>
 8002b14:	69fb      	ldr	r3, [r7, #28]
 8002b16:	2b0c      	cmp	r3, #12
 8002b18:	d13e      	bne.n	8002b98 <HAL_RCC_OscConfig+0x1ec>
 8002b1a:	69bb      	ldr	r3, [r7, #24]
 8002b1c:	2b00      	cmp	r3, #0
 8002b1e:	d13b      	bne.n	8002b98 <HAL_RCC_OscConfig+0x1ec>
 8002b20:	4b71      	ldr	r3, [pc, #452]	; (8002ce8 <HAL_RCC_OscConfig+0x33c>)
 8002b22:	681b      	ldr	r3, [r3, #0]
 8002b24:	2204      	movs	r2, #4
 8002b26:	4013      	ands	r3, r2
 8002b28:	d004      	beq.n	8002b34 <HAL_RCC_OscConfig+0x188>
 8002b2a:	6a7b      	ldr	r3, [r7, #36]	; 0x24
 8002b2c:	2b00      	cmp	r3, #0
 8002b2e:	d101      	bne.n	8002b34 <HAL_RCC_OscConfig+0x188>
 8002b30:	2301      	movs	r3, #1
 8002b32:	e304      	b.n	800313e <HAL_RCC_OscConfig+0x792>
 8002b34:	4b6c      	ldr	r3, [pc, #432]	; (8002ce8 <HAL_RCC_OscConfig+0x33c>)
 8002b36:	685b      	ldr	r3, [r3, #4]
 8002b38:	4a6e      	ldr	r2, [pc, #440]	; (8002cf4 <HAL_RCC_OscConfig+0x348>)
 8002b3a:	4013      	ands	r3, r2
 8002b3c:	0019      	movs	r1, r3
 8002b3e:	687b      	ldr	r3, [r7, #4]
 8002b40:	691b      	ldr	r3, [r3, #16]
 8002b42:	021a      	lsls	r2, r3, #8
 8002b44:	4b68      	ldr	r3, [pc, #416]	; (8002ce8 <HAL_RCC_OscConfig+0x33c>)
 8002b46:	430a      	orrs	r2, r1
 8002b48:	605a      	str	r2, [r3, #4]
 8002b4a:	4b67      	ldr	r3, [pc, #412]	; (8002ce8 <HAL_RCC_OscConfig+0x33c>)
 8002b4c:	681b      	ldr	r3, [r3, #0]
 8002b4e:	2209      	movs	r2, #9
 8002b50:	4393      	bics	r3, r2
 8002b52:	0019      	movs	r1, r3
 8002b54:	4b64      	ldr	r3, [pc, #400]	; (8002ce8 <HAL_RCC_OscConfig+0x33c>)
 8002b56:	6a7a      	ldr	r2, [r7, #36]	; 0x24
 8002b58:	430a      	orrs	r2, r1
 8002b5a:	601a      	str	r2, [r3, #0]
 8002b5c:	f000 fc42 	bl	80033e4 <HAL_RCC_GetSysClockFreq>
 8002b60:	0001      	movs	r1, r0
 8002b62:	4b61      	ldr	r3, [pc, #388]	; (8002ce8 <HAL_RCC_OscConfig+0x33c>)
 8002b64:	68db      	ldr	r3, [r3, #12]
 8002b66:	091b      	lsrs	r3, r3, #4
 8002b68:	220f      	movs	r2, #15
 8002b6a:	4013      	ands	r3, r2
 8002b6c:	4a62      	ldr	r2, [pc, #392]	; (8002cf8 <HAL_RCC_OscConfig+0x34c>)
 8002b6e:	5cd3      	ldrb	r3, [r2, r3]
 8002b70:	000a      	movs	r2, r1
 8002b72:	40da      	lsrs	r2, r3
 8002b74:	4b61      	ldr	r3, [pc, #388]	; (8002cfc <HAL_RCC_OscConfig+0x350>)
 8002b76:	601a      	str	r2, [r3, #0]
 8002b78:	4b61      	ldr	r3, [pc, #388]	; (8002d00 <HAL_RCC_OscConfig+0x354>)
 8002b7a:	681b      	ldr	r3, [r3, #0]
 8002b7c:	2513      	movs	r5, #19
 8002b7e:	197c      	adds	r4, r7, r5
 8002b80:	0018      	movs	r0, r3
 8002b82:	f7ff fb65 	bl	8002250 <HAL_InitTick>
 8002b86:	0003      	movs	r3, r0
 8002b88:	7023      	strb	r3, [r4, #0]
 8002b8a:	197b      	adds	r3, r7, r5
 8002b8c:	781b      	ldrb	r3, [r3, #0]
 8002b8e:	2b00      	cmp	r3, #0
 8002b90:	d046      	beq.n	8002c20 <HAL_RCC_OscConfig+0x274>
 8002b92:	197b      	adds	r3, r7, r5
 8002b94:	781b      	ldrb	r3, [r3, #0]
 8002b96:	e2d2      	b.n	800313e <HAL_RCC_OscConfig+0x792>
 8002b98:	6a7b      	ldr	r3, [r7, #36]	; 0x24
 8002b9a:	2b00      	cmp	r3, #0
 8002b9c:	d027      	beq.n	8002bee <HAL_RCC_OscConfig+0x242>
 8002b9e:	4b52      	ldr	r3, [pc, #328]	; (8002ce8 <HAL_RCC_OscConfig+0x33c>)
 8002ba0:	681b      	ldr	r3, [r3, #0]
 8002ba2:	2209      	movs	r2, #9
 8002ba4:	4393      	bics	r3, r2
 8002ba6:	0019      	movs	r1, r3
 8002ba8:	4b4f      	ldr	r3, [pc, #316]	; (8002ce8 <HAL_RCC_OscConfig+0x33c>)
 8002baa:	6a7a      	ldr	r2, [r7, #36]	; 0x24
 8002bac:	430a      	orrs	r2, r1
 8002bae:	601a      	str	r2, [r3, #0]
 8002bb0:	f7ff fb94 	bl	80022dc <HAL_GetTick>
 8002bb4:	0003      	movs	r3, r0
 8002bb6:	617b      	str	r3, [r7, #20]
 8002bb8:	e008      	b.n	8002bcc <HAL_RCC_OscConfig+0x220>
 8002bba:	f7ff fb8f 	bl	80022dc <HAL_GetTick>
 8002bbe:	0002      	movs	r2, r0
 8002bc0:	697b      	ldr	r3, [r7, #20]
 8002bc2:	1ad3      	subs	r3, r2, r3
 8002bc4:	2b02      	cmp	r3, #2
 8002bc6:	d901      	bls.n	8002bcc <HAL_RCC_OscConfig+0x220>
 8002bc8:	2303      	movs	r3, #3
 8002bca:	e2b8      	b.n	800313e <HAL_RCC_OscConfig+0x792>
 8002bcc:	4b46      	ldr	r3, [pc, #280]	; (8002ce8 <HAL_RCC_OscConfig+0x33c>)
 8002bce:	681b      	ldr	r3, [r3, #0]
 8002bd0:	2204      	movs	r2, #4
 8002bd2:	4013      	ands	r3, r2
 8002bd4:	d0f1      	beq.n	8002bba <HAL_RCC_OscConfig+0x20e>
 8002bd6:	4b44      	ldr	r3, [pc, #272]	; (8002ce8 <HAL_RCC_OscConfig+0x33c>)
 8002bd8:	685b      	ldr	r3, [r3, #4]
 8002bda:	4a46      	ldr	r2, [pc, #280]	; (8002cf4 <HAL_RCC_OscConfig+0x348>)
 8002bdc:	4013      	ands	r3, r2
 8002bde:	0019      	movs	r1, r3
 8002be0:	687b      	ldr	r3, [r7, #4]
 8002be2:	691b      	ldr	r3, [r3, #16]
 8002be4:	021a      	lsls	r2, r3, #8
 8002be6:	4b40      	ldr	r3, [pc, #256]	; (8002ce8 <HAL_RCC_OscConfig+0x33c>)
 8002be8:	430a      	orrs	r2, r1
 8002bea:	605a      	str	r2, [r3, #4]
 8002bec:	e018      	b.n	8002c20 <HAL_RCC_OscConfig+0x274>
 8002bee:	4b3e      	ldr	r3, [pc, #248]	; (8002ce8 <HAL_RCC_OscConfig+0x33c>)
 8002bf0:	681a      	ldr	r2, [r3, #0]
 8002bf2:	4b3d      	ldr	r3, [pc, #244]	; (8002ce8 <HAL_RCC_OscConfig+0x33c>)
 8002bf4:	2101      	movs	r1, #1
 8002bf6:	438a      	bics	r2, r1
 8002bf8:	601a      	str	r2, [r3, #0]
 8002bfa:	f7ff fb6f 	bl	80022dc <HAL_GetTick>
 8002bfe:	0003      	movs	r3, r0
 8002c00:	617b      	str	r3, [r7, #20]
 8002c02:	e008      	b.n	8002c16 <HAL_RCC_OscConfig+0x26a>
 8002c04:	f7ff fb6a 	bl	80022dc <HAL_GetTick>
 8002c08:	0002      	movs	r2, r0
 8002c0a:	697b      	ldr	r3, [r7, #20]
 8002c0c:	1ad3      	subs	r3, r2, r3
 8002c0e:	2b02      	cmp	r3, #2
 8002c10:	d901      	bls.n	8002c16 <HAL_RCC_OscConfig+0x26a>
 8002c12:	2303      	movs	r3, #3
 8002c14:	e293      	b.n	800313e <HAL_RCC_OscConfig+0x792>
 8002c16:	4b34      	ldr	r3, [pc, #208]	; (8002ce8 <HAL_RCC_OscConfig+0x33c>)
 8002c18:	681b      	ldr	r3, [r3, #0]
 8002c1a:	2204      	movs	r2, #4
 8002c1c:	4013      	ands	r3, r2
 8002c1e:	d1f1      	bne.n	8002c04 <HAL_RCC_OscConfig+0x258>
 8002c20:	687b      	ldr	r3, [r7, #4]
 8002c22:	681b      	ldr	r3, [r3, #0]
 8002c24:	2210      	movs	r2, #16
 8002c26:	4013      	ands	r3, r2
 8002c28:	d100      	bne.n	8002c2c <HAL_RCC_OscConfig+0x280>
 8002c2a:	e0a2      	b.n	8002d72 <HAL_RCC_OscConfig+0x3c6>
 8002c2c:	69fb      	ldr	r3, [r7, #28]
 8002c2e:	2b00      	cmp	r3, #0
 8002c30:	d140      	bne.n	8002cb4 <HAL_RCC_OscConfig+0x308>
 8002c32:	4b2d      	ldr	r3, [pc, #180]	; (8002ce8 <HAL_RCC_OscConfig+0x33c>)
 8002c34:	681a      	ldr	r2, [r3, #0]
 8002c36:	2380      	movs	r3, #128	; 0x80
 8002c38:	009b      	lsls	r3, r3, #2
 8002c3a:	4013      	ands	r3, r2
 8002c3c:	d005      	beq.n	8002c4a <HAL_RCC_OscConfig+0x29e>
 8002c3e:	687b      	ldr	r3, [r7, #4]
 8002c40:	69db      	ldr	r3, [r3, #28]
 8002c42:	2b00      	cmp	r3, #0
 8002c44:	d101      	bne.n	8002c4a <HAL_RCC_OscConfig+0x29e>
 8002c46:	2301      	movs	r3, #1
 8002c48:	e279      	b.n	800313e <HAL_RCC_OscConfig+0x792>
 8002c4a:	4b27      	ldr	r3, [pc, #156]	; (8002ce8 <HAL_RCC_OscConfig+0x33c>)
 8002c4c:	685b      	ldr	r3, [r3, #4]
 8002c4e:	4a2d      	ldr	r2, [pc, #180]	; (8002d04 <HAL_RCC_OscConfig+0x358>)
 8002c50:	4013      	ands	r3, r2
 8002c52:	0019      	movs	r1, r3
 8002c54:	687b      	ldr	r3, [r7, #4]
 8002c56:	6a5a      	ldr	r2, [r3, #36]	; 0x24
 8002c58:	4b23      	ldr	r3, [pc, #140]	; (8002ce8 <HAL_RCC_OscConfig+0x33c>)
 8002c5a:	430a      	orrs	r2, r1
 8002c5c:	605a      	str	r2, [r3, #4]
 8002c5e:	4b22      	ldr	r3, [pc, #136]	; (8002ce8 <HAL_RCC_OscConfig+0x33c>)
 8002c60:	685b      	ldr	r3, [r3, #4]
 8002c62:	021b      	lsls	r3, r3, #8
 8002c64:	0a19      	lsrs	r1, r3, #8
 8002c66:	687b      	ldr	r3, [r7, #4]
 8002c68:	6a1b      	ldr	r3, [r3, #32]
 8002c6a:	061a      	lsls	r2, r3, #24
 8002c6c:	4b1e      	ldr	r3, [pc, #120]	; (8002ce8 <HAL_RCC_OscConfig+0x33c>)
 8002c6e:	430a      	orrs	r2, r1
 8002c70:	605a      	str	r2, [r3, #4]
 8002c72:	687b      	ldr	r3, [r7, #4]
 8002c74:	6a5b      	ldr	r3, [r3, #36]	; 0x24
 8002c76:	0b5b      	lsrs	r3, r3, #13
 8002c78:	3301      	adds	r3, #1
 8002c7a:	2280      	movs	r2, #128	; 0x80
 8002c7c:	0212      	lsls	r2, r2, #8
 8002c7e:	409a      	lsls	r2, r3
 8002c80:	4b19      	ldr	r3, [pc, #100]	; (8002ce8 <HAL_RCC_OscConfig+0x33c>)
 8002c82:	68db      	ldr	r3, [r3, #12]
 8002c84:	091b      	lsrs	r3, r3, #4
 8002c86:	210f      	movs	r1, #15
 8002c88:	400b      	ands	r3, r1
 8002c8a:	491b      	ldr	r1, [pc, #108]	; (8002cf8 <HAL_RCC_OscConfig+0x34c>)
 8002c8c:	5ccb      	ldrb	r3, [r1, r3]
 8002c8e:	40da      	lsrs	r2, r3
 8002c90:	4b1a      	ldr	r3, [pc, #104]	; (8002cfc <HAL_RCC_OscConfig+0x350>)
 8002c92:	601a      	str	r2, [r3, #0]
 8002c94:	4b1a      	ldr	r3, [pc, #104]	; (8002d00 <HAL_RCC_OscConfig+0x354>)
 8002c96:	681b      	ldr	r3, [r3, #0]
 8002c98:	2513      	movs	r5, #19
 8002c9a:	197c      	adds	r4, r7, r5
 8002c9c:	0018      	movs	r0, r3
 8002c9e:	f7ff fad7 	bl	8002250 <HAL_InitTick>
 8002ca2:	0003      	movs	r3, r0
 8002ca4:	7023      	strb	r3, [r4, #0]
 8002ca6:	197b      	adds	r3, r7, r5
 8002ca8:	781b      	ldrb	r3, [r3, #0]
 8002caa:	2b00      	cmp	r3, #0
 8002cac:	d061      	beq.n	8002d72 <HAL_RCC_OscConfig+0x3c6>
 8002cae:	197b      	adds	r3, r7, r5
 8002cb0:	781b      	ldrb	r3, [r3, #0]
 8002cb2:	e244      	b.n	800313e <HAL_RCC_OscConfig+0x792>
 8002cb4:	687b      	ldr	r3, [r7, #4]
 8002cb6:	69db      	ldr	r3, [r3, #28]
 8002cb8:	2b00      	cmp	r3, #0
 8002cba:	d040      	beq.n	8002d3e <HAL_RCC_OscConfig+0x392>
 8002cbc:	4b0a      	ldr	r3, [pc, #40]	; (8002ce8 <HAL_RCC_OscConfig+0x33c>)
 8002cbe:	681a      	ldr	r2, [r3, #0]
 8002cc0:	4b09      	ldr	r3, [pc, #36]	; (8002ce8 <HAL_RCC_OscConfig+0x33c>)
 8002cc2:	2180      	movs	r1, #128	; 0x80
 8002cc4:	0049      	lsls	r1, r1, #1
 8002cc6:	430a      	orrs	r2, r1
 8002cc8:	601a      	str	r2, [r3, #0]
 8002cca:	f7ff fb07 	bl	80022dc <HAL_GetTick>
 8002cce:	0003      	movs	r3, r0
 8002cd0:	617b      	str	r3, [r7, #20]
 8002cd2:	e019      	b.n	8002d08 <HAL_RCC_OscConfig+0x35c>
 8002cd4:	f7ff fb02 	bl	80022dc <HAL_GetTick>
 8002cd8:	0002      	movs	r2, r0
 8002cda:	697b      	ldr	r3, [r7, #20]
 8002cdc:	1ad3      	subs	r3, r2, r3
 8002cde:	2b02      	cmp	r3, #2
 8002ce0:	d912      	bls.n	8002d08 <HAL_RCC_OscConfig+0x35c>
 8002ce2:	2303      	movs	r3, #3
 8002ce4:	e22b      	b.n	800313e <HAL_RCC_OscConfig+0x792>
 8002ce6:	46c0      	nop			; (mov r8, r8)
 8002ce8:	40021000 	.word	0x40021000
 8002cec:	fffeffff 	.word	0xfffeffff
 8002cf0:	fffbffff 	.word	0xfffbffff
 8002cf4:	ffffe0ff 	.word	0xffffe0ff
 8002cf8:	08006bf8 	.word	0x08006bf8
 8002cfc:	2000027c 	.word	0x2000027c
 8002d00:	20000280 	.word	0x20000280
 8002d04:	ffff1fff 	.word	0xffff1fff
 8002d08:	4bca      	ldr	r3, [pc, #808]	; (8003034 <HAL_RCC_OscConfig+0x688>)
 8002d0a:	681a      	ldr	r2, [r3, #0]
 8002d0c:	2380      	movs	r3, #128	; 0x80
 8002d0e:	009b      	lsls	r3, r3, #2
 8002d10:	4013      	ands	r3, r2
 8002d12:	d0df      	beq.n	8002cd4 <HAL_RCC_OscConfig+0x328>
 8002d14:	4bc7      	ldr	r3, [pc, #796]	; (8003034 <HAL_RCC_OscConfig+0x688>)
 8002d16:	685b      	ldr	r3, [r3, #4]
 8002d18:	4ac7      	ldr	r2, [pc, #796]	; (8003038 <HAL_RCC_OscConfig+0x68c>)
 8002d1a:	4013      	ands	r3, r2
 8002d1c:	0019      	movs	r1, r3
 8002d1e:	687b      	ldr	r3, [r7, #4]
 8002d20:	6a5a      	ldr	r2, [r3, #36]	; 0x24
 8002d22:	4bc4      	ldr	r3, [pc, #784]	; (8003034 <HAL_RCC_OscConfig+0x688>)
 8002d24:	430a      	orrs	r2, r1
 8002d26:	605a      	str	r2, [r3, #4]
 8002d28:	4bc2      	ldr	r3, [pc, #776]	; (8003034 <HAL_RCC_OscConfig+0x688>)
 8002d2a:	685b      	ldr	r3, [r3, #4]
 8002d2c:	021b      	lsls	r3, r3, #8
 8002d2e:	0a19      	lsrs	r1, r3, #8
 8002d30:	687b      	ldr	r3, [r7, #4]
 8002d32:	6a1b      	ldr	r3, [r3, #32]
 8002d34:	061a      	lsls	r2, r3, #24
 8002d36:	4bbf      	ldr	r3, [pc, #764]	; (8003034 <HAL_RCC_OscConfig+0x688>)
 8002d38:	430a      	orrs	r2, r1
 8002d3a:	605a      	str	r2, [r3, #4]
 8002d3c:	e019      	b.n	8002d72 <HAL_RCC_OscConfig+0x3c6>
 8002d3e:	4bbd      	ldr	r3, [pc, #756]	; (8003034 <HAL_RCC_OscConfig+0x688>)
 8002d40:	681a      	ldr	r2, [r3, #0]
 8002d42:	4bbc      	ldr	r3, [pc, #752]	; (8003034 <HAL_RCC_OscConfig+0x688>)
 8002d44:	49bd      	ldr	r1, [pc, #756]	; (800303c <HAL_RCC_OscConfig+0x690>)
 8002d46:	400a      	ands	r2, r1
 8002d48:	601a      	str	r2, [r3, #0]
 8002d4a:	f7ff fac7 	bl	80022dc <HAL_GetTick>
 8002d4e:	0003      	movs	r3, r0
 8002d50:	617b      	str	r3, [r7, #20]
 8002d52:	e008      	b.n	8002d66 <HAL_RCC_OscConfig+0x3ba>
 8002d54:	f7ff fac2 	bl	80022dc <HAL_GetTick>
 8002d58:	0002      	movs	r2, r0
 8002d5a:	697b      	ldr	r3, [r7, #20]
 8002d5c:	1ad3      	subs	r3, r2, r3
 8002d5e:	2b02      	cmp	r3, #2
 8002d60:	d901      	bls.n	8002d66 <HAL_RCC_OscConfig+0x3ba>
 8002d62:	2303      	movs	r3, #3
 8002d64:	e1eb      	b.n	800313e <HAL_RCC_OscConfig+0x792>
 8002d66:	4bb3      	ldr	r3, [pc, #716]	; (8003034 <HAL_RCC_OscConfig+0x688>)
 8002d68:	681a      	ldr	r2, [r3, #0]
 8002d6a:	2380      	movs	r3, #128	; 0x80
 8002d6c:	009b      	lsls	r3, r3, #2
 8002d6e:	4013      	ands	r3, r2
 8002d70:	d1f0      	bne.n	8002d54 <HAL_RCC_OscConfig+0x3a8>
 8002d72:	687b      	ldr	r3, [r7, #4]
 8002d74:	681b      	ldr	r3, [r3, #0]
 8002d76:	2208      	movs	r2, #8
 8002d78:	4013      	ands	r3, r2
 8002d7a:	d036      	beq.n	8002dea <HAL_RCC_OscConfig+0x43e>
 8002d7c:	687b      	ldr	r3, [r7, #4]
 8002d7e:	695b      	ldr	r3, [r3, #20]
 8002d80:	2b00      	cmp	r3, #0
 8002d82:	d019      	beq.n	8002db8 <HAL_RCC_OscConfig+0x40c>
 8002d84:	4bab      	ldr	r3, [pc, #684]	; (8003034 <HAL_RCC_OscConfig+0x688>)
 8002d86:	6d1a      	ldr	r2, [r3, #80]	; 0x50
 8002d88:	4baa      	ldr	r3, [pc, #680]	; (8003034 <HAL_RCC_OscConfig+0x688>)
 8002d8a:	2101      	movs	r1, #1
 8002d8c:	430a      	orrs	r2, r1
 8002d8e:	651a      	str	r2, [r3, #80]	; 0x50
 8002d90:	f7ff faa4 	bl	80022dc <HAL_GetTick>
 8002d94:	0003      	movs	r3, r0
 8002d96:	617b      	str	r3, [r7, #20]
 8002d98:	e008      	b.n	8002dac <HAL_RCC_OscConfig+0x400>
 8002d9a:	f7ff fa9f 	bl	80022dc <HAL_GetTick>
 8002d9e:	0002      	movs	r2, r0
 8002da0:	697b      	ldr	r3, [r7, #20]
 8002da2:	1ad3      	subs	r3, r2, r3
 8002da4:	2b02      	cmp	r3, #2
 8002da6:	d901      	bls.n	8002dac <HAL_RCC_OscConfig+0x400>
 8002da8:	2303      	movs	r3, #3
 8002daa:	e1c8      	b.n	800313e <HAL_RCC_OscConfig+0x792>
 8002dac:	4ba1      	ldr	r3, [pc, #644]	; (8003034 <HAL_RCC_OscConfig+0x688>)
 8002dae:	6d1b      	ldr	r3, [r3, #80]	; 0x50
 8002db0:	2202      	movs	r2, #2
 8002db2:	4013      	ands	r3, r2
 8002db4:	d0f1      	beq.n	8002d9a <HAL_RCC_OscConfig+0x3ee>
 8002db6:	e018      	b.n	8002dea <HAL_RCC_OscConfig+0x43e>
 8002db8:	4b9e      	ldr	r3, [pc, #632]	; (8003034 <HAL_RCC_OscConfig+0x688>)
 8002dba:	6d1a      	ldr	r2, [r3, #80]	; 0x50
 8002dbc:	4b9d      	ldr	r3, [pc, #628]	; (8003034 <HAL_RCC_OscConfig+0x688>)
 8002dbe:	2101      	movs	r1, #1
 8002dc0:	438a      	bics	r2, r1
 8002dc2:	651a      	str	r2, [r3, #80]	; 0x50
 8002dc4:	f7ff fa8a 	bl	80022dc <HAL_GetTick>
 8002dc8:	0003      	movs	r3, r0
 8002dca:	617b      	str	r3, [r7, #20]
 8002dcc:	e008      	b.n	8002de0 <HAL_RCC_OscConfig+0x434>
 8002dce:	f7ff fa85 	bl	80022dc <HAL_GetTick>
 8002dd2:	0002      	movs	r2, r0
 8002dd4:	697b      	ldr	r3, [r7, #20]
 8002dd6:	1ad3      	subs	r3, r2, r3
 8002dd8:	2b02      	cmp	r3, #2
 8002dda:	d901      	bls.n	8002de0 <HAL_RCC_OscConfig+0x434>
 8002ddc:	2303      	movs	r3, #3
 8002dde:	e1ae      	b.n	800313e <HAL_RCC_OscConfig+0x792>
 8002de0:	4b94      	ldr	r3, [pc, #592]	; (8003034 <HAL_RCC_OscConfig+0x688>)
 8002de2:	6d1b      	ldr	r3, [r3, #80]	; 0x50
 8002de4:	2202      	movs	r2, #2
 8002de6:	4013      	ands	r3, r2
 8002de8:	d1f1      	bne.n	8002dce <HAL_RCC_OscConfig+0x422>
 8002dea:	687b      	ldr	r3, [r7, #4]
 8002dec:	681b      	ldr	r3, [r3, #0]
 8002dee:	2204      	movs	r2, #4
 8002df0:	4013      	ands	r3, r2
 8002df2:	d100      	bne.n	8002df6 <HAL_RCC_OscConfig+0x44a>
 8002df4:	e0ae      	b.n	8002f54 <HAL_RCC_OscConfig+0x5a8>
 8002df6:	2023      	movs	r0, #35	; 0x23
 8002df8:	183b      	adds	r3, r7, r0
 8002dfa:	2200      	movs	r2, #0
 8002dfc:	701a      	strb	r2, [r3, #0]
 8002dfe:	4b8d      	ldr	r3, [pc, #564]	; (8003034 <HAL_RCC_OscConfig+0x688>)
 8002e00:	6b9a      	ldr	r2, [r3, #56]	; 0x38
 8002e02:	2380      	movs	r3, #128	; 0x80
 8002e04:	055b      	lsls	r3, r3, #21
 8002e06:	4013      	ands	r3, r2
 8002e08:	d109      	bne.n	8002e1e <HAL_RCC_OscConfig+0x472>
 8002e0a:	4b8a      	ldr	r3, [pc, #552]	; (8003034 <HAL_RCC_OscConfig+0x688>)
 8002e0c:	6b9a      	ldr	r2, [r3, #56]	; 0x38
 8002e0e:	4b89      	ldr	r3, [pc, #548]	; (8003034 <HAL_RCC_OscConfig+0x688>)
 8002e10:	2180      	movs	r1, #128	; 0x80
 8002e12:	0549      	lsls	r1, r1, #21
 8002e14:	430a      	orrs	r2, r1
 8002e16:	639a      	str	r2, [r3, #56]	; 0x38
 8002e18:	183b      	adds	r3, r7, r0
 8002e1a:	2201      	movs	r2, #1
 8002e1c:	701a      	strb	r2, [r3, #0]
 8002e1e:	4b88      	ldr	r3, [pc, #544]	; (8003040 <HAL_RCC_OscConfig+0x694>)
 8002e20:	681a      	ldr	r2, [r3, #0]
 8002e22:	2380      	movs	r3, #128	; 0x80
 8002e24:	005b      	lsls	r3, r3, #1
 8002e26:	4013      	ands	r3, r2
 8002e28:	d11a      	bne.n	8002e60 <HAL_RCC_OscConfig+0x4b4>
 8002e2a:	4b85      	ldr	r3, [pc, #532]	; (8003040 <HAL_RCC_OscConfig+0x694>)
 8002e2c:	681a      	ldr	r2, [r3, #0]
 8002e2e:	4b84      	ldr	r3, [pc, #528]	; (8003040 <HAL_RCC_OscConfig+0x694>)
 8002e30:	2180      	movs	r1, #128	; 0x80
 8002e32:	0049      	lsls	r1, r1, #1
 8002e34:	430a      	orrs	r2, r1
 8002e36:	601a      	str	r2, [r3, #0]
 8002e38:	f7ff fa50 	bl	80022dc <HAL_GetTick>
 8002e3c:	0003      	movs	r3, r0
 8002e3e:	617b      	str	r3, [r7, #20]
 8002e40:	e008      	b.n	8002e54 <HAL_RCC_OscConfig+0x4a8>
 8002e42:	f7ff fa4b 	bl	80022dc <HAL_GetTick>
 8002e46:	0002      	movs	r2, r0
 8002e48:	697b      	ldr	r3, [r7, #20]
 8002e4a:	1ad3      	subs	r3, r2, r3
 8002e4c:	2b64      	cmp	r3, #100	; 0x64
 8002e4e:	d901      	bls.n	8002e54 <HAL_RCC_OscConfig+0x4a8>
 8002e50:	2303      	movs	r3, #3
 8002e52:	e174      	b.n	800313e <HAL_RCC_OscConfig+0x792>
 8002e54:	4b7a      	ldr	r3, [pc, #488]	; (8003040 <HAL_RCC_OscConfig+0x694>)
 8002e56:	681a      	ldr	r2, [r3, #0]
 8002e58:	2380      	movs	r3, #128	; 0x80
 8002e5a:	005b      	lsls	r3, r3, #1
 8002e5c:	4013      	ands	r3, r2
 8002e5e:	d0f0      	beq.n	8002e42 <HAL_RCC_OscConfig+0x496>
 8002e60:	687b      	ldr	r3, [r7, #4]
 8002e62:	689a      	ldr	r2, [r3, #8]
 8002e64:	2380      	movs	r3, #128	; 0x80
 8002e66:	005b      	lsls	r3, r3, #1
 8002e68:	429a      	cmp	r2, r3
 8002e6a:	d107      	bne.n	8002e7c <HAL_RCC_OscConfig+0x4d0>
 8002e6c:	4b71      	ldr	r3, [pc, #452]	; (8003034 <HAL_RCC_OscConfig+0x688>)
 8002e6e:	6d1a      	ldr	r2, [r3, #80]	; 0x50
 8002e70:	4b70      	ldr	r3, [pc, #448]	; (8003034 <HAL_RCC_OscConfig+0x688>)
 8002e72:	2180      	movs	r1, #128	; 0x80
 8002e74:	0049      	lsls	r1, r1, #1
 8002e76:	430a      	orrs	r2, r1
 8002e78:	651a      	str	r2, [r3, #80]	; 0x50
 8002e7a:	e031      	b.n	8002ee0 <HAL_RCC_OscConfig+0x534>
 8002e7c:	687b      	ldr	r3, [r7, #4]
 8002e7e:	689b      	ldr	r3, [r3, #8]
 8002e80:	2b00      	cmp	r3, #0
 8002e82:	d10c      	bne.n	8002e9e <HAL_RCC_OscConfig+0x4f2>
 8002e84:	4b6b      	ldr	r3, [pc, #428]	; (8003034 <HAL_RCC_OscConfig+0x688>)
 8002e86:	6d1a      	ldr	r2, [r3, #80]	; 0x50
 8002e88:	4b6a      	ldr	r3, [pc, #424]	; (8003034 <HAL_RCC_OscConfig+0x688>)
 8002e8a:	496c      	ldr	r1, [pc, #432]	; (800303c <HAL_RCC_OscConfig+0x690>)
 8002e8c:	400a      	ands	r2, r1
 8002e8e:	651a      	str	r2, [r3, #80]	; 0x50
 8002e90:	4b68      	ldr	r3, [pc, #416]	; (8003034 <HAL_RCC_OscConfig+0x688>)
 8002e92:	6d1a      	ldr	r2, [r3, #80]	; 0x50
 8002e94:	4b67      	ldr	r3, [pc, #412]	; (8003034 <HAL_RCC_OscConfig+0x688>)
 8002e96:	496b      	ldr	r1, [pc, #428]	; (8003044 <HAL_RCC_OscConfig+0x698>)
 8002e98:	400a      	ands	r2, r1
 8002e9a:	651a      	str	r2, [r3, #80]	; 0x50
 8002e9c:	e020      	b.n	8002ee0 <HAL_RCC_OscConfig+0x534>
 8002e9e:	687b      	ldr	r3, [r7, #4]
 8002ea0:	689a      	ldr	r2, [r3, #8]
 8002ea2:	23a0      	movs	r3, #160	; 0xa0
 8002ea4:	00db      	lsls	r3, r3, #3
 8002ea6:	429a      	cmp	r2, r3
 8002ea8:	d10e      	bne.n	8002ec8 <HAL_RCC_OscConfig+0x51c>
 8002eaa:	4b62      	ldr	r3, [pc, #392]	; (8003034 <HAL_RCC_OscConfig+0x688>)
 8002eac:	6d1a      	ldr	r2, [r3, #80]	; 0x50
 8002eae:	4b61      	ldr	r3, [pc, #388]	; (8003034 <HAL_RCC_OscConfig+0x688>)
 8002eb0:	2180      	movs	r1, #128	; 0x80
 8002eb2:	00c9      	lsls	r1, r1, #3
 8002eb4:	430a      	orrs	r2, r1
 8002eb6:	651a      	str	r2, [r3, #80]	; 0x50
 8002eb8:	4b5e      	ldr	r3, [pc, #376]	; (8003034 <HAL_RCC_OscConfig+0x688>)
 8002eba:	6d1a      	ldr	r2, [r3, #80]	; 0x50
 8002ebc:	4b5d      	ldr	r3, [pc, #372]	; (8003034 <HAL_RCC_OscConfig+0x688>)
 8002ebe:	2180      	movs	r1, #128	; 0x80
 8002ec0:	0049      	lsls	r1, r1, #1
 8002ec2:	430a      	orrs	r2, r1
 8002ec4:	651a      	str	r2, [r3, #80]	; 0x50
 8002ec6:	e00b      	b.n	8002ee0 <HAL_RCC_OscConfig+0x534>
 8002ec8:	4b5a      	ldr	r3, [pc, #360]	; (8003034 <HAL_RCC_OscConfig+0x688>)
 8002eca:	6d1a      	ldr	r2, [r3, #80]	; 0x50
 8002ecc:	4b59      	ldr	r3, [pc, #356]	; (8003034 <HAL_RCC_OscConfig+0x688>)
 8002ece:	495b      	ldr	r1, [pc, #364]	; (800303c <HAL_RCC_OscConfig+0x690>)
 8002ed0:	400a      	ands	r2, r1
 8002ed2:	651a      	str	r2, [r3, #80]	; 0x50
 8002ed4:	4b57      	ldr	r3, [pc, #348]	; (8003034 <HAL_RCC_OscConfig+0x688>)
 8002ed6:	6d1a      	ldr	r2, [r3, #80]	; 0x50
 8002ed8:	4b56      	ldr	r3, [pc, #344]	; (8003034 <HAL_RCC_OscConfig+0x688>)
 8002eda:	495a      	ldr	r1, [pc, #360]	; (8003044 <HAL_RCC_OscConfig+0x698>)
 8002edc:	400a      	ands	r2, r1
 8002ede:	651a      	str	r2, [r3, #80]	; 0x50
 8002ee0:	687b      	ldr	r3, [r7, #4]
 8002ee2:	689b      	ldr	r3, [r3, #8]
 8002ee4:	2b00      	cmp	r3, #0
 8002ee6:	d015      	beq.n	8002f14 <HAL_RCC_OscConfig+0x568>
 8002ee8:	f7ff f9f8 	bl	80022dc <HAL_GetTick>
 8002eec:	0003      	movs	r3, r0
 8002eee:	617b      	str	r3, [r7, #20]
 8002ef0:	e009      	b.n	8002f06 <HAL_RCC_OscConfig+0x55a>
 8002ef2:	f7ff f9f3 	bl	80022dc <HAL_GetTick>
 8002ef6:	0002      	movs	r2, r0
 8002ef8:	697b      	ldr	r3, [r7, #20]
 8002efa:	1ad3      	subs	r3, r2, r3
 8002efc:	4a52      	ldr	r2, [pc, #328]	; (8003048 <HAL_RCC_OscConfig+0x69c>)
 8002efe:	4293      	cmp	r3, r2
 8002f00:	d901      	bls.n	8002f06 <HAL_RCC_OscConfig+0x55a>
 8002f02:	2303      	movs	r3, #3
 8002f04:	e11b      	b.n	800313e <HAL_RCC_OscConfig+0x792>
 8002f06:	4b4b      	ldr	r3, [pc, #300]	; (8003034 <HAL_RCC_OscConfig+0x688>)
 8002f08:	6d1a      	ldr	r2, [r3, #80]	; 0x50
 8002f0a:	2380      	movs	r3, #128	; 0x80
 8002f0c:	009b      	lsls	r3, r3, #2
 8002f0e:	4013      	ands	r3, r2
 8002f10:	d0ef      	beq.n	8002ef2 <HAL_RCC_OscConfig+0x546>
 8002f12:	e014      	b.n	8002f3e <HAL_RCC_OscConfig+0x592>
 8002f14:	f7ff f9e2 	bl	80022dc <HAL_GetTick>
 8002f18:	0003      	movs	r3, r0
 8002f1a:	617b      	str	r3, [r7, #20]
 8002f1c:	e009      	b.n	8002f32 <HAL_RCC_OscConfig+0x586>
 8002f1e:	f7ff f9dd 	bl	80022dc <HAL_GetTick>
 8002f22:	0002      	movs	r2, r0
 8002f24:	697b      	ldr	r3, [r7, #20]
 8002f26:	1ad3      	subs	r3, r2, r3
 8002f28:	4a47      	ldr	r2, [pc, #284]	; (8003048 <HAL_RCC_OscConfig+0x69c>)
 8002f2a:	4293      	cmp	r3, r2
 8002f2c:	d901      	bls.n	8002f32 <HAL_RCC_OscConfig+0x586>
 8002f2e:	2303      	movs	r3, #3
 8002f30:	e105      	b.n	800313e <HAL_RCC_OscConfig+0x792>
 8002f32:	4b40      	ldr	r3, [pc, #256]	; (8003034 <HAL_RCC_OscConfig+0x688>)
 8002f34:	6d1a      	ldr	r2, [r3, #80]	; 0x50
 8002f36:	2380      	movs	r3, #128	; 0x80
 8002f38:	009b      	lsls	r3, r3, #2
 8002f3a:	4013      	ands	r3, r2
 8002f3c:	d1ef      	bne.n	8002f1e <HAL_RCC_OscConfig+0x572>
 8002f3e:	2323      	movs	r3, #35	; 0x23
 8002f40:	18fb      	adds	r3, r7, r3
 8002f42:	781b      	ldrb	r3, [r3, #0]
 8002f44:	2b01      	cmp	r3, #1
 8002f46:	d105      	bne.n	8002f54 <HAL_RCC_OscConfig+0x5a8>
 8002f48:	4b3a      	ldr	r3, [pc, #232]	; (8003034 <HAL_RCC_OscConfig+0x688>)
 8002f4a:	6b9a      	ldr	r2, [r3, #56]	; 0x38
 8002f4c:	4b39      	ldr	r3, [pc, #228]	; (8003034 <HAL_RCC_OscConfig+0x688>)
 8002f4e:	493f      	ldr	r1, [pc, #252]	; (800304c <HAL_RCC_OscConfig+0x6a0>)
 8002f50:	400a      	ands	r2, r1
 8002f52:	639a      	str	r2, [r3, #56]	; 0x38
 8002f54:	687b      	ldr	r3, [r7, #4]
 8002f56:	681b      	ldr	r3, [r3, #0]
 8002f58:	2220      	movs	r2, #32
 8002f5a:	4013      	ands	r3, r2
 8002f5c:	d049      	beq.n	8002ff2 <HAL_RCC_OscConfig+0x646>
 8002f5e:	687b      	ldr	r3, [r7, #4]
 8002f60:	699b      	ldr	r3, [r3, #24]
 8002f62:	2b00      	cmp	r3, #0
 8002f64:	d026      	beq.n	8002fb4 <HAL_RCC_OscConfig+0x608>
 8002f66:	4b33      	ldr	r3, [pc, #204]	; (8003034 <HAL_RCC_OscConfig+0x688>)
 8002f68:	689a      	ldr	r2, [r3, #8]
 8002f6a:	4b32      	ldr	r3, [pc, #200]	; (8003034 <HAL_RCC_OscConfig+0x688>)
 8002f6c:	2101      	movs	r1, #1
 8002f6e:	430a      	orrs	r2, r1
 8002f70:	609a      	str	r2, [r3, #8]
 8002f72:	4b30      	ldr	r3, [pc, #192]	; (8003034 <HAL_RCC_OscConfig+0x688>)
 8002f74:	6b5a      	ldr	r2, [r3, #52]	; 0x34
 8002f76:	4b2f      	ldr	r3, [pc, #188]	; (8003034 <HAL_RCC_OscConfig+0x688>)
 8002f78:	2101      	movs	r1, #1
 8002f7a:	430a      	orrs	r2, r1
 8002f7c:	635a      	str	r2, [r3, #52]	; 0x34
 8002f7e:	4b34      	ldr	r3, [pc, #208]	; (8003050 <HAL_RCC_OscConfig+0x6a4>)
 8002f80:	6a1a      	ldr	r2, [r3, #32]
 8002f82:	4b33      	ldr	r3, [pc, #204]	; (8003050 <HAL_RCC_OscConfig+0x6a4>)
 8002f84:	2180      	movs	r1, #128	; 0x80
 8002f86:	0189      	lsls	r1, r1, #6
 8002f88:	430a      	orrs	r2, r1
 8002f8a:	621a      	str	r2, [r3, #32]
 8002f8c:	f7ff f9a6 	bl	80022dc <HAL_GetTick>
 8002f90:	0003      	movs	r3, r0
 8002f92:	617b      	str	r3, [r7, #20]
 8002f94:	e008      	b.n	8002fa8 <HAL_RCC_OscConfig+0x5fc>
 8002f96:	f7ff f9a1 	bl	80022dc <HAL_GetTick>
 8002f9a:	0002      	movs	r2, r0
 8002f9c:	697b      	ldr	r3, [r7, #20]
 8002f9e:	1ad3      	subs	r3, r2, r3
 8002fa0:	2b02      	cmp	r3, #2
 8002fa2:	d901      	bls.n	8002fa8 <HAL_RCC_OscConfig+0x5fc>
 8002fa4:	2303      	movs	r3, #3
 8002fa6:	e0ca      	b.n	800313e <HAL_RCC_OscConfig+0x792>
 8002fa8:	4b22      	ldr	r3, [pc, #136]	; (8003034 <HAL_RCC_OscConfig+0x688>)
 8002faa:	689b      	ldr	r3, [r3, #8]
 8002fac:	2202      	movs	r2, #2
 8002fae:	4013      	ands	r3, r2
 8002fb0:	d0f1      	beq.n	8002f96 <HAL_RCC_OscConfig+0x5ea>
 8002fb2:	e01e      	b.n	8002ff2 <HAL_RCC_OscConfig+0x646>
 8002fb4:	4b1f      	ldr	r3, [pc, #124]	; (8003034 <HAL_RCC_OscConfig+0x688>)
 8002fb6:	689a      	ldr	r2, [r3, #8]
 8002fb8:	4b1e      	ldr	r3, [pc, #120]	; (8003034 <HAL_RCC_OscConfig+0x688>)
 8002fba:	2101      	movs	r1, #1
 8002fbc:	438a      	bics	r2, r1
 8002fbe:	609a      	str	r2, [r3, #8]
 8002fc0:	4b23      	ldr	r3, [pc, #140]	; (8003050 <HAL_RCC_OscConfig+0x6a4>)
 8002fc2:	6a1a      	ldr	r2, [r3, #32]
 8002fc4:	4b22      	ldr	r3, [pc, #136]	; (8003050 <HAL_RCC_OscConfig+0x6a4>)
 8002fc6:	4923      	ldr	r1, [pc, #140]	; (8003054 <HAL_RCC_OscConfig+0x6a8>)
 8002fc8:	400a      	ands	r2, r1
 8002fca:	621a      	str	r2, [r3, #32]
 8002fcc:	f7ff f986 	bl	80022dc <HAL_GetTick>
 8002fd0:	0003      	movs	r3, r0
 8002fd2:	617b      	str	r3, [r7, #20]
 8002fd4:	e008      	b.n	8002fe8 <HAL_RCC_OscConfig+0x63c>
 8002fd6:	f7ff f981 	bl	80022dc <HAL_GetTick>
 8002fda:	0002      	movs	r2, r0
 8002fdc:	697b      	ldr	r3, [r7, #20]
 8002fde:	1ad3      	subs	r3, r2, r3
 8002fe0:	2b02      	cmp	r3, #2
 8002fe2:	d901      	bls.n	8002fe8 <HAL_RCC_OscConfig+0x63c>
 8002fe4:	2303      	movs	r3, #3
 8002fe6:	e0aa      	b.n	800313e <HAL_RCC_OscConfig+0x792>
 8002fe8:	4b12      	ldr	r3, [pc, #72]	; (8003034 <HAL_RCC_OscConfig+0x688>)
 8002fea:	689b      	ldr	r3, [r3, #8]
 8002fec:	2202      	movs	r2, #2
 8002fee:	4013      	ands	r3, r2
 8002ff0:	d1f1      	bne.n	8002fd6 <HAL_RCC_OscConfig+0x62a>
 8002ff2:	687b      	ldr	r3, [r7, #4]
 8002ff4:	6a9b      	ldr	r3, [r3, #40]	; 0x28
 8002ff6:	2b00      	cmp	r3, #0
 8002ff8:	d100      	bne.n	8002ffc <HAL_RCC_OscConfig+0x650>
 8002ffa:	e09f      	b.n	800313c <HAL_RCC_OscConfig+0x790>
 8002ffc:	69fb      	ldr	r3, [r7, #28]
 8002ffe:	2b0c      	cmp	r3, #12
 8003000:	d100      	bne.n	8003004 <HAL_RCC_OscConfig+0x658>
 8003002:	e078      	b.n	80030f6 <HAL_RCC_OscConfig+0x74a>
 8003004:	687b      	ldr	r3, [r7, #4]
 8003006:	6a9b      	ldr	r3, [r3, #40]	; 0x28
 8003008:	2b02      	cmp	r3, #2
 800300a:	d159      	bne.n	80030c0 <HAL_RCC_OscConfig+0x714>
 800300c:	4b09      	ldr	r3, [pc, #36]	; (8003034 <HAL_RCC_OscConfig+0x688>)
 800300e:	681a      	ldr	r2, [r3, #0]
 8003010:	4b08      	ldr	r3, [pc, #32]	; (8003034 <HAL_RCC_OscConfig+0x688>)
 8003012:	4911      	ldr	r1, [pc, #68]	; (8003058 <HAL_RCC_OscConfig+0x6ac>)
 8003014:	400a      	ands	r2, r1
 8003016:	601a      	str	r2, [r3, #0]
 8003018:	f7ff f960 	bl	80022dc <HAL_GetTick>
 800301c:	0003      	movs	r3, r0
 800301e:	617b      	str	r3, [r7, #20]
 8003020:	e01c      	b.n	800305c <HAL_RCC_OscConfig+0x6b0>
 8003022:	f7ff f95b 	bl	80022dc <HAL_GetTick>
 8003026:	0002      	movs	r2, r0
 8003028:	697b      	ldr	r3, [r7, #20]
 800302a:	1ad3      	subs	r3, r2, r3
 800302c:	2b02      	cmp	r3, #2
 800302e:	d915      	bls.n	800305c <HAL_RCC_OscConfig+0x6b0>
 8003030:	2303      	movs	r3, #3
 8003032:	e084      	b.n	800313e <HAL_RCC_OscConfig+0x792>
 8003034:	40021000 	.word	0x40021000
 8003038:	ffff1fff 	.word	0xffff1fff
 800303c:	fffffeff 	.word	0xfffffeff
 8003040:	40007000 	.word	0x40007000
 8003044:	fffffbff 	.word	0xfffffbff
 8003048:	00001388 	.word	0x00001388
 800304c:	efffffff 	.word	0xefffffff
 8003050:	40010000 	.word	0x40010000
 8003054:	ffffdfff 	.word	0xffffdfff
 8003058:	feffffff 	.word	0xfeffffff
 800305c:	4b3a      	ldr	r3, [pc, #232]	; (8003148 <HAL_RCC_OscConfig+0x79c>)
 800305e:	681a      	ldr	r2, [r3, #0]
 8003060:	2380      	movs	r3, #128	; 0x80
 8003062:	049b      	lsls	r3, r3, #18
 8003064:	4013      	ands	r3, r2
 8003066:	d1dc      	bne.n	8003022 <HAL_RCC_OscConfig+0x676>
 8003068:	4b37      	ldr	r3, [pc, #220]	; (8003148 <HAL_RCC_OscConfig+0x79c>)
 800306a:	68db      	ldr	r3, [r3, #12]
 800306c:	4a37      	ldr	r2, [pc, #220]	; (800314c <HAL_RCC_OscConfig+0x7a0>)
 800306e:	4013      	ands	r3, r2
 8003070:	0019      	movs	r1, r3
 8003072:	687b      	ldr	r3, [r7, #4]
 8003074:	6ada      	ldr	r2, [r3, #44]	; 0x2c
 8003076:	687b      	ldr	r3, [r7, #4]
 8003078:	6b1b      	ldr	r3, [r3, #48]	; 0x30
 800307a:	431a      	orrs	r2, r3
 800307c:	687b      	ldr	r3, [r7, #4]
 800307e:	6b5b      	ldr	r3, [r3, #52]	; 0x34
 8003080:	431a      	orrs	r2, r3
 8003082:	4b31      	ldr	r3, [pc, #196]	; (8003148 <HAL_RCC_OscConfig+0x79c>)
 8003084:	430a      	orrs	r2, r1
 8003086:	60da      	str	r2, [r3, #12]
 8003088:	4b2f      	ldr	r3, [pc, #188]	; (8003148 <HAL_RCC_OscConfig+0x79c>)
 800308a:	681a      	ldr	r2, [r3, #0]
 800308c:	4b2e      	ldr	r3, [pc, #184]	; (8003148 <HAL_RCC_OscConfig+0x79c>)
 800308e:	2180      	movs	r1, #128	; 0x80
 8003090:	0449      	lsls	r1, r1, #17
 8003092:	430a      	orrs	r2, r1
 8003094:	601a      	str	r2, [r3, #0]
 8003096:	f7ff f921 	bl	80022dc <HAL_GetTick>
 800309a:	0003      	movs	r3, r0
 800309c:	617b      	str	r3, [r7, #20]
 800309e:	e008      	b.n	80030b2 <HAL_RCC_OscConfig+0x706>
 80030a0:	f7ff f91c 	bl	80022dc <HAL_GetTick>
 80030a4:	0002      	movs	r2, r0
 80030a6:	697b      	ldr	r3, [r7, #20]
 80030a8:	1ad3      	subs	r3, r2, r3
 80030aa:	2b02      	cmp	r3, #2
 80030ac:	d901      	bls.n	80030b2 <HAL_RCC_OscConfig+0x706>
 80030ae:	2303      	movs	r3, #3
 80030b0:	e045      	b.n	800313e <HAL_RCC_OscConfig+0x792>
 80030b2:	4b25      	ldr	r3, [pc, #148]	; (8003148 <HAL_RCC_OscConfig+0x79c>)
 80030b4:	681a      	ldr	r2, [r3, #0]
 80030b6:	2380      	movs	r3, #128	; 0x80
 80030b8:	049b      	lsls	r3, r3, #18
 80030ba:	4013      	ands	r3, r2
 80030bc:	d0f0      	beq.n	80030a0 <HAL_RCC_OscConfig+0x6f4>
 80030be:	e03d      	b.n	800313c <HAL_RCC_OscConfig+0x790>
 80030c0:	4b21      	ldr	r3, [pc, #132]	; (8003148 <HAL_RCC_OscConfig+0x79c>)
 80030c2:	681a      	ldr	r2, [r3, #0]
 80030c4:	4b20      	ldr	r3, [pc, #128]	; (8003148 <HAL_RCC_OscConfig+0x79c>)
 80030c6:	4922      	ldr	r1, [pc, #136]	; (8003150 <HAL_RCC_OscConfig+0x7a4>)
 80030c8:	400a      	ands	r2, r1
 80030ca:	601a      	str	r2, [r3, #0]
 80030cc:	f7ff f906 	bl	80022dc <HAL_GetTick>
 80030d0:	0003      	movs	r3, r0
 80030d2:	617b      	str	r3, [r7, #20]
 80030d4:	e008      	b.n	80030e8 <HAL_RCC_OscConfig+0x73c>
 80030d6:	f7ff f901 	bl	80022dc <HAL_GetTick>
 80030da:	0002      	movs	r2, r0
 80030dc:	697b      	ldr	r3, [r7, #20]
 80030de:	1ad3      	subs	r3, r2, r3
 80030e0:	2b02      	cmp	r3, #2
 80030e2:	d901      	bls.n	80030e8 <HAL_RCC_OscConfig+0x73c>
 80030e4:	2303      	movs	r3, #3
 80030e6:	e02a      	b.n	800313e <HAL_RCC_OscConfig+0x792>
 80030e8:	4b17      	ldr	r3, [pc, #92]	; (8003148 <HAL_RCC_OscConfig+0x79c>)
 80030ea:	681a      	ldr	r2, [r3, #0]
 80030ec:	2380      	movs	r3, #128	; 0x80
 80030ee:	049b      	lsls	r3, r3, #18
 80030f0:	4013      	ands	r3, r2
 80030f2:	d1f0      	bne.n	80030d6 <HAL_RCC_OscConfig+0x72a>
 80030f4:	e022      	b.n	800313c <HAL_RCC_OscConfig+0x790>
 80030f6:	687b      	ldr	r3, [r7, #4]
 80030f8:	6a9b      	ldr	r3, [r3, #40]	; 0x28
 80030fa:	2b01      	cmp	r3, #1
 80030fc:	d101      	bne.n	8003102 <HAL_RCC_OscConfig+0x756>
 80030fe:	2301      	movs	r3, #1
 8003100:	e01d      	b.n	800313e <HAL_RCC_OscConfig+0x792>
 8003102:	4b11      	ldr	r3, [pc, #68]	; (8003148 <HAL_RCC_OscConfig+0x79c>)
 8003104:	68db      	ldr	r3, [r3, #12]
 8003106:	61bb      	str	r3, [r7, #24]
 8003108:	69ba      	ldr	r2, [r7, #24]
 800310a:	2380      	movs	r3, #128	; 0x80
 800310c:	025b      	lsls	r3, r3, #9
 800310e:	401a      	ands	r2, r3
 8003110:	687b      	ldr	r3, [r7, #4]
 8003112:	6adb      	ldr	r3, [r3, #44]	; 0x2c
 8003114:	429a      	cmp	r2, r3
 8003116:	d10f      	bne.n	8003138 <HAL_RCC_OscConfig+0x78c>
 8003118:	69ba      	ldr	r2, [r7, #24]
 800311a:	23f0      	movs	r3, #240	; 0xf0
 800311c:	039b      	lsls	r3, r3, #14
 800311e:	401a      	ands	r2, r3
 8003120:	687b      	ldr	r3, [r7, #4]
 8003122:	6b1b      	ldr	r3, [r3, #48]	; 0x30
 8003124:	429a      	cmp	r2, r3
 8003126:	d107      	bne.n	8003138 <HAL_RCC_OscConfig+0x78c>
 8003128:	69ba      	ldr	r2, [r7, #24]
 800312a:	23c0      	movs	r3, #192	; 0xc0
 800312c:	041b      	lsls	r3, r3, #16
 800312e:	401a      	ands	r2, r3
 8003130:	687b      	ldr	r3, [r7, #4]
 8003132:	6b5b      	ldr	r3, [r3, #52]	; 0x34
 8003134:	429a      	cmp	r2, r3
 8003136:	d001      	beq.n	800313c <HAL_RCC_OscConfig+0x790>
 8003138:	2301      	movs	r3, #1
 800313a:	e000      	b.n	800313e <HAL_RCC_OscConfig+0x792>
 800313c:	2300      	movs	r3, #0
 800313e:	0018      	movs	r0, r3
 8003140:	46bd      	mov	sp, r7
 8003142:	b00a      	add	sp, #40	; 0x28
 8003144:	bdb0      	pop	{r4, r5, r7, pc}
 8003146:	46c0      	nop			; (mov r8, r8)
 8003148:	40021000 	.word	0x40021000
 800314c:	ff02ffff 	.word	0xff02ffff
 8003150:	feffffff 	.word	0xfeffffff

08003154 <HAL_RCC_ClockConfig>:
 8003154:	b5b0      	push	{r4, r5, r7, lr}
 8003156:	b084      	sub	sp, #16
 8003158:	af00      	add	r7, sp, #0
 800315a:	6078      	str	r0, [r7, #4]
 800315c:	6039      	str	r1, [r7, #0]
 800315e:	687b      	ldr	r3, [r7, #4]
 8003160:	2b00      	cmp	r3, #0
 8003162:	d101      	bne.n	8003168 <HAL_RCC_ClockConfig+0x14>
 8003164:	2301      	movs	r3, #1
 8003166:	e128      	b.n	80033ba <HAL_RCC_ClockConfig+0x266>
 8003168:	4b96      	ldr	r3, [pc, #600]	; (80033c4 <HAL_RCC_ClockConfig+0x270>)
 800316a:	681b      	ldr	r3, [r3, #0]
 800316c:	2201      	movs	r2, #1
 800316e:	4013      	ands	r3, r2
 8003170:	683a      	ldr	r2, [r7, #0]
 8003172:	429a      	cmp	r2, r3
 8003174:	d91e      	bls.n	80031b4 <HAL_RCC_ClockConfig+0x60>
 8003176:	4b93      	ldr	r3, [pc, #588]	; (80033c4 <HAL_RCC_ClockConfig+0x270>)
 8003178:	681b      	ldr	r3, [r3, #0]
 800317a:	2201      	movs	r2, #1
 800317c:	4393      	bics	r3, r2
 800317e:	0019      	movs	r1, r3
 8003180:	4b90      	ldr	r3, [pc, #576]	; (80033c4 <HAL_RCC_ClockConfig+0x270>)
 8003182:	683a      	ldr	r2, [r7, #0]
 8003184:	430a      	orrs	r2, r1
 8003186:	601a      	str	r2, [r3, #0]
 8003188:	f7ff f8a8 	bl	80022dc <HAL_GetTick>
 800318c:	0003      	movs	r3, r0
 800318e:	60fb      	str	r3, [r7, #12]
 8003190:	e009      	b.n	80031a6 <HAL_RCC_ClockConfig+0x52>
 8003192:	f7ff f8a3 	bl	80022dc <HAL_GetTick>
 8003196:	0002      	movs	r2, r0
 8003198:	68fb      	ldr	r3, [r7, #12]
 800319a:	1ad3      	subs	r3, r2, r3
 800319c:	4a8a      	ldr	r2, [pc, #552]	; (80033c8 <HAL_RCC_ClockConfig+0x274>)
 800319e:	4293      	cmp	r3, r2
 80031a0:	d901      	bls.n	80031a6 <HAL_RCC_ClockConfig+0x52>
 80031a2:	2303      	movs	r3, #3
 80031a4:	e109      	b.n	80033ba <HAL_RCC_ClockConfig+0x266>
 80031a6:	4b87      	ldr	r3, [pc, #540]	; (80033c4 <HAL_RCC_ClockConfig+0x270>)
 80031a8:	681b      	ldr	r3, [r3, #0]
 80031aa:	2201      	movs	r2, #1
 80031ac:	4013      	ands	r3, r2
 80031ae:	683a      	ldr	r2, [r7, #0]
 80031b0:	429a      	cmp	r2, r3
 80031b2:	d1ee      	bne.n	8003192 <HAL_RCC_ClockConfig+0x3e>
 80031b4:	687b      	ldr	r3, [r7, #4]
 80031b6:	681b      	ldr	r3, [r3, #0]
 80031b8:	2202      	movs	r2, #2
 80031ba:	4013      	ands	r3, r2
 80031bc:	d009      	beq.n	80031d2 <HAL_RCC_ClockConfig+0x7e>
 80031be:	4b83      	ldr	r3, [pc, #524]	; (80033cc <HAL_RCC_ClockConfig+0x278>)
 80031c0:	68db      	ldr	r3, [r3, #12]
 80031c2:	22f0      	movs	r2, #240	; 0xf0
 80031c4:	4393      	bics	r3, r2
 80031c6:	0019      	movs	r1, r3
 80031c8:	687b      	ldr	r3, [r7, #4]
 80031ca:	689a      	ldr	r2, [r3, #8]
 80031cc:	4b7f      	ldr	r3, [pc, #508]	; (80033cc <HAL_RCC_ClockConfig+0x278>)
 80031ce:	430a      	orrs	r2, r1
 80031d0:	60da      	str	r2, [r3, #12]
 80031d2:	687b      	ldr	r3, [r7, #4]
 80031d4:	681b      	ldr	r3, [r3, #0]
 80031d6:	2201      	movs	r2, #1
 80031d8:	4013      	ands	r3, r2
 80031da:	d100      	bne.n	80031de <HAL_RCC_ClockConfig+0x8a>
 80031dc:	e089      	b.n	80032f2 <HAL_RCC_ClockConfig+0x19e>
 80031de:	687b      	ldr	r3, [r7, #4]
 80031e0:	685b      	ldr	r3, [r3, #4]
 80031e2:	2b02      	cmp	r3, #2
 80031e4:	d107      	bne.n	80031f6 <HAL_RCC_ClockConfig+0xa2>
 80031e6:	4b79      	ldr	r3, [pc, #484]	; (80033cc <HAL_RCC_ClockConfig+0x278>)
 80031e8:	681a      	ldr	r2, [r3, #0]
 80031ea:	2380      	movs	r3, #128	; 0x80
 80031ec:	029b      	lsls	r3, r3, #10
 80031ee:	4013      	ands	r3, r2
 80031f0:	d120      	bne.n	8003234 <HAL_RCC_ClockConfig+0xe0>
 80031f2:	2301      	movs	r3, #1
 80031f4:	e0e1      	b.n	80033ba <HAL_RCC_ClockConfig+0x266>
 80031f6:	687b      	ldr	r3, [r7, #4]
 80031f8:	685b      	ldr	r3, [r3, #4]
 80031fa:	2b03      	cmp	r3, #3
 80031fc:	d107      	bne.n	800320e <HAL_RCC_ClockConfig+0xba>
 80031fe:	4b73      	ldr	r3, [pc, #460]	; (80033cc <HAL_RCC_ClockConfig+0x278>)
 8003200:	681a      	ldr	r2, [r3, #0]
 8003202:	2380      	movs	r3, #128	; 0x80
 8003204:	049b      	lsls	r3, r3, #18
 8003206:	4013      	ands	r3, r2
 8003208:	d114      	bne.n	8003234 <HAL_RCC_ClockConfig+0xe0>
 800320a:	2301      	movs	r3, #1
 800320c:	e0d5      	b.n	80033ba <HAL_RCC_ClockConfig+0x266>
 800320e:	687b      	ldr	r3, [r7, #4]
 8003210:	685b      	ldr	r3, [r3, #4]
 8003212:	2b01      	cmp	r3, #1
 8003214:	d106      	bne.n	8003224 <HAL_RCC_ClockConfig+0xd0>
 8003216:	4b6d      	ldr	r3, [pc, #436]	; (80033cc <HAL_RCC_ClockConfig+0x278>)
 8003218:	681b      	ldr	r3, [r3, #0]
 800321a:	2204      	movs	r2, #4
 800321c:	4013      	ands	r3, r2
 800321e:	d109      	bne.n	8003234 <HAL_RCC_ClockConfig+0xe0>
 8003220:	2301      	movs	r3, #1
 8003222:	e0ca      	b.n	80033ba <HAL_RCC_ClockConfig+0x266>
 8003224:	4b69      	ldr	r3, [pc, #420]	; (80033cc <HAL_RCC_ClockConfig+0x278>)
 8003226:	681a      	ldr	r2, [r3, #0]
 8003228:	2380      	movs	r3, #128	; 0x80
 800322a:	009b      	lsls	r3, r3, #2
 800322c:	4013      	ands	r3, r2
 800322e:	d101      	bne.n	8003234 <HAL_RCC_ClockConfig+0xe0>
 8003230:	2301      	movs	r3, #1
 8003232:	e0c2      	b.n	80033ba <HAL_RCC_ClockConfig+0x266>
 8003234:	4b65      	ldr	r3, [pc, #404]	; (80033cc <HAL_RCC_ClockConfig+0x278>)
 8003236:	68db      	ldr	r3, [r3, #12]
 8003238:	2203      	movs	r2, #3
 800323a:	4393      	bics	r3, r2
 800323c:	0019      	movs	r1, r3
 800323e:	687b      	ldr	r3, [r7, #4]
 8003240:	685a      	ldr	r2, [r3, #4]
 8003242:	4b62      	ldr	r3, [pc, #392]	; (80033cc <HAL_RCC_ClockConfig+0x278>)
 8003244:	430a      	orrs	r2, r1
 8003246:	60da      	str	r2, [r3, #12]
 8003248:	f7ff f848 	bl	80022dc <HAL_GetTick>
 800324c:	0003      	movs	r3, r0
 800324e:	60fb      	str	r3, [r7, #12]
 8003250:	687b      	ldr	r3, [r7, #4]
 8003252:	685b      	ldr	r3, [r3, #4]
 8003254:	2b02      	cmp	r3, #2
 8003256:	d111      	bne.n	800327c <HAL_RCC_ClockConfig+0x128>
 8003258:	e009      	b.n	800326e <HAL_RCC_ClockConfig+0x11a>
 800325a:	f7ff f83f 	bl	80022dc <HAL_GetTick>
 800325e:	0002      	movs	r2, r0
 8003260:	68fb      	ldr	r3, [r7, #12]
 8003262:	1ad3      	subs	r3, r2, r3
 8003264:	4a58      	ldr	r2, [pc, #352]	; (80033c8 <HAL_RCC_ClockConfig+0x274>)
 8003266:	4293      	cmp	r3, r2
 8003268:	d901      	bls.n	800326e <HAL_RCC_ClockConfig+0x11a>
 800326a:	2303      	movs	r3, #3
 800326c:	e0a5      	b.n	80033ba <HAL_RCC_ClockConfig+0x266>
 800326e:	4b57      	ldr	r3, [pc, #348]	; (80033cc <HAL_RCC_ClockConfig+0x278>)
 8003270:	68db      	ldr	r3, [r3, #12]
 8003272:	220c      	movs	r2, #12
 8003274:	4013      	ands	r3, r2
 8003276:	2b08      	cmp	r3, #8
 8003278:	d1ef      	bne.n	800325a <HAL_RCC_ClockConfig+0x106>
 800327a:	e03a      	b.n	80032f2 <HAL_RCC_ClockConfig+0x19e>
 800327c:	687b      	ldr	r3, [r7, #4]
 800327e:	685b      	ldr	r3, [r3, #4]
 8003280:	2b03      	cmp	r3, #3
 8003282:	d111      	bne.n	80032a8 <HAL_RCC_ClockConfig+0x154>
 8003284:	e009      	b.n	800329a <HAL_RCC_ClockConfig+0x146>
 8003286:	f7ff f829 	bl	80022dc <HAL_GetTick>
 800328a:	0002      	movs	r2, r0
 800328c:	68fb      	ldr	r3, [r7, #12]
 800328e:	1ad3      	subs	r3, r2, r3
 8003290:	4a4d      	ldr	r2, [pc, #308]	; (80033c8 <HAL_RCC_ClockConfig+0x274>)
 8003292:	4293      	cmp	r3, r2
 8003294:	d901      	bls.n	800329a <HAL_RCC_ClockConfig+0x146>
 8003296:	2303      	movs	r3, #3
 8003298:	e08f      	b.n	80033ba <HAL_RCC_ClockConfig+0x266>
 800329a:	4b4c      	ldr	r3, [pc, #304]	; (80033cc <HAL_RCC_ClockConfig+0x278>)
 800329c:	68db      	ldr	r3, [r3, #12]
 800329e:	220c      	movs	r2, #12
 80032a0:	4013      	ands	r3, r2
 80032a2:	2b0c      	cmp	r3, #12
 80032a4:	d1ef      	bne.n	8003286 <HAL_RCC_ClockConfig+0x132>
 80032a6:	e024      	b.n	80032f2 <HAL_RCC_ClockConfig+0x19e>
 80032a8:	687b      	ldr	r3, [r7, #4]
 80032aa:	685b      	ldr	r3, [r3, #4]
 80032ac:	2b01      	cmp	r3, #1
 80032ae:	d11b      	bne.n	80032e8 <HAL_RCC_ClockConfig+0x194>
 80032b0:	e009      	b.n	80032c6 <HAL_RCC_ClockConfig+0x172>
 80032b2:	f7ff f813 	bl	80022dc <HAL_GetTick>
 80032b6:	0002      	movs	r2, r0
 80032b8:	68fb      	ldr	r3, [r7, #12]
 80032ba:	1ad3      	subs	r3, r2, r3
 80032bc:	4a42      	ldr	r2, [pc, #264]	; (80033c8 <HAL_RCC_ClockConfig+0x274>)
 80032be:	4293      	cmp	r3, r2
 80032c0:	d901      	bls.n	80032c6 <HAL_RCC_ClockConfig+0x172>
 80032c2:	2303      	movs	r3, #3
 80032c4:	e079      	b.n	80033ba <HAL_RCC_ClockConfig+0x266>
 80032c6:	4b41      	ldr	r3, [pc, #260]	; (80033cc <HAL_RCC_ClockConfig+0x278>)
 80032c8:	68db      	ldr	r3, [r3, #12]
 80032ca:	220c      	movs	r2, #12
 80032cc:	4013      	ands	r3, r2
 80032ce:	2b04      	cmp	r3, #4
 80032d0:	d1ef      	bne.n	80032b2 <HAL_RCC_ClockConfig+0x15e>
 80032d2:	e00e      	b.n	80032f2 <HAL_RCC_ClockConfig+0x19e>
 80032d4:	f7ff f802 	bl	80022dc <HAL_GetTick>
 80032d8:	0002      	movs	r2, r0
 80032da:	68fb      	ldr	r3, [r7, #12]
 80032dc:	1ad3      	subs	r3, r2, r3
 80032de:	4a3a      	ldr	r2, [pc, #232]	; (80033c8 <HAL_RCC_ClockConfig+0x274>)
 80032e0:	4293      	cmp	r3, r2
 80032e2:	d901      	bls.n	80032e8 <HAL_RCC_ClockConfig+0x194>
 80032e4:	2303      	movs	r3, #3
 80032e6:	e068      	b.n	80033ba <HAL_RCC_ClockConfig+0x266>
 80032e8:	4b38      	ldr	r3, [pc, #224]	; (80033cc <HAL_RCC_ClockConfig+0x278>)
 80032ea:	68db      	ldr	r3, [r3, #12]
 80032ec:	220c      	movs	r2, #12
 80032ee:	4013      	ands	r3, r2
 80032f0:	d1f0      	bne.n	80032d4 <HAL_RCC_ClockConfig+0x180>
 80032f2:	4b34      	ldr	r3, [pc, #208]	; (80033c4 <HAL_RCC_ClockConfig+0x270>)
 80032f4:	681b      	ldr	r3, [r3, #0]
 80032f6:	2201      	movs	r2, #1
 80032f8:	4013      	ands	r3, r2
 80032fa:	683a      	ldr	r2, [r7, #0]
 80032fc:	429a      	cmp	r2, r3
 80032fe:	d21e      	bcs.n	800333e <HAL_RCC_ClockConfig+0x1ea>
 8003300:	4b30      	ldr	r3, [pc, #192]	; (80033c4 <HAL_RCC_ClockConfig+0x270>)
 8003302:	681b      	ldr	r3, [r3, #0]
 8003304:	2201      	movs	r2, #1
 8003306:	4393      	bics	r3, r2
 8003308:	0019      	movs	r1, r3
 800330a:	4b2e      	ldr	r3, [pc, #184]	; (80033c4 <HAL_RCC_ClockConfig+0x270>)
 800330c:	683a      	ldr	r2, [r7, #0]
 800330e:	430a      	orrs	r2, r1
 8003310:	601a      	str	r2, [r3, #0]
 8003312:	f7fe ffe3 	bl	80022dc <HAL_GetTick>
 8003316:	0003      	movs	r3, r0
 8003318:	60fb      	str	r3, [r7, #12]
 800331a:	e009      	b.n	8003330 <HAL_RCC_ClockConfig+0x1dc>
 800331c:	f7fe ffde 	bl	80022dc <HAL_GetTick>
 8003320:	0002      	movs	r2, r0
 8003322:	68fb      	ldr	r3, [r7, #12]
 8003324:	1ad3      	subs	r3, r2, r3
 8003326:	4a28      	ldr	r2, [pc, #160]	; (80033c8 <HAL_RCC_ClockConfig+0x274>)
 8003328:	4293      	cmp	r3, r2
 800332a:	d901      	bls.n	8003330 <HAL_RCC_ClockConfig+0x1dc>
 800332c:	2303      	movs	r3, #3
 800332e:	e044      	b.n	80033ba <HAL_RCC_ClockConfig+0x266>
 8003330:	4b24      	ldr	r3, [pc, #144]	; (80033c4 <HAL_RCC_ClockConfig+0x270>)
 8003332:	681b      	ldr	r3, [r3, #0]
 8003334:	2201      	movs	r2, #1
 8003336:	4013      	ands	r3, r2
 8003338:	683a      	ldr	r2, [r7, #0]
 800333a:	429a      	cmp	r2, r3
 800333c:	d1ee      	bne.n	800331c <HAL_RCC_ClockConfig+0x1c8>
 800333e:	687b      	ldr	r3, [r7, #4]
 8003340:	681b      	ldr	r3, [r3, #0]
 8003342:	2204      	movs	r2, #4
 8003344:	4013      	ands	r3, r2
 8003346:	d009      	beq.n	800335c <HAL_RCC_ClockConfig+0x208>
 8003348:	4b20      	ldr	r3, [pc, #128]	; (80033cc <HAL_RCC_ClockConfig+0x278>)
 800334a:	68db      	ldr	r3, [r3, #12]
 800334c:	4a20      	ldr	r2, [pc, #128]	; (80033d0 <HAL_RCC_ClockConfig+0x27c>)
 800334e:	4013      	ands	r3, r2
 8003350:	0019      	movs	r1, r3
 8003352:	687b      	ldr	r3, [r7, #4]
 8003354:	68da      	ldr	r2, [r3, #12]
 8003356:	4b1d      	ldr	r3, [pc, #116]	; (80033cc <HAL_RCC_ClockConfig+0x278>)
 8003358:	430a      	orrs	r2, r1
 800335a:	60da      	str	r2, [r3, #12]
 800335c:	687b      	ldr	r3, [r7, #4]
 800335e:	681b      	ldr	r3, [r3, #0]
 8003360:	2208      	movs	r2, #8
 8003362:	4013      	ands	r3, r2
 8003364:	d00a      	beq.n	800337c <HAL_RCC_ClockConfig+0x228>
 8003366:	4b19      	ldr	r3, [pc, #100]	; (80033cc <HAL_RCC_ClockConfig+0x278>)
 8003368:	68db      	ldr	r3, [r3, #12]
 800336a:	4a1a      	ldr	r2, [pc, #104]	; (80033d4 <HAL_RCC_ClockConfig+0x280>)
 800336c:	4013      	ands	r3, r2
 800336e:	0019      	movs	r1, r3
 8003370:	687b      	ldr	r3, [r7, #4]
 8003372:	691b      	ldr	r3, [r3, #16]
 8003374:	00da      	lsls	r2, r3, #3
 8003376:	4b15      	ldr	r3, [pc, #84]	; (80033cc <HAL_RCC_ClockConfig+0x278>)
 8003378:	430a      	orrs	r2, r1
 800337a:	60da      	str	r2, [r3, #12]
 800337c:	f000 f832 	bl	80033e4 <HAL_RCC_GetSysClockFreq>
 8003380:	0001      	movs	r1, r0
 8003382:	4b12      	ldr	r3, [pc, #72]	; (80033cc <HAL_RCC_ClockConfig+0x278>)
 8003384:	68db      	ldr	r3, [r3, #12]
 8003386:	091b      	lsrs	r3, r3, #4
 8003388:	220f      	movs	r2, #15
 800338a:	4013      	ands	r3, r2
 800338c:	4a12      	ldr	r2, [pc, #72]	; (80033d8 <HAL_RCC_ClockConfig+0x284>)
 800338e:	5cd3      	ldrb	r3, [r2, r3]
 8003390:	000a      	movs	r2, r1
 8003392:	40da      	lsrs	r2, r3
 8003394:	4b11      	ldr	r3, [pc, #68]	; (80033dc <HAL_RCC_ClockConfig+0x288>)
 8003396:	601a      	str	r2, [r3, #0]
 8003398:	4b11      	ldr	r3, [pc, #68]	; (80033e0 <HAL_RCC_ClockConfig+0x28c>)
 800339a:	681b      	ldr	r3, [r3, #0]
 800339c:	250b      	movs	r5, #11
 800339e:	197c      	adds	r4, r7, r5
 80033a0:	0018      	movs	r0, r3
 80033a2:	f7fe ff55 	bl	8002250 <HAL_InitTick>
 80033a6:	0003      	movs	r3, r0
 80033a8:	7023      	strb	r3, [r4, #0]
 80033aa:	197b      	adds	r3, r7, r5
 80033ac:	781b      	ldrb	r3, [r3, #0]
 80033ae:	2b00      	cmp	r3, #0
 80033b0:	d002      	beq.n	80033b8 <HAL_RCC_ClockConfig+0x264>
 80033b2:	197b      	adds	r3, r7, r5
 80033b4:	781b      	ldrb	r3, [r3, #0]
 80033b6:	e000      	b.n	80033ba <HAL_RCC_ClockConfig+0x266>
 80033b8:	2300      	movs	r3, #0
 80033ba:	0018      	movs	r0, r3
 80033bc:	46bd      	mov	sp, r7
 80033be:	b004      	add	sp, #16
 80033c0:	bdb0      	pop	{r4, r5, r7, pc}
 80033c2:	46c0      	nop			; (mov r8, r8)
 80033c4:	40022000 	.word	0x40022000
 80033c8:	00001388 	.word	0x00001388
 80033cc:	40021000 	.word	0x40021000
 80033d0:	fffff8ff 	.word	0xfffff8ff
 80033d4:	ffffc7ff 	.word	0xffffc7ff
 80033d8:	08006bf8 	.word	0x08006bf8
 80033dc:	2000027c 	.word	0x2000027c
 80033e0:	20000280 	.word	0x20000280

080033e4 <HAL_RCC_GetSysClockFreq>:
 80033e4:	b5b0      	push	{r4, r5, r7, lr}
 80033e6:	b08e      	sub	sp, #56	; 0x38
 80033e8:	af00      	add	r7, sp, #0
 80033ea:	4b4c      	ldr	r3, [pc, #304]	; (800351c <HAL_RCC_GetSysClockFreq+0x138>)
 80033ec:	68db      	ldr	r3, [r3, #12]
 80033ee:	62fb      	str	r3, [r7, #44]	; 0x2c
 80033f0:	6afa      	ldr	r2, [r7, #44]	; 0x2c
 80033f2:	230c      	movs	r3, #12
 80033f4:	4013      	ands	r3, r2
 80033f6:	2b0c      	cmp	r3, #12
 80033f8:	d014      	beq.n	8003424 <HAL_RCC_GetSysClockFreq+0x40>
 80033fa:	d900      	bls.n	80033fe <HAL_RCC_GetSysClockFreq+0x1a>
 80033fc:	e07b      	b.n	80034f6 <HAL_RCC_GetSysClockFreq+0x112>
 80033fe:	2b04      	cmp	r3, #4
 8003400:	d002      	beq.n	8003408 <HAL_RCC_GetSysClockFreq+0x24>
 8003402:	2b08      	cmp	r3, #8
 8003404:	d00b      	beq.n	800341e <HAL_RCC_GetSysClockFreq+0x3a>
 8003406:	e076      	b.n	80034f6 <HAL_RCC_GetSysClockFreq+0x112>
 8003408:	4b44      	ldr	r3, [pc, #272]	; (800351c <HAL_RCC_GetSysClockFreq+0x138>)
 800340a:	681b      	ldr	r3, [r3, #0]
 800340c:	2210      	movs	r2, #16
 800340e:	4013      	ands	r3, r2
 8003410:	d002      	beq.n	8003418 <HAL_RCC_GetSysClockFreq+0x34>
 8003412:	4b43      	ldr	r3, [pc, #268]	; (8003520 <HAL_RCC_GetSysClockFreq+0x13c>)
 8003414:	633b      	str	r3, [r7, #48]	; 0x30
 8003416:	e07c      	b.n	8003512 <HAL_RCC_GetSysClockFreq+0x12e>
 8003418:	4b42      	ldr	r3, [pc, #264]	; (8003524 <HAL_RCC_GetSysClockFreq+0x140>)
 800341a:	633b      	str	r3, [r7, #48]	; 0x30
 800341c:	e079      	b.n	8003512 <HAL_RCC_GetSysClockFreq+0x12e>
 800341e:	4b42      	ldr	r3, [pc, #264]	; (8003528 <HAL_RCC_GetSysClockFreq+0x144>)
 8003420:	633b      	str	r3, [r7, #48]	; 0x30
 8003422:	e076      	b.n	8003512 <HAL_RCC_GetSysClockFreq+0x12e>
 8003424:	6afb      	ldr	r3, [r7, #44]	; 0x2c
 8003426:	0c9a      	lsrs	r2, r3, #18
 8003428:	230f      	movs	r3, #15
 800342a:	401a      	ands	r2, r3
 800342c:	4b3f      	ldr	r3, [pc, #252]	; (800352c <HAL_RCC_GetSysClockFreq+0x148>)
 800342e:	5c9b      	ldrb	r3, [r3, r2]
 8003430:	62bb      	str	r3, [r7, #40]	; 0x28
 8003432:	6afb      	ldr	r3, [r7, #44]	; 0x2c
 8003434:	0d9a      	lsrs	r2, r3, #22
 8003436:	2303      	movs	r3, #3
 8003438:	4013      	ands	r3, r2
 800343a:	3301      	adds	r3, #1
 800343c:	627b      	str	r3, [r7, #36]	; 0x24
 800343e:	4b37      	ldr	r3, [pc, #220]	; (800351c <HAL_RCC_GetSysClockFreq+0x138>)
 8003440:	68da      	ldr	r2, [r3, #12]
 8003442:	2380      	movs	r3, #128	; 0x80
 8003444:	025b      	lsls	r3, r3, #9
 8003446:	4013      	ands	r3, r2
 8003448:	d01a      	beq.n	8003480 <HAL_RCC_GetSysClockFreq+0x9c>
 800344a:	6abb      	ldr	r3, [r7, #40]	; 0x28
 800344c:	61bb      	str	r3, [r7, #24]
 800344e:	2300      	movs	r3, #0
 8003450:	61fb      	str	r3, [r7, #28]
 8003452:	4a35      	ldr	r2, [pc, #212]	; (8003528 <HAL_RCC_GetSysClockFreq+0x144>)
 8003454:	2300      	movs	r3, #0
 8003456:	69b8      	ldr	r0, [r7, #24]
 8003458:	69f9      	ldr	r1, [r7, #28]
 800345a:	f7fc fffd 	bl	8000458 <__aeabi_lmul>
 800345e:	0002      	movs	r2, r0
 8003460:	000b      	movs	r3, r1
 8003462:	0010      	movs	r0, r2
 8003464:	0019      	movs	r1, r3
 8003466:	6a7b      	ldr	r3, [r7, #36]	; 0x24
 8003468:	613b      	str	r3, [r7, #16]
 800346a:	2300      	movs	r3, #0
 800346c:	617b      	str	r3, [r7, #20]
 800346e:	693a      	ldr	r2, [r7, #16]
 8003470:	697b      	ldr	r3, [r7, #20]
 8003472:	f7fc ffd1 	bl	8000418 <__aeabi_uldivmod>
 8003476:	0002      	movs	r2, r0
 8003478:	000b      	movs	r3, r1
 800347a:	0013      	movs	r3, r2
 800347c:	637b      	str	r3, [r7, #52]	; 0x34
 800347e:	e037      	b.n	80034f0 <HAL_RCC_GetSysClockFreq+0x10c>
 8003480:	4b26      	ldr	r3, [pc, #152]	; (800351c <HAL_RCC_GetSysClockFreq+0x138>)
 8003482:	681b      	ldr	r3, [r3, #0]
 8003484:	2210      	movs	r2, #16
 8003486:	4013      	ands	r3, r2
 8003488:	d01a      	beq.n	80034c0 <HAL_RCC_GetSysClockFreq+0xdc>
 800348a:	6abb      	ldr	r3, [r7, #40]	; 0x28
 800348c:	60bb      	str	r3, [r7, #8]
 800348e:	2300      	movs	r3, #0
 8003490:	60fb      	str	r3, [r7, #12]
 8003492:	4a23      	ldr	r2, [pc, #140]	; (8003520 <HAL_RCC_GetSysClockFreq+0x13c>)
 8003494:	2300      	movs	r3, #0
 8003496:	68b8      	ldr	r0, [r7, #8]
 8003498:	68f9      	ldr	r1, [r7, #12]
 800349a:	f7fc ffdd 	bl	8000458 <__aeabi_lmul>
 800349e:	0002      	movs	r2, r0
 80034a0:	000b      	movs	r3, r1
 80034a2:	0010      	movs	r0, r2
 80034a4:	0019      	movs	r1, r3
 80034a6:	6a7b      	ldr	r3, [r7, #36]	; 0x24
 80034a8:	603b      	str	r3, [r7, #0]
 80034aa:	2300      	movs	r3, #0
 80034ac:	607b      	str	r3, [r7, #4]
 80034ae:	683a      	ldr	r2, [r7, #0]
 80034b0:	687b      	ldr	r3, [r7, #4]
 80034b2:	f7fc ffb1 	bl	8000418 <__aeabi_uldivmod>
 80034b6:	0002      	movs	r2, r0
 80034b8:	000b      	movs	r3, r1
 80034ba:	0013      	movs	r3, r2
 80034bc:	637b      	str	r3, [r7, #52]	; 0x34
 80034be:	e017      	b.n	80034f0 <HAL_RCC_GetSysClockFreq+0x10c>
 80034c0:	6abb      	ldr	r3, [r7, #40]	; 0x28
 80034c2:	0018      	movs	r0, r3
 80034c4:	2300      	movs	r3, #0
 80034c6:	0019      	movs	r1, r3
 80034c8:	4a16      	ldr	r2, [pc, #88]	; (8003524 <HAL_RCC_GetSysClockFreq+0x140>)
 80034ca:	2300      	movs	r3, #0
 80034cc:	f7fc ffc4 	bl	8000458 <__aeabi_lmul>
 80034d0:	0002      	movs	r2, r0
 80034d2:	000b      	movs	r3, r1
 80034d4:	0010      	movs	r0, r2
 80034d6:	0019      	movs	r1, r3
 80034d8:	6a7b      	ldr	r3, [r7, #36]	; 0x24
 80034da:	001c      	movs	r4, r3
 80034dc:	2300      	movs	r3, #0
 80034de:	001d      	movs	r5, r3
 80034e0:	0022      	movs	r2, r4
 80034e2:	002b      	movs	r3, r5
 80034e4:	f7fc ff98 	bl	8000418 <__aeabi_uldivmod>
 80034e8:	0002      	movs	r2, r0
 80034ea:	000b      	movs	r3, r1
 80034ec:	0013      	movs	r3, r2
 80034ee:	637b      	str	r3, [r7, #52]	; 0x34
 80034f0:	6b7b      	ldr	r3, [r7, #52]	; 0x34
 80034f2:	633b      	str	r3, [r7, #48]	; 0x30
 80034f4:	e00d      	b.n	8003512 <HAL_RCC_GetSysClockFreq+0x12e>
 80034f6:	4b09      	ldr	r3, [pc, #36]	; (800351c <HAL_RCC_GetSysClockFreq+0x138>)
 80034f8:	685b      	ldr	r3, [r3, #4]
 80034fa:	0b5b      	lsrs	r3, r3, #13
 80034fc:	2207      	movs	r2, #7
 80034fe:	4013      	ands	r3, r2
 8003500:	623b      	str	r3, [r7, #32]
 8003502:	6a3b      	ldr	r3, [r7, #32]
 8003504:	3301      	adds	r3, #1
 8003506:	2280      	movs	r2, #128	; 0x80
 8003508:	0212      	lsls	r2, r2, #8
 800350a:	409a      	lsls	r2, r3
 800350c:	0013      	movs	r3, r2
 800350e:	633b      	str	r3, [r7, #48]	; 0x30
 8003510:	46c0      	nop			; (mov r8, r8)
 8003512:	6b3b      	ldr	r3, [r7, #48]	; 0x30
 8003514:	0018      	movs	r0, r3
 8003516:	46bd      	mov	sp, r7
 8003518:	b00e      	add	sp, #56	; 0x38
 800351a:	bdb0      	pop	{r4, r5, r7, pc}
 800351c:	40021000 	.word	0x40021000
 8003520:	003d0900 	.word	0x003d0900
 8003524:	00f42400 	.word	0x00f42400
 8003528:	007a1200 	.word	0x007a1200
 800352c:	08006c10 	.word	0x08006c10

08003530 <HAL_RCC_GetHCLKFreq>:
 8003530:	b580      	push	{r7, lr}
 8003532:	af00      	add	r7, sp, #0
 8003534:	4b02      	ldr	r3, [pc, #8]	; (8003540 <HAL_RCC_GetHCLKFreq+0x10>)
 8003536:	681b      	ldr	r3, [r3, #0]
 8003538:	0018      	movs	r0, r3
 800353a:	46bd      	mov	sp, r7
 800353c:	bd80      	pop	{r7, pc}
 800353e:	46c0      	nop			; (mov r8, r8)
 8003540:	2000027c 	.word	0x2000027c

08003544 <HAL_RCC_GetPCLK1Freq>:
 8003544:	b580      	push	{r7, lr}
 8003546:	af00      	add	r7, sp, #0
 8003548:	f7ff fff2 	bl	8003530 <HAL_RCC_GetHCLKFreq>
 800354c:	0001      	movs	r1, r0
 800354e:	4b06      	ldr	r3, [pc, #24]	; (8003568 <HAL_RCC_GetPCLK1Freq+0x24>)
 8003550:	68db      	ldr	r3, [r3, #12]
 8003552:	0a1b      	lsrs	r3, r3, #8
 8003554:	2207      	movs	r2, #7
 8003556:	4013      	ands	r3, r2
 8003558:	4a04      	ldr	r2, [pc, #16]	; (800356c <HAL_RCC_GetPCLK1Freq+0x28>)
 800355a:	5cd3      	ldrb	r3, [r2, r3]
 800355c:	40d9      	lsrs	r1, r3
 800355e:	000b      	movs	r3, r1
 8003560:	0018      	movs	r0, r3
 8003562:	46bd      	mov	sp, r7
 8003564:	bd80      	pop	{r7, pc}
 8003566:	46c0      	nop			; (mov r8, r8)
 8003568:	40021000 	.word	0x40021000
 800356c:	08006c08 	.word	0x08006c08

08003570 <HAL_RCC_GetPCLK2Freq>:
 8003570:	b580      	push	{r7, lr}
 8003572:	af00      	add	r7, sp, #0
 8003574:	f7ff ffdc 	bl	8003530 <HAL_RCC_GetHCLKFreq>
 8003578:	0001      	movs	r1, r0
 800357a:	4b06      	ldr	r3, [pc, #24]	; (8003594 <HAL_RCC_GetPCLK2Freq+0x24>)
 800357c:	68db      	ldr	r3, [r3, #12]
 800357e:	0adb      	lsrs	r3, r3, #11
 8003580:	2207      	movs	r2, #7
 8003582:	4013      	ands	r3, r2
 8003584:	4a04      	ldr	r2, [pc, #16]	; (8003598 <HAL_RCC_GetPCLK2Freq+0x28>)
 8003586:	5cd3      	ldrb	r3, [r2, r3]
 8003588:	40d9      	lsrs	r1, r3
 800358a:	000b      	movs	r3, r1
 800358c:	0018      	movs	r0, r3
 800358e:	46bd      	mov	sp, r7
 8003590:	bd80      	pop	{r7, pc}
 8003592:	46c0      	nop			; (mov r8, r8)
 8003594:	40021000 	.word	0x40021000
 8003598:	08006c08 	.word	0x08006c08

0800359c <HAL_RCCEx_PeriphCLKConfig>:
 800359c:	b580      	push	{r7, lr}
 800359e:	b086      	sub	sp, #24
 80035a0:	af00      	add	r7, sp, #0
 80035a2:	6078      	str	r0, [r7, #4]
 80035a4:	2317      	movs	r3, #23
 80035a6:	18fb      	adds	r3, r7, r3
 80035a8:	2200      	movs	r2, #0
 80035aa:	701a      	strb	r2, [r3, #0]
 80035ac:	687b      	ldr	r3, [r7, #4]
 80035ae:	681b      	ldr	r3, [r3, #0]
 80035b0:	2220      	movs	r2, #32
 80035b2:	4013      	ands	r3, r2
 80035b4:	d106      	bne.n	80035c4 <HAL_RCCEx_PeriphCLKConfig+0x28>
 80035b6:	687b      	ldr	r3, [r7, #4]
 80035b8:	681a      	ldr	r2, [r3, #0]
 80035ba:	2380      	movs	r3, #128	; 0x80
 80035bc:	011b      	lsls	r3, r3, #4
 80035be:	4013      	ands	r3, r2
 80035c0:	d100      	bne.n	80035c4 <HAL_RCCEx_PeriphCLKConfig+0x28>
 80035c2:	e0d9      	b.n	8003778 <HAL_RCCEx_PeriphCLKConfig+0x1dc>
 80035c4:	4ba4      	ldr	r3, [pc, #656]	; (8003858 <HAL_RCCEx_PeriphCLKConfig+0x2bc>)
 80035c6:	6b9a      	ldr	r2, [r3, #56]	; 0x38
 80035c8:	2380      	movs	r3, #128	; 0x80
 80035ca:	055b      	lsls	r3, r3, #21
 80035cc:	4013      	ands	r3, r2
 80035ce:	d10a      	bne.n	80035e6 <HAL_RCCEx_PeriphCLKConfig+0x4a>
 80035d0:	4ba1      	ldr	r3, [pc, #644]	; (8003858 <HAL_RCCEx_PeriphCLKConfig+0x2bc>)
 80035d2:	6b9a      	ldr	r2, [r3, #56]	; 0x38
 80035d4:	4ba0      	ldr	r3, [pc, #640]	; (8003858 <HAL_RCCEx_PeriphCLKConfig+0x2bc>)
 80035d6:	2180      	movs	r1, #128	; 0x80
 80035d8:	0549      	lsls	r1, r1, #21
 80035da:	430a      	orrs	r2, r1
 80035dc:	639a      	str	r2, [r3, #56]	; 0x38
 80035de:	2317      	movs	r3, #23
 80035e0:	18fb      	adds	r3, r7, r3
 80035e2:	2201      	movs	r2, #1
 80035e4:	701a      	strb	r2, [r3, #0]
 80035e6:	4b9d      	ldr	r3, [pc, #628]	; (800385c <HAL_RCCEx_PeriphCLKConfig+0x2c0>)
 80035e8:	681a      	ldr	r2, [r3, #0]
 80035ea:	2380      	movs	r3, #128	; 0x80
 80035ec:	005b      	lsls	r3, r3, #1
 80035ee:	4013      	ands	r3, r2
 80035f0:	d11a      	bne.n	8003628 <HAL_RCCEx_PeriphCLKConfig+0x8c>
 80035f2:	4b9a      	ldr	r3, [pc, #616]	; (800385c <HAL_RCCEx_PeriphCLKConfig+0x2c0>)
 80035f4:	681a      	ldr	r2, [r3, #0]
 80035f6:	4b99      	ldr	r3, [pc, #612]	; (800385c <HAL_RCCEx_PeriphCLKConfig+0x2c0>)
 80035f8:	2180      	movs	r1, #128	; 0x80
 80035fa:	0049      	lsls	r1, r1, #1
 80035fc:	430a      	orrs	r2, r1
 80035fe:	601a      	str	r2, [r3, #0]
 8003600:	f7fe fe6c 	bl	80022dc <HAL_GetTick>
 8003604:	0003      	movs	r3, r0
 8003606:	613b      	str	r3, [r7, #16]
 8003608:	e008      	b.n	800361c <HAL_RCCEx_PeriphCLKConfig+0x80>
 800360a:	f7fe fe67 	bl	80022dc <HAL_GetTick>
 800360e:	0002      	movs	r2, r0
 8003610:	693b      	ldr	r3, [r7, #16]
 8003612:	1ad3      	subs	r3, r2, r3
 8003614:	2b64      	cmp	r3, #100	; 0x64
 8003616:	d901      	bls.n	800361c <HAL_RCCEx_PeriphCLKConfig+0x80>
 8003618:	2303      	movs	r3, #3
 800361a:	e118      	b.n	800384e <HAL_RCCEx_PeriphCLKConfig+0x2b2>
 800361c:	4b8f      	ldr	r3, [pc, #572]	; (800385c <HAL_RCCEx_PeriphCLKConfig+0x2c0>)
 800361e:	681a      	ldr	r2, [r3, #0]
 8003620:	2380      	movs	r3, #128	; 0x80
 8003622:	005b      	lsls	r3, r3, #1
 8003624:	4013      	ands	r3, r2
 8003626:	d0f0      	beq.n	800360a <HAL_RCCEx_PeriphCLKConfig+0x6e>
 8003628:	4b8b      	ldr	r3, [pc, #556]	; (8003858 <HAL_RCCEx_PeriphCLKConfig+0x2bc>)
 800362a:	681a      	ldr	r2, [r3, #0]
 800362c:	23c0      	movs	r3, #192	; 0xc0
 800362e:	039b      	lsls	r3, r3, #14
 8003630:	4013      	ands	r3, r2
 8003632:	60fb      	str	r3, [r7, #12]
 8003634:	687b      	ldr	r3, [r7, #4]
 8003636:	685a      	ldr	r2, [r3, #4]
 8003638:	23c0      	movs	r3, #192	; 0xc0
 800363a:	039b      	lsls	r3, r3, #14
 800363c:	4013      	ands	r3, r2
 800363e:	68fa      	ldr	r2, [r7, #12]
 8003640:	429a      	cmp	r2, r3
 8003642:	d107      	bne.n	8003654 <HAL_RCCEx_PeriphCLKConfig+0xb8>
 8003644:	687b      	ldr	r3, [r7, #4]
 8003646:	689a      	ldr	r2, [r3, #8]
 8003648:	23c0      	movs	r3, #192	; 0xc0
 800364a:	039b      	lsls	r3, r3, #14
 800364c:	4013      	ands	r3, r2
 800364e:	68fa      	ldr	r2, [r7, #12]
 8003650:	429a      	cmp	r2, r3
 8003652:	d013      	beq.n	800367c <HAL_RCCEx_PeriphCLKConfig+0xe0>
 8003654:	687b      	ldr	r3, [r7, #4]
 8003656:	685a      	ldr	r2, [r3, #4]
 8003658:	23c0      	movs	r3, #192	; 0xc0
 800365a:	029b      	lsls	r3, r3, #10
 800365c:	401a      	ands	r2, r3
 800365e:	23c0      	movs	r3, #192	; 0xc0
 8003660:	029b      	lsls	r3, r3, #10
 8003662:	429a      	cmp	r2, r3
 8003664:	d10a      	bne.n	800367c <HAL_RCCEx_PeriphCLKConfig+0xe0>
 8003666:	4b7c      	ldr	r3, [pc, #496]	; (8003858 <HAL_RCCEx_PeriphCLKConfig+0x2bc>)
 8003668:	681a      	ldr	r2, [r3, #0]
 800366a:	2380      	movs	r3, #128	; 0x80
 800366c:	029b      	lsls	r3, r3, #10
 800366e:	401a      	ands	r2, r3
 8003670:	2380      	movs	r3, #128	; 0x80
 8003672:	029b      	lsls	r3, r3, #10
 8003674:	429a      	cmp	r2, r3
 8003676:	d101      	bne.n	800367c <HAL_RCCEx_PeriphCLKConfig+0xe0>
 8003678:	2301      	movs	r3, #1
 800367a:	e0e8      	b.n	800384e <HAL_RCCEx_PeriphCLKConfig+0x2b2>
 800367c:	4b76      	ldr	r3, [pc, #472]	; (8003858 <HAL_RCCEx_PeriphCLKConfig+0x2bc>)
 800367e:	6d1a      	ldr	r2, [r3, #80]	; 0x50
 8003680:	23c0      	movs	r3, #192	; 0xc0
 8003682:	029b      	lsls	r3, r3, #10
 8003684:	4013      	ands	r3, r2
 8003686:	60fb      	str	r3, [r7, #12]
 8003688:	68fb      	ldr	r3, [r7, #12]
 800368a:	2b00      	cmp	r3, #0
 800368c:	d049      	beq.n	8003722 <HAL_RCCEx_PeriphCLKConfig+0x186>
 800368e:	687b      	ldr	r3, [r7, #4]
 8003690:	685a      	ldr	r2, [r3, #4]
 8003692:	23c0      	movs	r3, #192	; 0xc0
 8003694:	029b      	lsls	r3, r3, #10
 8003696:	4013      	ands	r3, r2
 8003698:	68fa      	ldr	r2, [r7, #12]
 800369a:	429a      	cmp	r2, r3
 800369c:	d004      	beq.n	80036a8 <HAL_RCCEx_PeriphCLKConfig+0x10c>
 800369e:	687b      	ldr	r3, [r7, #4]
 80036a0:	681b      	ldr	r3, [r3, #0]
 80036a2:	2220      	movs	r2, #32
 80036a4:	4013      	ands	r3, r2
 80036a6:	d10d      	bne.n	80036c4 <HAL_RCCEx_PeriphCLKConfig+0x128>
 80036a8:	687b      	ldr	r3, [r7, #4]
 80036aa:	689a      	ldr	r2, [r3, #8]
 80036ac:	23c0      	movs	r3, #192	; 0xc0
 80036ae:	029b      	lsls	r3, r3, #10
 80036b0:	4013      	ands	r3, r2
 80036b2:	68fa      	ldr	r2, [r7, #12]
 80036b4:	429a      	cmp	r2, r3
 80036b6:	d034      	beq.n	8003722 <HAL_RCCEx_PeriphCLKConfig+0x186>
 80036b8:	687b      	ldr	r3, [r7, #4]
 80036ba:	681a      	ldr	r2, [r3, #0]
 80036bc:	2380      	movs	r3, #128	; 0x80
 80036be:	011b      	lsls	r3, r3, #4
 80036c0:	4013      	ands	r3, r2
 80036c2:	d02e      	beq.n	8003722 <HAL_RCCEx_PeriphCLKConfig+0x186>
 80036c4:	4b64      	ldr	r3, [pc, #400]	; (8003858 <HAL_RCCEx_PeriphCLKConfig+0x2bc>)
 80036c6:	6d1b      	ldr	r3, [r3, #80]	; 0x50
 80036c8:	4a65      	ldr	r2, [pc, #404]	; (8003860 <HAL_RCCEx_PeriphCLKConfig+0x2c4>)
 80036ca:	4013      	ands	r3, r2
 80036cc:	60fb      	str	r3, [r7, #12]
 80036ce:	4b62      	ldr	r3, [pc, #392]	; (8003858 <HAL_RCCEx_PeriphCLKConfig+0x2bc>)
 80036d0:	6d1a      	ldr	r2, [r3, #80]	; 0x50
 80036d2:	4b61      	ldr	r3, [pc, #388]	; (8003858 <HAL_RCCEx_PeriphCLKConfig+0x2bc>)
 80036d4:	2180      	movs	r1, #128	; 0x80
 80036d6:	0309      	lsls	r1, r1, #12
 80036d8:	430a      	orrs	r2, r1
 80036da:	651a      	str	r2, [r3, #80]	; 0x50
 80036dc:	4b5e      	ldr	r3, [pc, #376]	; (8003858 <HAL_RCCEx_PeriphCLKConfig+0x2bc>)
 80036de:	6d1a      	ldr	r2, [r3, #80]	; 0x50
 80036e0:	4b5d      	ldr	r3, [pc, #372]	; (8003858 <HAL_RCCEx_PeriphCLKConfig+0x2bc>)
 80036e2:	4960      	ldr	r1, [pc, #384]	; (8003864 <HAL_RCCEx_PeriphCLKConfig+0x2c8>)
 80036e4:	400a      	ands	r2, r1
 80036e6:	651a      	str	r2, [r3, #80]	; 0x50
 80036e8:	4b5b      	ldr	r3, [pc, #364]	; (8003858 <HAL_RCCEx_PeriphCLKConfig+0x2bc>)
 80036ea:	68fa      	ldr	r2, [r7, #12]
 80036ec:	651a      	str	r2, [r3, #80]	; 0x50
 80036ee:	68fa      	ldr	r2, [r7, #12]
 80036f0:	2380      	movs	r3, #128	; 0x80
 80036f2:	005b      	lsls	r3, r3, #1
 80036f4:	4013      	ands	r3, r2
 80036f6:	d014      	beq.n	8003722 <HAL_RCCEx_PeriphCLKConfig+0x186>
 80036f8:	f7fe fdf0 	bl	80022dc <HAL_GetTick>
 80036fc:	0003      	movs	r3, r0
 80036fe:	613b      	str	r3, [r7, #16]
 8003700:	e009      	b.n	8003716 <HAL_RCCEx_PeriphCLKConfig+0x17a>
 8003702:	f7fe fdeb 	bl	80022dc <HAL_GetTick>
 8003706:	0002      	movs	r2, r0
 8003708:	693b      	ldr	r3, [r7, #16]
 800370a:	1ad3      	subs	r3, r2, r3
 800370c:	4a56      	ldr	r2, [pc, #344]	; (8003868 <HAL_RCCEx_PeriphCLKConfig+0x2cc>)
 800370e:	4293      	cmp	r3, r2
 8003710:	d901      	bls.n	8003716 <HAL_RCCEx_PeriphCLKConfig+0x17a>
 8003712:	2303      	movs	r3, #3
 8003714:	e09b      	b.n	800384e <HAL_RCCEx_PeriphCLKConfig+0x2b2>
 8003716:	4b50      	ldr	r3, [pc, #320]	; (8003858 <HAL_RCCEx_PeriphCLKConfig+0x2bc>)
 8003718:	6d1a      	ldr	r2, [r3, #80]	; 0x50
 800371a:	2380      	movs	r3, #128	; 0x80
 800371c:	009b      	lsls	r3, r3, #2
 800371e:	4013      	ands	r3, r2
 8003720:	d0ef      	beq.n	8003702 <HAL_RCCEx_PeriphCLKConfig+0x166>
 8003722:	687b      	ldr	r3, [r7, #4]
 8003724:	685a      	ldr	r2, [r3, #4]
 8003726:	23c0      	movs	r3, #192	; 0xc0
 8003728:	029b      	lsls	r3, r3, #10
 800372a:	401a      	ands	r2, r3
 800372c:	23c0      	movs	r3, #192	; 0xc0
 800372e:	029b      	lsls	r3, r3, #10
 8003730:	429a      	cmp	r2, r3
 8003732:	d10c      	bne.n	800374e <HAL_RCCEx_PeriphCLKConfig+0x1b2>
 8003734:	4b48      	ldr	r3, [pc, #288]	; (8003858 <HAL_RCCEx_PeriphCLKConfig+0x2bc>)
 8003736:	681b      	ldr	r3, [r3, #0]
 8003738:	4a4c      	ldr	r2, [pc, #304]	; (800386c <HAL_RCCEx_PeriphCLKConfig+0x2d0>)
 800373a:	4013      	ands	r3, r2
 800373c:	0019      	movs	r1, r3
 800373e:	687b      	ldr	r3, [r7, #4]
 8003740:	685a      	ldr	r2, [r3, #4]
 8003742:	23c0      	movs	r3, #192	; 0xc0
 8003744:	039b      	lsls	r3, r3, #14
 8003746:	401a      	ands	r2, r3
 8003748:	4b43      	ldr	r3, [pc, #268]	; (8003858 <HAL_RCCEx_PeriphCLKConfig+0x2bc>)
 800374a:	430a      	orrs	r2, r1
 800374c:	601a      	str	r2, [r3, #0]
 800374e:	4b42      	ldr	r3, [pc, #264]	; (8003858 <HAL_RCCEx_PeriphCLKConfig+0x2bc>)
 8003750:	6d19      	ldr	r1, [r3, #80]	; 0x50
 8003752:	687b      	ldr	r3, [r7, #4]
 8003754:	685a      	ldr	r2, [r3, #4]
 8003756:	23c0      	movs	r3, #192	; 0xc0
 8003758:	029b      	lsls	r3, r3, #10
 800375a:	401a      	ands	r2, r3
 800375c:	4b3e      	ldr	r3, [pc, #248]	; (8003858 <HAL_RCCEx_PeriphCLKConfig+0x2bc>)
 800375e:	430a      	orrs	r2, r1
 8003760:	651a      	str	r2, [r3, #80]	; 0x50
 8003762:	2317      	movs	r3, #23
 8003764:	18fb      	adds	r3, r7, r3
 8003766:	781b      	ldrb	r3, [r3, #0]
 8003768:	2b01      	cmp	r3, #1
 800376a:	d105      	bne.n	8003778 <HAL_RCCEx_PeriphCLKConfig+0x1dc>
 800376c:	4b3a      	ldr	r3, [pc, #232]	; (8003858 <HAL_RCCEx_PeriphCLKConfig+0x2bc>)
 800376e:	6b9a      	ldr	r2, [r3, #56]	; 0x38
 8003770:	4b39      	ldr	r3, [pc, #228]	; (8003858 <HAL_RCCEx_PeriphCLKConfig+0x2bc>)
 8003772:	493f      	ldr	r1, [pc, #252]	; (8003870 <HAL_RCCEx_PeriphCLKConfig+0x2d4>)
 8003774:	400a      	ands	r2, r1
 8003776:	639a      	str	r2, [r3, #56]	; 0x38
 8003778:	687b      	ldr	r3, [r7, #4]
 800377a:	681b      	ldr	r3, [r3, #0]
 800377c:	2201      	movs	r2, #1
 800377e:	4013      	ands	r3, r2
 8003780:	d009      	beq.n	8003796 <HAL_RCCEx_PeriphCLKConfig+0x1fa>
 8003782:	4b35      	ldr	r3, [pc, #212]	; (8003858 <HAL_RCCEx_PeriphCLKConfig+0x2bc>)
 8003784:	6cdb      	ldr	r3, [r3, #76]	; 0x4c
 8003786:	2203      	movs	r2, #3
 8003788:	4393      	bics	r3, r2
 800378a:	0019      	movs	r1, r3
 800378c:	687b      	ldr	r3, [r7, #4]
 800378e:	68da      	ldr	r2, [r3, #12]
 8003790:	4b31      	ldr	r3, [pc, #196]	; (8003858 <HAL_RCCEx_PeriphCLKConfig+0x2bc>)
 8003792:	430a      	orrs	r2, r1
 8003794:	64da      	str	r2, [r3, #76]	; 0x4c
 8003796:	687b      	ldr	r3, [r7, #4]
 8003798:	681b      	ldr	r3, [r3, #0]
 800379a:	2202      	movs	r2, #2
 800379c:	4013      	ands	r3, r2
 800379e:	d009      	beq.n	80037b4 <HAL_RCCEx_PeriphCLKConfig+0x218>
 80037a0:	4b2d      	ldr	r3, [pc, #180]	; (8003858 <HAL_RCCEx_PeriphCLKConfig+0x2bc>)
 80037a2:	6cdb      	ldr	r3, [r3, #76]	; 0x4c
 80037a4:	220c      	movs	r2, #12
 80037a6:	4393      	bics	r3, r2
 80037a8:	0019      	movs	r1, r3
 80037aa:	687b      	ldr	r3, [r7, #4]
 80037ac:	691a      	ldr	r2, [r3, #16]
 80037ae:	4b2a      	ldr	r3, [pc, #168]	; (8003858 <HAL_RCCEx_PeriphCLKConfig+0x2bc>)
 80037b0:	430a      	orrs	r2, r1
 80037b2:	64da      	str	r2, [r3, #76]	; 0x4c
 80037b4:	687b      	ldr	r3, [r7, #4]
 80037b6:	681b      	ldr	r3, [r3, #0]
 80037b8:	2204      	movs	r2, #4
 80037ba:	4013      	ands	r3, r2
 80037bc:	d009      	beq.n	80037d2 <HAL_RCCEx_PeriphCLKConfig+0x236>
 80037be:	4b26      	ldr	r3, [pc, #152]	; (8003858 <HAL_RCCEx_PeriphCLKConfig+0x2bc>)
 80037c0:	6cdb      	ldr	r3, [r3, #76]	; 0x4c
 80037c2:	4a2c      	ldr	r2, [pc, #176]	; (8003874 <HAL_RCCEx_PeriphCLKConfig+0x2d8>)
 80037c4:	4013      	ands	r3, r2
 80037c6:	0019      	movs	r1, r3
 80037c8:	687b      	ldr	r3, [r7, #4]
 80037ca:	695a      	ldr	r2, [r3, #20]
 80037cc:	4b22      	ldr	r3, [pc, #136]	; (8003858 <HAL_RCCEx_PeriphCLKConfig+0x2bc>)
 80037ce:	430a      	orrs	r2, r1
 80037d0:	64da      	str	r2, [r3, #76]	; 0x4c
 80037d2:	687b      	ldr	r3, [r7, #4]
 80037d4:	681b      	ldr	r3, [r3, #0]
 80037d6:	2208      	movs	r2, #8
 80037d8:	4013      	ands	r3, r2
 80037da:	d009      	beq.n	80037f0 <HAL_RCCEx_PeriphCLKConfig+0x254>
 80037dc:	4b1e      	ldr	r3, [pc, #120]	; (8003858 <HAL_RCCEx_PeriphCLKConfig+0x2bc>)
 80037de:	6cdb      	ldr	r3, [r3, #76]	; 0x4c
 80037e0:	4a25      	ldr	r2, [pc, #148]	; (8003878 <HAL_RCCEx_PeriphCLKConfig+0x2dc>)
 80037e2:	4013      	ands	r3, r2
 80037e4:	0019      	movs	r1, r3
 80037e6:	687b      	ldr	r3, [r7, #4]
 80037e8:	699a      	ldr	r2, [r3, #24]
 80037ea:	4b1b      	ldr	r3, [pc, #108]	; (8003858 <HAL_RCCEx_PeriphCLKConfig+0x2bc>)
 80037ec:	430a      	orrs	r2, r1
 80037ee:	64da      	str	r2, [r3, #76]	; 0x4c
 80037f0:	687b      	ldr	r3, [r7, #4]
 80037f2:	681a      	ldr	r2, [r3, #0]
 80037f4:	2380      	movs	r3, #128	; 0x80
 80037f6:	005b      	lsls	r3, r3, #1
 80037f8:	4013      	ands	r3, r2
 80037fa:	d009      	beq.n	8003810 <HAL_RCCEx_PeriphCLKConfig+0x274>
 80037fc:	4b16      	ldr	r3, [pc, #88]	; (8003858 <HAL_RCCEx_PeriphCLKConfig+0x2bc>)
 80037fe:	6cdb      	ldr	r3, [r3, #76]	; 0x4c
 8003800:	4a17      	ldr	r2, [pc, #92]	; (8003860 <HAL_RCCEx_PeriphCLKConfig+0x2c4>)
 8003802:	4013      	ands	r3, r2
 8003804:	0019      	movs	r1, r3
 8003806:	687b      	ldr	r3, [r7, #4]
 8003808:	69da      	ldr	r2, [r3, #28]
 800380a:	4b13      	ldr	r3, [pc, #76]	; (8003858 <HAL_RCCEx_PeriphCLKConfig+0x2bc>)
 800380c:	430a      	orrs	r2, r1
 800380e:	64da      	str	r2, [r3, #76]	; 0x4c
 8003810:	687b      	ldr	r3, [r7, #4]
 8003812:	681b      	ldr	r3, [r3, #0]
 8003814:	2240      	movs	r2, #64	; 0x40
 8003816:	4013      	ands	r3, r2
 8003818:	d009      	beq.n	800382e <HAL_RCCEx_PeriphCLKConfig+0x292>
 800381a:	4b0f      	ldr	r3, [pc, #60]	; (8003858 <HAL_RCCEx_PeriphCLKConfig+0x2bc>)
 800381c:	6cdb      	ldr	r3, [r3, #76]	; 0x4c
 800381e:	4a17      	ldr	r2, [pc, #92]	; (800387c <HAL_RCCEx_PeriphCLKConfig+0x2e0>)
 8003820:	4013      	ands	r3, r2
 8003822:	0019      	movs	r1, r3
 8003824:	687b      	ldr	r3, [r7, #4]
 8003826:	6a5a      	ldr	r2, [r3, #36]	; 0x24
 8003828:	4b0b      	ldr	r3, [pc, #44]	; (8003858 <HAL_RCCEx_PeriphCLKConfig+0x2bc>)
 800382a:	430a      	orrs	r2, r1
 800382c:	64da      	str	r2, [r3, #76]	; 0x4c
 800382e:	687b      	ldr	r3, [r7, #4]
 8003830:	681b      	ldr	r3, [r3, #0]
 8003832:	2280      	movs	r2, #128	; 0x80
 8003834:	4013      	ands	r3, r2
 8003836:	d009      	beq.n	800384c <HAL_RCCEx_PeriphCLKConfig+0x2b0>
 8003838:	4b07      	ldr	r3, [pc, #28]	; (8003858 <HAL_RCCEx_PeriphCLKConfig+0x2bc>)
 800383a:	6cdb      	ldr	r3, [r3, #76]	; 0x4c
 800383c:	4a10      	ldr	r2, [pc, #64]	; (8003880 <HAL_RCCEx_PeriphCLKConfig+0x2e4>)
 800383e:	4013      	ands	r3, r2
 8003840:	0019      	movs	r1, r3
 8003842:	687b      	ldr	r3, [r7, #4]
 8003844:	6a1a      	ldr	r2, [r3, #32]
 8003846:	4b04      	ldr	r3, [pc, #16]	; (8003858 <HAL_RCCEx_PeriphCLKConfig+0x2bc>)
 8003848:	430a      	orrs	r2, r1
 800384a:	64da      	str	r2, [r3, #76]	; 0x4c
 800384c:	2300      	movs	r3, #0
 800384e:	0018      	movs	r0, r3
 8003850:	46bd      	mov	sp, r7
 8003852:	b006      	add	sp, #24
 8003854:	bd80      	pop	{r7, pc}
 8003856:	46c0      	nop			; (mov r8, r8)
 8003858:	40021000 	.word	0x40021000
 800385c:	40007000 	.word	0x40007000
 8003860:	fffcffff 	.word	0xfffcffff
 8003864:	fff7ffff 	.word	0xfff7ffff
 8003868:	00001388 	.word	0x00001388
 800386c:	ffcfffff 	.word	0xffcfffff
 8003870:	efffffff 	.word	0xefffffff
 8003874:	fffff3ff 	.word	0xfffff3ff
 8003878:	ffffcfff 	.word	0xffffcfff
 800387c:	fbffffff 	.word	0xfbffffff
 8003880:	fff3ffff 	.word	0xfff3ffff

08003884 <HAL_SPI_Init>:
 8003884:	b580      	push	{r7, lr}
 8003886:	b082      	sub	sp, #8
 8003888:	af00      	add	r7, sp, #0
 800388a:	6078      	str	r0, [r7, #4]
 800388c:	687b      	ldr	r3, [r7, #4]
 800388e:	2b00      	cmp	r3, #0
 8003890:	d101      	bne.n	8003896 <HAL_SPI_Init+0x12>
 8003892:	2301      	movs	r3, #1
 8003894:	e083      	b.n	800399e <HAL_SPI_Init+0x11a>
 8003896:	687b      	ldr	r3, [r7, #4]
 8003898:	6a5b      	ldr	r3, [r3, #36]	; 0x24
 800389a:	2b00      	cmp	r3, #0
 800389c:	d109      	bne.n	80038b2 <HAL_SPI_Init+0x2e>
 800389e:	687b      	ldr	r3, [r7, #4]
 80038a0:	685a      	ldr	r2, [r3, #4]
 80038a2:	2382      	movs	r3, #130	; 0x82
 80038a4:	005b      	lsls	r3, r3, #1
 80038a6:	429a      	cmp	r2, r3
 80038a8:	d009      	beq.n	80038be <HAL_SPI_Init+0x3a>
 80038aa:	687b      	ldr	r3, [r7, #4]
 80038ac:	2200      	movs	r2, #0
 80038ae:	61da      	str	r2, [r3, #28]
 80038b0:	e005      	b.n	80038be <HAL_SPI_Init+0x3a>
 80038b2:	687b      	ldr	r3, [r7, #4]
 80038b4:	2200      	movs	r2, #0
 80038b6:	611a      	str	r2, [r3, #16]
 80038b8:	687b      	ldr	r3, [r7, #4]
 80038ba:	2200      	movs	r2, #0
 80038bc:	615a      	str	r2, [r3, #20]
 80038be:	687b      	ldr	r3, [r7, #4]
 80038c0:	2200      	movs	r2, #0
 80038c2:	629a      	str	r2, [r3, #40]	; 0x28
 80038c4:	687b      	ldr	r3, [r7, #4]
 80038c6:	2251      	movs	r2, #81	; 0x51
 80038c8:	5c9b      	ldrb	r3, [r3, r2]
 80038ca:	b2db      	uxtb	r3, r3
 80038cc:	2b00      	cmp	r3, #0
 80038ce:	d107      	bne.n	80038e0 <HAL_SPI_Init+0x5c>
 80038d0:	687b      	ldr	r3, [r7, #4]
 80038d2:	2250      	movs	r2, #80	; 0x50
 80038d4:	2100      	movs	r1, #0
 80038d6:	5499      	strb	r1, [r3, r2]
 80038d8:	687b      	ldr	r3, [r7, #4]
 80038da:	0018      	movs	r0, r3
 80038dc:	f7fe fafe 	bl	8001edc <HAL_SPI_MspInit>
 80038e0:	687b      	ldr	r3, [r7, #4]
 80038e2:	2251      	movs	r2, #81	; 0x51
 80038e4:	2102      	movs	r1, #2
 80038e6:	5499      	strb	r1, [r3, r2]
 80038e8:	687b      	ldr	r3, [r7, #4]
 80038ea:	681b      	ldr	r3, [r3, #0]
 80038ec:	681a      	ldr	r2, [r3, #0]
 80038ee:	687b      	ldr	r3, [r7, #4]
 80038f0:	681b      	ldr	r3, [r3, #0]
 80038f2:	2140      	movs	r1, #64	; 0x40
 80038f4:	438a      	bics	r2, r1
 80038f6:	601a      	str	r2, [r3, #0]
 80038f8:	687b      	ldr	r3, [r7, #4]
 80038fa:	685a      	ldr	r2, [r3, #4]
 80038fc:	2382      	movs	r3, #130	; 0x82
 80038fe:	005b      	lsls	r3, r3, #1
 8003900:	401a      	ands	r2, r3
 8003902:	687b      	ldr	r3, [r7, #4]
 8003904:	6899      	ldr	r1, [r3, #8]
 8003906:	2384      	movs	r3, #132	; 0x84
 8003908:	021b      	lsls	r3, r3, #8
 800390a:	400b      	ands	r3, r1
 800390c:	431a      	orrs	r2, r3
 800390e:	687b      	ldr	r3, [r7, #4]
 8003910:	68d9      	ldr	r1, [r3, #12]
 8003912:	2380      	movs	r3, #128	; 0x80
 8003914:	011b      	lsls	r3, r3, #4
 8003916:	400b      	ands	r3, r1
 8003918:	431a      	orrs	r2, r3
 800391a:	687b      	ldr	r3, [r7, #4]
 800391c:	691b      	ldr	r3, [r3, #16]
 800391e:	2102      	movs	r1, #2
 8003920:	400b      	ands	r3, r1
 8003922:	431a      	orrs	r2, r3
 8003924:	687b      	ldr	r3, [r7, #4]
 8003926:	695b      	ldr	r3, [r3, #20]
 8003928:	2101      	movs	r1, #1
 800392a:	400b      	ands	r3, r1
 800392c:	431a      	orrs	r2, r3
 800392e:	687b      	ldr	r3, [r7, #4]
 8003930:	6999      	ldr	r1, [r3, #24]
 8003932:	2380      	movs	r3, #128	; 0x80
 8003934:	009b      	lsls	r3, r3, #2
 8003936:	400b      	ands	r3, r1
 8003938:	431a      	orrs	r2, r3
 800393a:	687b      	ldr	r3, [r7, #4]
 800393c:	69db      	ldr	r3, [r3, #28]
 800393e:	2138      	movs	r1, #56	; 0x38
 8003940:	400b      	ands	r3, r1
 8003942:	431a      	orrs	r2, r3
 8003944:	687b      	ldr	r3, [r7, #4]
 8003946:	6a1b      	ldr	r3, [r3, #32]
 8003948:	2180      	movs	r1, #128	; 0x80
 800394a:	400b      	ands	r3, r1
 800394c:	431a      	orrs	r2, r3
 800394e:	0011      	movs	r1, r2
 8003950:	687b      	ldr	r3, [r7, #4]
 8003952:	6a9a      	ldr	r2, [r3, #40]	; 0x28
 8003954:	2380      	movs	r3, #128	; 0x80
 8003956:	019b      	lsls	r3, r3, #6
 8003958:	401a      	ands	r2, r3
 800395a:	687b      	ldr	r3, [r7, #4]
 800395c:	681b      	ldr	r3, [r3, #0]
 800395e:	430a      	orrs	r2, r1
 8003960:	601a      	str	r2, [r3, #0]
 8003962:	687b      	ldr	r3, [r7, #4]
 8003964:	699b      	ldr	r3, [r3, #24]
 8003966:	0c1b      	lsrs	r3, r3, #16
 8003968:	2204      	movs	r2, #4
 800396a:	4013      	ands	r3, r2
 800396c:	0019      	movs	r1, r3
 800396e:	687b      	ldr	r3, [r7, #4]
 8003970:	6a5b      	ldr	r3, [r3, #36]	; 0x24
 8003972:	2210      	movs	r2, #16
 8003974:	401a      	ands	r2, r3
 8003976:	687b      	ldr	r3, [r7, #4]
 8003978:	681b      	ldr	r3, [r3, #0]
 800397a:	430a      	orrs	r2, r1
 800397c:	605a      	str	r2, [r3, #4]
 800397e:	687b      	ldr	r3, [r7, #4]
 8003980:	681b      	ldr	r3, [r3, #0]
 8003982:	69da      	ldr	r2, [r3, #28]
 8003984:	687b      	ldr	r3, [r7, #4]
 8003986:	681b      	ldr	r3, [r3, #0]
 8003988:	4907      	ldr	r1, [pc, #28]	; (80039a8 <HAL_SPI_Init+0x124>)
 800398a:	400a      	ands	r2, r1
 800398c:	61da      	str	r2, [r3, #28]
 800398e:	687b      	ldr	r3, [r7, #4]
 8003990:	2200      	movs	r2, #0
 8003992:	655a      	str	r2, [r3, #84]	; 0x54
 8003994:	687b      	ldr	r3, [r7, #4]
 8003996:	2251      	movs	r2, #81	; 0x51
 8003998:	2101      	movs	r1, #1
 800399a:	5499      	strb	r1, [r3, r2]
 800399c:	2300      	movs	r3, #0
 800399e:	0018      	movs	r0, r3
 80039a0:	46bd      	mov	sp, r7
 80039a2:	b002      	add	sp, #8
 80039a4:	bd80      	pop	{r7, pc}
 80039a6:	46c0      	nop			; (mov r8, r8)
 80039a8:	fffff7ff 	.word	0xfffff7ff

080039ac <HAL_TIM_Base_Init>:
 80039ac:	b580      	push	{r7, lr}
 80039ae:	b082      	sub	sp, #8
 80039b0:	af00      	add	r7, sp, #0
 80039b2:	6078      	str	r0, [r7, #4]
 80039b4:	687b      	ldr	r3, [r7, #4]
 80039b6:	2b00      	cmp	r3, #0
 80039b8:	d101      	bne.n	80039be <HAL_TIM_Base_Init+0x12>
 80039ba:	2301      	movs	r3, #1
 80039bc:	e032      	b.n	8003a24 <HAL_TIM_Base_Init+0x78>
 80039be:	687b      	ldr	r3, [r7, #4]
 80039c0:	2239      	movs	r2, #57	; 0x39
 80039c2:	5c9b      	ldrb	r3, [r3, r2]
 80039c4:	b2db      	uxtb	r3, r3
 80039c6:	2b00      	cmp	r3, #0
 80039c8:	d107      	bne.n	80039da <HAL_TIM_Base_Init+0x2e>
 80039ca:	687b      	ldr	r3, [r7, #4]
 80039cc:	2238      	movs	r2, #56	; 0x38
 80039ce:	2100      	movs	r1, #0
 80039d0:	5499      	strb	r1, [r3, r2]
 80039d2:	687b      	ldr	r3, [r7, #4]
 80039d4:	0018      	movs	r0, r3
 80039d6:	f7fe fac7 	bl	8001f68 <HAL_TIM_Base_MspInit>
 80039da:	687b      	ldr	r3, [r7, #4]
 80039dc:	2239      	movs	r2, #57	; 0x39
 80039de:	2102      	movs	r1, #2
 80039e0:	5499      	strb	r1, [r3, r2]
 80039e2:	687b      	ldr	r3, [r7, #4]
 80039e4:	681a      	ldr	r2, [r3, #0]
 80039e6:	687b      	ldr	r3, [r7, #4]
 80039e8:	3304      	adds	r3, #4
 80039ea:	0019      	movs	r1, r3
 80039ec:	0010      	movs	r0, r2
 80039ee:	f000 fa4b 	bl	8003e88 <TIM_Base_SetConfig>
 80039f2:	687b      	ldr	r3, [r7, #4]
 80039f4:	223e      	movs	r2, #62	; 0x3e
 80039f6:	2101      	movs	r1, #1
 80039f8:	5499      	strb	r1, [r3, r2]
 80039fa:	687b      	ldr	r3, [r7, #4]
 80039fc:	223a      	movs	r2, #58	; 0x3a
 80039fe:	2101      	movs	r1, #1
 8003a00:	5499      	strb	r1, [r3, r2]
 8003a02:	687b      	ldr	r3, [r7, #4]
 8003a04:	223b      	movs	r2, #59	; 0x3b
 8003a06:	2101      	movs	r1, #1
 8003a08:	5499      	strb	r1, [r3, r2]
 8003a0a:	687b      	ldr	r3, [r7, #4]
 8003a0c:	223c      	movs	r2, #60	; 0x3c
 8003a0e:	2101      	movs	r1, #1
 8003a10:	5499      	strb	r1, [r3, r2]
 8003a12:	687b      	ldr	r3, [r7, #4]
 8003a14:	223d      	movs	r2, #61	; 0x3d
 8003a16:	2101      	movs	r1, #1
 8003a18:	5499      	strb	r1, [r3, r2]
 8003a1a:	687b      	ldr	r3, [r7, #4]
 8003a1c:	2239      	movs	r2, #57	; 0x39
 8003a1e:	2101      	movs	r1, #1
 8003a20:	5499      	strb	r1, [r3, r2]
 8003a22:	2300      	movs	r3, #0
 8003a24:	0018      	movs	r0, r3
 8003a26:	46bd      	mov	sp, r7
 8003a28:	b002      	add	sp, #8
 8003a2a:	bd80      	pop	{r7, pc}

08003a2c <HAL_TIM_Base_Start_IT>:
 8003a2c:	b580      	push	{r7, lr}
 8003a2e:	b084      	sub	sp, #16
 8003a30:	af00      	add	r7, sp, #0
 8003a32:	6078      	str	r0, [r7, #4]
 8003a34:	687b      	ldr	r3, [r7, #4]
 8003a36:	2239      	movs	r2, #57	; 0x39
 8003a38:	5c9b      	ldrb	r3, [r3, r2]
 8003a3a:	b2db      	uxtb	r3, r3
 8003a3c:	2b01      	cmp	r3, #1
 8003a3e:	d001      	beq.n	8003a44 <HAL_TIM_Base_Start_IT+0x18>
 8003a40:	2301      	movs	r3, #1
 8003a42:	e03b      	b.n	8003abc <HAL_TIM_Base_Start_IT+0x90>
 8003a44:	687b      	ldr	r3, [r7, #4]
 8003a46:	2239      	movs	r2, #57	; 0x39
 8003a48:	2102      	movs	r1, #2
 8003a4a:	5499      	strb	r1, [r3, r2]
 8003a4c:	687b      	ldr	r3, [r7, #4]
 8003a4e:	681b      	ldr	r3, [r3, #0]
 8003a50:	68da      	ldr	r2, [r3, #12]
 8003a52:	687b      	ldr	r3, [r7, #4]
 8003a54:	681b      	ldr	r3, [r3, #0]
 8003a56:	2101      	movs	r1, #1
 8003a58:	430a      	orrs	r2, r1
 8003a5a:	60da      	str	r2, [r3, #12]
 8003a5c:	687b      	ldr	r3, [r7, #4]
 8003a5e:	681a      	ldr	r2, [r3, #0]
 8003a60:	2380      	movs	r3, #128	; 0x80
 8003a62:	05db      	lsls	r3, r3, #23
 8003a64:	429a      	cmp	r2, r3
 8003a66:	d00e      	beq.n	8003a86 <HAL_TIM_Base_Start_IT+0x5a>
 8003a68:	687b      	ldr	r3, [r7, #4]
 8003a6a:	681b      	ldr	r3, [r3, #0]
 8003a6c:	4a15      	ldr	r2, [pc, #84]	; (8003ac4 <HAL_TIM_Base_Start_IT+0x98>)
 8003a6e:	4293      	cmp	r3, r2
 8003a70:	d009      	beq.n	8003a86 <HAL_TIM_Base_Start_IT+0x5a>
 8003a72:	687b      	ldr	r3, [r7, #4]
 8003a74:	681b      	ldr	r3, [r3, #0]
 8003a76:	4a14      	ldr	r2, [pc, #80]	; (8003ac8 <HAL_TIM_Base_Start_IT+0x9c>)
 8003a78:	4293      	cmp	r3, r2
 8003a7a:	d004      	beq.n	8003a86 <HAL_TIM_Base_Start_IT+0x5a>
 8003a7c:	687b      	ldr	r3, [r7, #4]
 8003a7e:	681b      	ldr	r3, [r3, #0]
 8003a80:	4a12      	ldr	r2, [pc, #72]	; (8003acc <HAL_TIM_Base_Start_IT+0xa0>)
 8003a82:	4293      	cmp	r3, r2
 8003a84:	d111      	bne.n	8003aaa <HAL_TIM_Base_Start_IT+0x7e>
 8003a86:	687b      	ldr	r3, [r7, #4]
 8003a88:	681b      	ldr	r3, [r3, #0]
 8003a8a:	689b      	ldr	r3, [r3, #8]
 8003a8c:	2207      	movs	r2, #7
 8003a8e:	4013      	ands	r3, r2
 8003a90:	60fb      	str	r3, [r7, #12]
 8003a92:	68fb      	ldr	r3, [r7, #12]
 8003a94:	2b06      	cmp	r3, #6
 8003a96:	d010      	beq.n	8003aba <HAL_TIM_Base_Start_IT+0x8e>
 8003a98:	687b      	ldr	r3, [r7, #4]
 8003a9a:	681b      	ldr	r3, [r3, #0]
 8003a9c:	681a      	ldr	r2, [r3, #0]
 8003a9e:	687b      	ldr	r3, [r7, #4]
 8003aa0:	681b      	ldr	r3, [r3, #0]
 8003aa2:	2101      	movs	r1, #1
 8003aa4:	430a      	orrs	r2, r1
 8003aa6:	601a      	str	r2, [r3, #0]
 8003aa8:	e007      	b.n	8003aba <HAL_TIM_Base_Start_IT+0x8e>
 8003aaa:	687b      	ldr	r3, [r7, #4]
 8003aac:	681b      	ldr	r3, [r3, #0]
 8003aae:	681a      	ldr	r2, [r3, #0]
 8003ab0:	687b      	ldr	r3, [r7, #4]
 8003ab2:	681b      	ldr	r3, [r3, #0]
 8003ab4:	2101      	movs	r1, #1
 8003ab6:	430a      	orrs	r2, r1
 8003ab8:	601a      	str	r2, [r3, #0]
 8003aba:	2300      	movs	r3, #0
 8003abc:	0018      	movs	r0, r3
 8003abe:	46bd      	mov	sp, r7
 8003ac0:	b004      	add	sp, #16
 8003ac2:	bd80      	pop	{r7, pc}
 8003ac4:	40000400 	.word	0x40000400
 8003ac8:	40010800 	.word	0x40010800
 8003acc:	40011400 	.word	0x40011400

08003ad0 <HAL_TIM_IRQHandler>:
 8003ad0:	b580      	push	{r7, lr}
 8003ad2:	b082      	sub	sp, #8
 8003ad4:	af00      	add	r7, sp, #0
 8003ad6:	6078      	str	r0, [r7, #4]
 8003ad8:	687b      	ldr	r3, [r7, #4]
 8003ada:	681b      	ldr	r3, [r3, #0]
 8003adc:	691b      	ldr	r3, [r3, #16]
 8003ade:	2202      	movs	r2, #2
 8003ae0:	4013      	ands	r3, r2
 8003ae2:	2b02      	cmp	r3, #2
 8003ae4:	d124      	bne.n	8003b30 <HAL_TIM_IRQHandler+0x60>
 8003ae6:	687b      	ldr	r3, [r7, #4]
 8003ae8:	681b      	ldr	r3, [r3, #0]
 8003aea:	68db      	ldr	r3, [r3, #12]
 8003aec:	2202      	movs	r2, #2
 8003aee:	4013      	ands	r3, r2
 8003af0:	2b02      	cmp	r3, #2
 8003af2:	d11d      	bne.n	8003b30 <HAL_TIM_IRQHandler+0x60>
 8003af4:	687b      	ldr	r3, [r7, #4]
 8003af6:	681b      	ldr	r3, [r3, #0]
 8003af8:	2203      	movs	r2, #3
 8003afa:	4252      	negs	r2, r2
 8003afc:	611a      	str	r2, [r3, #16]
 8003afe:	687b      	ldr	r3, [r7, #4]
 8003b00:	2201      	movs	r2, #1
 8003b02:	761a      	strb	r2, [r3, #24]
 8003b04:	687b      	ldr	r3, [r7, #4]
 8003b06:	681b      	ldr	r3, [r3, #0]
 8003b08:	699b      	ldr	r3, [r3, #24]
 8003b0a:	2203      	movs	r2, #3
 8003b0c:	4013      	ands	r3, r2
 8003b0e:	d004      	beq.n	8003b1a <HAL_TIM_IRQHandler+0x4a>
 8003b10:	687b      	ldr	r3, [r7, #4]
 8003b12:	0018      	movs	r0, r3
 8003b14:	f000 f9a0 	bl	8003e58 <HAL_TIM_IC_CaptureCallback>
 8003b18:	e007      	b.n	8003b2a <HAL_TIM_IRQHandler+0x5a>
 8003b1a:	687b      	ldr	r3, [r7, #4]
 8003b1c:	0018      	movs	r0, r3
 8003b1e:	f000 f993 	bl	8003e48 <HAL_TIM_OC_DelayElapsedCallback>
 8003b22:	687b      	ldr	r3, [r7, #4]
 8003b24:	0018      	movs	r0, r3
 8003b26:	f000 f99f 	bl	8003e68 <HAL_TIM_PWM_PulseFinishedCallback>
 8003b2a:	687b      	ldr	r3, [r7, #4]
 8003b2c:	2200      	movs	r2, #0
 8003b2e:	761a      	strb	r2, [r3, #24]
 8003b30:	687b      	ldr	r3, [r7, #4]
 8003b32:	681b      	ldr	r3, [r3, #0]
 8003b34:	691b      	ldr	r3, [r3, #16]
 8003b36:	2204      	movs	r2, #4
 8003b38:	4013      	ands	r3, r2
 8003b3a:	2b04      	cmp	r3, #4
 8003b3c:	d125      	bne.n	8003b8a <HAL_TIM_IRQHandler+0xba>
 8003b3e:	687b      	ldr	r3, [r7, #4]
 8003b40:	681b      	ldr	r3, [r3, #0]
 8003b42:	68db      	ldr	r3, [r3, #12]
 8003b44:	2204      	movs	r2, #4
 8003b46:	4013      	ands	r3, r2
 8003b48:	2b04      	cmp	r3, #4
 8003b4a:	d11e      	bne.n	8003b8a <HAL_TIM_IRQHandler+0xba>
 8003b4c:	687b      	ldr	r3, [r7, #4]
 8003b4e:	681b      	ldr	r3, [r3, #0]
 8003b50:	2205      	movs	r2, #5
 8003b52:	4252      	negs	r2, r2
 8003b54:	611a      	str	r2, [r3, #16]
 8003b56:	687b      	ldr	r3, [r7, #4]
 8003b58:	2202      	movs	r2, #2
 8003b5a:	761a      	strb	r2, [r3, #24]
 8003b5c:	687b      	ldr	r3, [r7, #4]
 8003b5e:	681b      	ldr	r3, [r3, #0]
 8003b60:	699a      	ldr	r2, [r3, #24]
 8003b62:	23c0      	movs	r3, #192	; 0xc0
 8003b64:	009b      	lsls	r3, r3, #2
 8003b66:	4013      	ands	r3, r2
 8003b68:	d004      	beq.n	8003b74 <HAL_TIM_IRQHandler+0xa4>
 8003b6a:	687b      	ldr	r3, [r7, #4]
 8003b6c:	0018      	movs	r0, r3
 8003b6e:	f000 f973 	bl	8003e58 <HAL_TIM_IC_CaptureCallback>
 8003b72:	e007      	b.n	8003b84 <HAL_TIM_IRQHandler+0xb4>
 8003b74:	687b      	ldr	r3, [r7, #4]
 8003b76:	0018      	movs	r0, r3
 8003b78:	f000 f966 	bl	8003e48 <HAL_TIM_OC_DelayElapsedCallback>
 8003b7c:	687b      	ldr	r3, [r7, #4]
 8003b7e:	0018      	movs	r0, r3
 8003b80:	f000 f972 	bl	8003e68 <HAL_TIM_PWM_PulseFinishedCallback>
 8003b84:	687b      	ldr	r3, [r7, #4]
 8003b86:	2200      	movs	r2, #0
 8003b88:	761a      	strb	r2, [r3, #24]
 8003b8a:	687b      	ldr	r3, [r7, #4]
 8003b8c:	681b      	ldr	r3, [r3, #0]
 8003b8e:	691b      	ldr	r3, [r3, #16]
 8003b90:	2208      	movs	r2, #8
 8003b92:	4013      	ands	r3, r2
 8003b94:	2b08      	cmp	r3, #8
 8003b96:	d124      	bne.n	8003be2 <HAL_TIM_IRQHandler+0x112>
 8003b98:	687b      	ldr	r3, [r7, #4]
 8003b9a:	681b      	ldr	r3, [r3, #0]
 8003b9c:	68db      	ldr	r3, [r3, #12]
 8003b9e:	2208      	movs	r2, #8
 8003ba0:	4013      	ands	r3, r2
 8003ba2:	2b08      	cmp	r3, #8
 8003ba4:	d11d      	bne.n	8003be2 <HAL_TIM_IRQHandler+0x112>
 8003ba6:	687b      	ldr	r3, [r7, #4]
 8003ba8:	681b      	ldr	r3, [r3, #0]
 8003baa:	2209      	movs	r2, #9
 8003bac:	4252      	negs	r2, r2
 8003bae:	611a      	str	r2, [r3, #16]
 8003bb0:	687b      	ldr	r3, [r7, #4]
 8003bb2:	2204      	movs	r2, #4
 8003bb4:	761a      	strb	r2, [r3, #24]
 8003bb6:	687b      	ldr	r3, [r7, #4]
 8003bb8:	681b      	ldr	r3, [r3, #0]
 8003bba:	69db      	ldr	r3, [r3, #28]
 8003bbc:	2203      	movs	r2, #3
 8003bbe:	4013      	ands	r3, r2
 8003bc0:	d004      	beq.n	8003bcc <HAL_TIM_IRQHandler+0xfc>
 8003bc2:	687b      	ldr	r3, [r7, #4]
 8003bc4:	0018      	movs	r0, r3
 8003bc6:	f000 f947 	bl	8003e58 <HAL_TIM_IC_CaptureCallback>
 8003bca:	e007      	b.n	8003bdc <HAL_TIM_IRQHandler+0x10c>
 8003bcc:	687b      	ldr	r3, [r7, #4]
 8003bce:	0018      	movs	r0, r3
 8003bd0:	f000 f93a 	bl	8003e48 <HAL_TIM_OC_DelayElapsedCallback>
 8003bd4:	687b      	ldr	r3, [r7, #4]
 8003bd6:	0018      	movs	r0, r3
 8003bd8:	f000 f946 	bl	8003e68 <HAL_TIM_PWM_PulseFinishedCallback>
 8003bdc:	687b      	ldr	r3, [r7, #4]
 8003bde:	2200      	movs	r2, #0
 8003be0:	761a      	strb	r2, [r3, #24]
 8003be2:	687b      	ldr	r3, [r7, #4]
 8003be4:	681b      	ldr	r3, [r3, #0]
 8003be6:	691b      	ldr	r3, [r3, #16]
 8003be8:	2210      	movs	r2, #16
 8003bea:	4013      	ands	r3, r2
 8003bec:	2b10      	cmp	r3, #16
 8003bee:	d125      	bne.n	8003c3c <HAL_TIM_IRQHandler+0x16c>
 8003bf0:	687b      	ldr	r3, [r7, #4]
 8003bf2:	681b      	ldr	r3, [r3, #0]
 8003bf4:	68db      	ldr	r3, [r3, #12]
 8003bf6:	2210      	movs	r2, #16
 8003bf8:	4013      	ands	r3, r2
 8003bfa:	2b10      	cmp	r3, #16
 8003bfc:	d11e      	bne.n	8003c3c <HAL_TIM_IRQHandler+0x16c>
 8003bfe:	687b      	ldr	r3, [r7, #4]
 8003c00:	681b      	ldr	r3, [r3, #0]
 8003c02:	2211      	movs	r2, #17
 8003c04:	4252      	negs	r2, r2
 8003c06:	611a      	str	r2, [r3, #16]
 8003c08:	687b      	ldr	r3, [r7, #4]
 8003c0a:	2208      	movs	r2, #8
 8003c0c:	761a      	strb	r2, [r3, #24]
 8003c0e:	687b      	ldr	r3, [r7, #4]
 8003c10:	681b      	ldr	r3, [r3, #0]
 8003c12:	69da      	ldr	r2, [r3, #28]
 8003c14:	23c0      	movs	r3, #192	; 0xc0
 8003c16:	009b      	lsls	r3, r3, #2
 8003c18:	4013      	ands	r3, r2
 8003c1a:	d004      	beq.n	8003c26 <HAL_TIM_IRQHandler+0x156>
 8003c1c:	687b      	ldr	r3, [r7, #4]
 8003c1e:	0018      	movs	r0, r3
 8003c20:	f000 f91a 	bl	8003e58 <HAL_TIM_IC_CaptureCallback>
 8003c24:	e007      	b.n	8003c36 <HAL_TIM_IRQHandler+0x166>
 8003c26:	687b      	ldr	r3, [r7, #4]
 8003c28:	0018      	movs	r0, r3
 8003c2a:	f000 f90d 	bl	8003e48 <HAL_TIM_OC_DelayElapsedCallback>
 8003c2e:	687b      	ldr	r3, [r7, #4]
 8003c30:	0018      	movs	r0, r3
 8003c32:	f000 f919 	bl	8003e68 <HAL_TIM_PWM_PulseFinishedCallback>
 8003c36:	687b      	ldr	r3, [r7, #4]
 8003c38:	2200      	movs	r2, #0
 8003c3a:	761a      	strb	r2, [r3, #24]
 8003c3c:	687b      	ldr	r3, [r7, #4]
 8003c3e:	681b      	ldr	r3, [r3, #0]
 8003c40:	691b      	ldr	r3, [r3, #16]
 8003c42:	2201      	movs	r2, #1
 8003c44:	4013      	ands	r3, r2
 8003c46:	2b01      	cmp	r3, #1
 8003c48:	d10f      	bne.n	8003c6a <HAL_TIM_IRQHandler+0x19a>
 8003c4a:	687b      	ldr	r3, [r7, #4]
 8003c4c:	681b      	ldr	r3, [r3, #0]
 8003c4e:	68db      	ldr	r3, [r3, #12]
 8003c50:	2201      	movs	r2, #1
 8003c52:	4013      	ands	r3, r2
 8003c54:	2b01      	cmp	r3, #1
 8003c56:	d108      	bne.n	8003c6a <HAL_TIM_IRQHandler+0x19a>
 8003c58:	687b      	ldr	r3, [r7, #4]
 8003c5a:	681b      	ldr	r3, [r3, #0]
 8003c5c:	2202      	movs	r2, #2
 8003c5e:	4252      	negs	r2, r2
 8003c60:	611a      	str	r2, [r3, #16]
 8003c62:	687b      	ldr	r3, [r7, #4]
 8003c64:	0018      	movs	r0, r3
 8003c66:	f7fd fb8f 	bl	8001388 <HAL_TIM_PeriodElapsedCallback>
 8003c6a:	687b      	ldr	r3, [r7, #4]
 8003c6c:	681b      	ldr	r3, [r3, #0]
 8003c6e:	691b      	ldr	r3, [r3, #16]
 8003c70:	2240      	movs	r2, #64	; 0x40
 8003c72:	4013      	ands	r3, r2
 8003c74:	2b40      	cmp	r3, #64	; 0x40
 8003c76:	d10f      	bne.n	8003c98 <HAL_TIM_IRQHandler+0x1c8>
 8003c78:	687b      	ldr	r3, [r7, #4]
 8003c7a:	681b      	ldr	r3, [r3, #0]
 8003c7c:	68db      	ldr	r3, [r3, #12]
 8003c7e:	2240      	movs	r2, #64	; 0x40
 8003c80:	4013      	ands	r3, r2
 8003c82:	2b40      	cmp	r3, #64	; 0x40
 8003c84:	d108      	bne.n	8003c98 <HAL_TIM_IRQHandler+0x1c8>
 8003c86:	687b      	ldr	r3, [r7, #4]
 8003c88:	681b      	ldr	r3, [r3, #0]
 8003c8a:	2241      	movs	r2, #65	; 0x41
 8003c8c:	4252      	negs	r2, r2
 8003c8e:	611a      	str	r2, [r3, #16]
 8003c90:	687b      	ldr	r3, [r7, #4]
 8003c92:	0018      	movs	r0, r3
 8003c94:	f000 f8f0 	bl	8003e78 <HAL_TIM_TriggerCallback>
 8003c98:	46c0      	nop			; (mov r8, r8)
 8003c9a:	46bd      	mov	sp, r7
 8003c9c:	b002      	add	sp, #8
 8003c9e:	bd80      	pop	{r7, pc}

08003ca0 <HAL_TIM_ConfigClockSource>:
 8003ca0:	b580      	push	{r7, lr}
 8003ca2:	b084      	sub	sp, #16
 8003ca4:	af00      	add	r7, sp, #0
 8003ca6:	6078      	str	r0, [r7, #4]
 8003ca8:	6039      	str	r1, [r7, #0]
 8003caa:	230f      	movs	r3, #15
 8003cac:	18fb      	adds	r3, r7, r3
 8003cae:	2200      	movs	r2, #0
 8003cb0:	701a      	strb	r2, [r3, #0]
 8003cb2:	687b      	ldr	r3, [r7, #4]
 8003cb4:	2238      	movs	r2, #56	; 0x38
 8003cb6:	5c9b      	ldrb	r3, [r3, r2]
 8003cb8:	2b01      	cmp	r3, #1
 8003cba:	d101      	bne.n	8003cc0 <HAL_TIM_ConfigClockSource+0x20>
 8003cbc:	2302      	movs	r3, #2
 8003cbe:	e0bc      	b.n	8003e3a <HAL_TIM_ConfigClockSource+0x19a>
 8003cc0:	687b      	ldr	r3, [r7, #4]
 8003cc2:	2238      	movs	r2, #56	; 0x38
 8003cc4:	2101      	movs	r1, #1
 8003cc6:	5499      	strb	r1, [r3, r2]
 8003cc8:	687b      	ldr	r3, [r7, #4]
 8003cca:	2239      	movs	r2, #57	; 0x39
 8003ccc:	2102      	movs	r1, #2
 8003cce:	5499      	strb	r1, [r3, r2]
 8003cd0:	687b      	ldr	r3, [r7, #4]
 8003cd2:	681b      	ldr	r3, [r3, #0]
 8003cd4:	689b      	ldr	r3, [r3, #8]
 8003cd6:	60bb      	str	r3, [r7, #8]
 8003cd8:	68bb      	ldr	r3, [r7, #8]
 8003cda:	2277      	movs	r2, #119	; 0x77
 8003cdc:	4393      	bics	r3, r2
 8003cde:	60bb      	str	r3, [r7, #8]
 8003ce0:	68bb      	ldr	r3, [r7, #8]
 8003ce2:	4a58      	ldr	r2, [pc, #352]	; (8003e44 <HAL_TIM_ConfigClockSource+0x1a4>)
 8003ce4:	4013      	ands	r3, r2
 8003ce6:	60bb      	str	r3, [r7, #8]
 8003ce8:	687b      	ldr	r3, [r7, #4]
 8003cea:	681b      	ldr	r3, [r3, #0]
 8003cec:	68ba      	ldr	r2, [r7, #8]
 8003cee:	609a      	str	r2, [r3, #8]
 8003cf0:	683b      	ldr	r3, [r7, #0]
 8003cf2:	681b      	ldr	r3, [r3, #0]
 8003cf4:	2280      	movs	r2, #128	; 0x80
 8003cf6:	0192      	lsls	r2, r2, #6
 8003cf8:	4293      	cmp	r3, r2
 8003cfa:	d040      	beq.n	8003d7e <HAL_TIM_ConfigClockSource+0xde>
 8003cfc:	2280      	movs	r2, #128	; 0x80
 8003cfe:	0192      	lsls	r2, r2, #6
 8003d00:	4293      	cmp	r3, r2
 8003d02:	d900      	bls.n	8003d06 <HAL_TIM_ConfigClockSource+0x66>
 8003d04:	e088      	b.n	8003e18 <HAL_TIM_ConfigClockSource+0x178>
 8003d06:	2280      	movs	r2, #128	; 0x80
 8003d08:	0152      	lsls	r2, r2, #5
 8003d0a:	4293      	cmp	r3, r2
 8003d0c:	d100      	bne.n	8003d10 <HAL_TIM_ConfigClockSource+0x70>
 8003d0e:	e088      	b.n	8003e22 <HAL_TIM_ConfigClockSource+0x182>
 8003d10:	2280      	movs	r2, #128	; 0x80
 8003d12:	0152      	lsls	r2, r2, #5
 8003d14:	4293      	cmp	r3, r2
 8003d16:	d900      	bls.n	8003d1a <HAL_TIM_ConfigClockSource+0x7a>
 8003d18:	e07e      	b.n	8003e18 <HAL_TIM_ConfigClockSource+0x178>
 8003d1a:	2b70      	cmp	r3, #112	; 0x70
 8003d1c:	d018      	beq.n	8003d50 <HAL_TIM_ConfigClockSource+0xb0>
 8003d1e:	d900      	bls.n	8003d22 <HAL_TIM_ConfigClockSource+0x82>
 8003d20:	e07a      	b.n	8003e18 <HAL_TIM_ConfigClockSource+0x178>
 8003d22:	2b60      	cmp	r3, #96	; 0x60
 8003d24:	d04f      	beq.n	8003dc6 <HAL_TIM_ConfigClockSource+0x126>
 8003d26:	d900      	bls.n	8003d2a <HAL_TIM_ConfigClockSource+0x8a>
 8003d28:	e076      	b.n	8003e18 <HAL_TIM_ConfigClockSource+0x178>
 8003d2a:	2b50      	cmp	r3, #80	; 0x50
 8003d2c:	d03b      	beq.n	8003da6 <HAL_TIM_ConfigClockSource+0x106>
 8003d2e:	d900      	bls.n	8003d32 <HAL_TIM_ConfigClockSource+0x92>
 8003d30:	e072      	b.n	8003e18 <HAL_TIM_ConfigClockSource+0x178>
 8003d32:	2b40      	cmp	r3, #64	; 0x40
 8003d34:	d057      	beq.n	8003de6 <HAL_TIM_ConfigClockSource+0x146>
 8003d36:	d900      	bls.n	8003d3a <HAL_TIM_ConfigClockSource+0x9a>
 8003d38:	e06e      	b.n	8003e18 <HAL_TIM_ConfigClockSource+0x178>
 8003d3a:	2b30      	cmp	r3, #48	; 0x30
 8003d3c:	d063      	beq.n	8003e06 <HAL_TIM_ConfigClockSource+0x166>
 8003d3e:	d86b      	bhi.n	8003e18 <HAL_TIM_ConfigClockSource+0x178>
 8003d40:	2b20      	cmp	r3, #32
 8003d42:	d060      	beq.n	8003e06 <HAL_TIM_ConfigClockSource+0x166>
 8003d44:	d868      	bhi.n	8003e18 <HAL_TIM_ConfigClockSource+0x178>
 8003d46:	2b00      	cmp	r3, #0
 8003d48:	d05d      	beq.n	8003e06 <HAL_TIM_ConfigClockSource+0x166>
 8003d4a:	2b10      	cmp	r3, #16
 8003d4c:	d05b      	beq.n	8003e06 <HAL_TIM_ConfigClockSource+0x166>
 8003d4e:	e063      	b.n	8003e18 <HAL_TIM_ConfigClockSource+0x178>
 8003d50:	687b      	ldr	r3, [r7, #4]
 8003d52:	6818      	ldr	r0, [r3, #0]
 8003d54:	683b      	ldr	r3, [r7, #0]
 8003d56:	6899      	ldr	r1, [r3, #8]
 8003d58:	683b      	ldr	r3, [r7, #0]
 8003d5a:	685a      	ldr	r2, [r3, #4]
 8003d5c:	683b      	ldr	r3, [r7, #0]
 8003d5e:	68db      	ldr	r3, [r3, #12]
 8003d60:	f000 f96a 	bl	8004038 <TIM_ETR_SetConfig>
 8003d64:	687b      	ldr	r3, [r7, #4]
 8003d66:	681b      	ldr	r3, [r3, #0]
 8003d68:	689b      	ldr	r3, [r3, #8]
 8003d6a:	60bb      	str	r3, [r7, #8]
 8003d6c:	68bb      	ldr	r3, [r7, #8]
 8003d6e:	2277      	movs	r2, #119	; 0x77
 8003d70:	4313      	orrs	r3, r2
 8003d72:	60bb      	str	r3, [r7, #8]
 8003d74:	687b      	ldr	r3, [r7, #4]
 8003d76:	681b      	ldr	r3, [r3, #0]
 8003d78:	68ba      	ldr	r2, [r7, #8]
 8003d7a:	609a      	str	r2, [r3, #8]
 8003d7c:	e052      	b.n	8003e24 <HAL_TIM_ConfigClockSource+0x184>
 8003d7e:	687b      	ldr	r3, [r7, #4]
 8003d80:	6818      	ldr	r0, [r3, #0]
 8003d82:	683b      	ldr	r3, [r7, #0]
 8003d84:	6899      	ldr	r1, [r3, #8]
 8003d86:	683b      	ldr	r3, [r7, #0]
 8003d88:	685a      	ldr	r2, [r3, #4]
 8003d8a:	683b      	ldr	r3, [r7, #0]
 8003d8c:	68db      	ldr	r3, [r3, #12]
 8003d8e:	f000 f953 	bl	8004038 <TIM_ETR_SetConfig>
 8003d92:	687b      	ldr	r3, [r7, #4]
 8003d94:	681b      	ldr	r3, [r3, #0]
 8003d96:	689a      	ldr	r2, [r3, #8]
 8003d98:	687b      	ldr	r3, [r7, #4]
 8003d9a:	681b      	ldr	r3, [r3, #0]
 8003d9c:	2180      	movs	r1, #128	; 0x80
 8003d9e:	01c9      	lsls	r1, r1, #7
 8003da0:	430a      	orrs	r2, r1
 8003da2:	609a      	str	r2, [r3, #8]
 8003da4:	e03e      	b.n	8003e24 <HAL_TIM_ConfigClockSource+0x184>
 8003da6:	687b      	ldr	r3, [r7, #4]
 8003da8:	6818      	ldr	r0, [r3, #0]
 8003daa:	683b      	ldr	r3, [r7, #0]
 8003dac:	6859      	ldr	r1, [r3, #4]
 8003dae:	683b      	ldr	r3, [r7, #0]
 8003db0:	68db      	ldr	r3, [r3, #12]
 8003db2:	001a      	movs	r2, r3
 8003db4:	f000 f8c6 	bl	8003f44 <TIM_TI1_ConfigInputStage>
 8003db8:	687b      	ldr	r3, [r7, #4]
 8003dba:	681b      	ldr	r3, [r3, #0]
 8003dbc:	2150      	movs	r1, #80	; 0x50
 8003dbe:	0018      	movs	r0, r3
 8003dc0:	f000 f920 	bl	8004004 <TIM_ITRx_SetConfig>
 8003dc4:	e02e      	b.n	8003e24 <HAL_TIM_ConfigClockSource+0x184>
 8003dc6:	687b      	ldr	r3, [r7, #4]
 8003dc8:	6818      	ldr	r0, [r3, #0]
 8003dca:	683b      	ldr	r3, [r7, #0]
 8003dcc:	6859      	ldr	r1, [r3, #4]
 8003dce:	683b      	ldr	r3, [r7, #0]
 8003dd0:	68db      	ldr	r3, [r3, #12]
 8003dd2:	001a      	movs	r2, r3
 8003dd4:	f000 f8e4 	bl	8003fa0 <TIM_TI2_ConfigInputStage>
 8003dd8:	687b      	ldr	r3, [r7, #4]
 8003dda:	681b      	ldr	r3, [r3, #0]
 8003ddc:	2160      	movs	r1, #96	; 0x60
 8003dde:	0018      	movs	r0, r3
 8003de0:	f000 f910 	bl	8004004 <TIM_ITRx_SetConfig>
 8003de4:	e01e      	b.n	8003e24 <HAL_TIM_ConfigClockSource+0x184>
 8003de6:	687b      	ldr	r3, [r7, #4]
 8003de8:	6818      	ldr	r0, [r3, #0]
 8003dea:	683b      	ldr	r3, [r7, #0]
 8003dec:	6859      	ldr	r1, [r3, #4]
 8003dee:	683b      	ldr	r3, [r7, #0]
 8003df0:	68db      	ldr	r3, [r3, #12]
 8003df2:	001a      	movs	r2, r3
 8003df4:	f000 f8a6 	bl	8003f44 <TIM_TI1_ConfigInputStage>
 8003df8:	687b      	ldr	r3, [r7, #4]
 8003dfa:	681b      	ldr	r3, [r3, #0]
 8003dfc:	2140      	movs	r1, #64	; 0x40
 8003dfe:	0018      	movs	r0, r3
 8003e00:	f000 f900 	bl	8004004 <TIM_ITRx_SetConfig>
 8003e04:	e00e      	b.n	8003e24 <HAL_TIM_ConfigClockSource+0x184>
 8003e06:	687b      	ldr	r3, [r7, #4]
 8003e08:	681a      	ldr	r2, [r3, #0]
 8003e0a:	683b      	ldr	r3, [r7, #0]
 8003e0c:	681b      	ldr	r3, [r3, #0]
 8003e0e:	0019      	movs	r1, r3
 8003e10:	0010      	movs	r0, r2
 8003e12:	f000 f8f7 	bl	8004004 <TIM_ITRx_SetConfig>
 8003e16:	e005      	b.n	8003e24 <HAL_TIM_ConfigClockSource+0x184>
 8003e18:	230f      	movs	r3, #15
 8003e1a:	18fb      	adds	r3, r7, r3
 8003e1c:	2201      	movs	r2, #1
 8003e1e:	701a      	strb	r2, [r3, #0]
 8003e20:	e000      	b.n	8003e24 <HAL_TIM_ConfigClockSource+0x184>
 8003e22:	46c0      	nop			; (mov r8, r8)
 8003e24:	687b      	ldr	r3, [r7, #4]
 8003e26:	2239      	movs	r2, #57	; 0x39
 8003e28:	2101      	movs	r1, #1
 8003e2a:	5499      	strb	r1, [r3, r2]
 8003e2c:	687b      	ldr	r3, [r7, #4]
 8003e2e:	2238      	movs	r2, #56	; 0x38
 8003e30:	2100      	movs	r1, #0
 8003e32:	5499      	strb	r1, [r3, r2]
 8003e34:	230f      	movs	r3, #15
 8003e36:	18fb      	adds	r3, r7, r3
 8003e38:	781b      	ldrb	r3, [r3, #0]
 8003e3a:	0018      	movs	r0, r3
 8003e3c:	46bd      	mov	sp, r7
 8003e3e:	b004      	add	sp, #16
 8003e40:	bd80      	pop	{r7, pc}
 8003e42:	46c0      	nop			; (mov r8, r8)
 8003e44:	ffff00ff 	.word	0xffff00ff

08003e48 <HAL_TIM_OC_DelayElapsedCallback>:
 8003e48:	b580      	push	{r7, lr}
 8003e4a:	b082      	sub	sp, #8
 8003e4c:	af00      	add	r7, sp, #0
 8003e4e:	6078      	str	r0, [r7, #4]
 8003e50:	46c0      	nop			; (mov r8, r8)
 8003e52:	46bd      	mov	sp, r7
 8003e54:	b002      	add	sp, #8
 8003e56:	bd80      	pop	{r7, pc}

08003e58 <HAL_TIM_IC_CaptureCallback>:
 8003e58:	b580      	push	{r7, lr}
 8003e5a:	b082      	sub	sp, #8
 8003e5c:	af00      	add	r7, sp, #0
 8003e5e:	6078      	str	r0, [r7, #4]
 8003e60:	46c0      	nop			; (mov r8, r8)
 8003e62:	46bd      	mov	sp, r7
 8003e64:	b002      	add	sp, #8
 8003e66:	bd80      	pop	{r7, pc}

08003e68 <HAL_TIM_PWM_PulseFinishedCallback>:
 8003e68:	b580      	push	{r7, lr}
 8003e6a:	b082      	sub	sp, #8
 8003e6c:	af00      	add	r7, sp, #0
 8003e6e:	6078      	str	r0, [r7, #4]
 8003e70:	46c0      	nop			; (mov r8, r8)
 8003e72:	46bd      	mov	sp, r7
 8003e74:	b002      	add	sp, #8
 8003e76:	bd80      	pop	{r7, pc}

08003e78 <HAL_TIM_TriggerCallback>:
 8003e78:	b580      	push	{r7, lr}
 8003e7a:	b082      	sub	sp, #8
 8003e7c:	af00      	add	r7, sp, #0
 8003e7e:	6078      	str	r0, [r7, #4]
 8003e80:	46c0      	nop			; (mov r8, r8)
 8003e82:	46bd      	mov	sp, r7
 8003e84:	b002      	add	sp, #8
 8003e86:	bd80      	pop	{r7, pc}

08003e88 <TIM_Base_SetConfig>:
 8003e88:	b580      	push	{r7, lr}
 8003e8a:	b084      	sub	sp, #16
 8003e8c:	af00      	add	r7, sp, #0
 8003e8e:	6078      	str	r0, [r7, #4]
 8003e90:	6039      	str	r1, [r7, #0]
 8003e92:	687b      	ldr	r3, [r7, #4]
 8003e94:	681b      	ldr	r3, [r3, #0]
 8003e96:	60fb      	str	r3, [r7, #12]
 8003e98:	687a      	ldr	r2, [r7, #4]
 8003e9a:	2380      	movs	r3, #128	; 0x80
 8003e9c:	05db      	lsls	r3, r3, #23
 8003e9e:	429a      	cmp	r2, r3
 8003ea0:	d00b      	beq.n	8003eba <TIM_Base_SetConfig+0x32>
 8003ea2:	687b      	ldr	r3, [r7, #4]
 8003ea4:	4a23      	ldr	r2, [pc, #140]	; (8003f34 <TIM_Base_SetConfig+0xac>)
 8003ea6:	4293      	cmp	r3, r2
 8003ea8:	d007      	beq.n	8003eba <TIM_Base_SetConfig+0x32>
 8003eaa:	687b      	ldr	r3, [r7, #4]
 8003eac:	4a22      	ldr	r2, [pc, #136]	; (8003f38 <TIM_Base_SetConfig+0xb0>)
 8003eae:	4293      	cmp	r3, r2
 8003eb0:	d003      	beq.n	8003eba <TIM_Base_SetConfig+0x32>
 8003eb2:	687b      	ldr	r3, [r7, #4]
 8003eb4:	4a21      	ldr	r2, [pc, #132]	; (8003f3c <TIM_Base_SetConfig+0xb4>)
 8003eb6:	4293      	cmp	r3, r2
 8003eb8:	d108      	bne.n	8003ecc <TIM_Base_SetConfig+0x44>
 8003eba:	68fb      	ldr	r3, [r7, #12]
 8003ebc:	2270      	movs	r2, #112	; 0x70
 8003ebe:	4393      	bics	r3, r2
 8003ec0:	60fb      	str	r3, [r7, #12]
 8003ec2:	683b      	ldr	r3, [r7, #0]
 8003ec4:	685b      	ldr	r3, [r3, #4]
 8003ec6:	68fa      	ldr	r2, [r7, #12]
 8003ec8:	4313      	orrs	r3, r2
 8003eca:	60fb      	str	r3, [r7, #12]
 8003ecc:	687a      	ldr	r2, [r7, #4]
 8003ece:	2380      	movs	r3, #128	; 0x80
 8003ed0:	05db      	lsls	r3, r3, #23
 8003ed2:	429a      	cmp	r2, r3
 8003ed4:	d00b      	beq.n	8003eee <TIM_Base_SetConfig+0x66>
 8003ed6:	687b      	ldr	r3, [r7, #4]
 8003ed8:	4a16      	ldr	r2, [pc, #88]	; (8003f34 <TIM_Base_SetConfig+0xac>)
 8003eda:	4293      	cmp	r3, r2
 8003edc:	d007      	beq.n	8003eee <TIM_Base_SetConfig+0x66>
 8003ede:	687b      	ldr	r3, [r7, #4]
 8003ee0:	4a15      	ldr	r2, [pc, #84]	; (8003f38 <TIM_Base_SetConfig+0xb0>)
 8003ee2:	4293      	cmp	r3, r2
 8003ee4:	d003      	beq.n	8003eee <TIM_Base_SetConfig+0x66>
 8003ee6:	687b      	ldr	r3, [r7, #4]
 8003ee8:	4a14      	ldr	r2, [pc, #80]	; (8003f3c <TIM_Base_SetConfig+0xb4>)
 8003eea:	4293      	cmp	r3, r2
 8003eec:	d108      	bne.n	8003f00 <TIM_Base_SetConfig+0x78>
 8003eee:	68fb      	ldr	r3, [r7, #12]
 8003ef0:	4a13      	ldr	r2, [pc, #76]	; (8003f40 <TIM_Base_SetConfig+0xb8>)
 8003ef2:	4013      	ands	r3, r2
 8003ef4:	60fb      	str	r3, [r7, #12]
 8003ef6:	683b      	ldr	r3, [r7, #0]
 8003ef8:	68db      	ldr	r3, [r3, #12]
 8003efa:	68fa      	ldr	r2, [r7, #12]
 8003efc:	4313      	orrs	r3, r2
 8003efe:	60fb      	str	r3, [r7, #12]
 8003f00:	68fb      	ldr	r3, [r7, #12]
 8003f02:	2280      	movs	r2, #128	; 0x80
 8003f04:	4393      	bics	r3, r2
 8003f06:	001a      	movs	r2, r3
 8003f08:	683b      	ldr	r3, [r7, #0]
 8003f0a:	691b      	ldr	r3, [r3, #16]
 8003f0c:	4313      	orrs	r3, r2
 8003f0e:	60fb      	str	r3, [r7, #12]
 8003f10:	687b      	ldr	r3, [r7, #4]
 8003f12:	68fa      	ldr	r2, [r7, #12]
 8003f14:	601a      	str	r2, [r3, #0]
 8003f16:	683b      	ldr	r3, [r7, #0]
 8003f18:	689a      	ldr	r2, [r3, #8]
 8003f1a:	687b      	ldr	r3, [r7, #4]
 8003f1c:	62da      	str	r2, [r3, #44]	; 0x2c
 8003f1e:	683b      	ldr	r3, [r7, #0]
 8003f20:	681a      	ldr	r2, [r3, #0]
 8003f22:	687b      	ldr	r3, [r7, #4]
 8003f24:	629a      	str	r2, [r3, #40]	; 0x28
 8003f26:	687b      	ldr	r3, [r7, #4]
 8003f28:	2201      	movs	r2, #1
 8003f2a:	615a      	str	r2, [r3, #20]
 8003f2c:	46c0      	nop			; (mov r8, r8)
 8003f2e:	46bd      	mov	sp, r7
 8003f30:	b004      	add	sp, #16
 8003f32:	bd80      	pop	{r7, pc}
 8003f34:	40000400 	.word	0x40000400
 8003f38:	40010800 	.word	0x40010800
 8003f3c:	40011400 	.word	0x40011400
 8003f40:	fffffcff 	.word	0xfffffcff

08003f44 <TIM_TI1_ConfigInputStage>:
 8003f44:	b580      	push	{r7, lr}
 8003f46:	b086      	sub	sp, #24
 8003f48:	af00      	add	r7, sp, #0
 8003f4a:	60f8      	str	r0, [r7, #12]
 8003f4c:	60b9      	str	r1, [r7, #8]
 8003f4e:	607a      	str	r2, [r7, #4]
 8003f50:	68fb      	ldr	r3, [r7, #12]
 8003f52:	6a1b      	ldr	r3, [r3, #32]
 8003f54:	617b      	str	r3, [r7, #20]
 8003f56:	68fb      	ldr	r3, [r7, #12]
 8003f58:	6a1b      	ldr	r3, [r3, #32]
 8003f5a:	2201      	movs	r2, #1
 8003f5c:	4393      	bics	r3, r2
 8003f5e:	001a      	movs	r2, r3
 8003f60:	68fb      	ldr	r3, [r7, #12]
 8003f62:	621a      	str	r2, [r3, #32]
 8003f64:	68fb      	ldr	r3, [r7, #12]
 8003f66:	699b      	ldr	r3, [r3, #24]
 8003f68:	613b      	str	r3, [r7, #16]
 8003f6a:	693b      	ldr	r3, [r7, #16]
 8003f6c:	22f0      	movs	r2, #240	; 0xf0
 8003f6e:	4393      	bics	r3, r2
 8003f70:	613b      	str	r3, [r7, #16]
 8003f72:	687b      	ldr	r3, [r7, #4]
 8003f74:	011b      	lsls	r3, r3, #4
 8003f76:	693a      	ldr	r2, [r7, #16]
 8003f78:	4313      	orrs	r3, r2
 8003f7a:	613b      	str	r3, [r7, #16]
 8003f7c:	697b      	ldr	r3, [r7, #20]
 8003f7e:	220a      	movs	r2, #10
 8003f80:	4393      	bics	r3, r2
 8003f82:	617b      	str	r3, [r7, #20]
 8003f84:	697a      	ldr	r2, [r7, #20]
 8003f86:	68bb      	ldr	r3, [r7, #8]
 8003f88:	4313      	orrs	r3, r2
 8003f8a:	617b      	str	r3, [r7, #20]
 8003f8c:	68fb      	ldr	r3, [r7, #12]
 8003f8e:	693a      	ldr	r2, [r7, #16]
 8003f90:	619a      	str	r2, [r3, #24]
 8003f92:	68fb      	ldr	r3, [r7, #12]
 8003f94:	697a      	ldr	r2, [r7, #20]
 8003f96:	621a      	str	r2, [r3, #32]
 8003f98:	46c0      	nop			; (mov r8, r8)
 8003f9a:	46bd      	mov	sp, r7
 8003f9c:	b006      	add	sp, #24
 8003f9e:	bd80      	pop	{r7, pc}

08003fa0 <TIM_TI2_ConfigInputStage>:
 8003fa0:	b580      	push	{r7, lr}
 8003fa2:	b086      	sub	sp, #24
 8003fa4:	af00      	add	r7, sp, #0
 8003fa6:	60f8      	str	r0, [r7, #12]
 8003fa8:	60b9      	str	r1, [r7, #8]
 8003faa:	607a      	str	r2, [r7, #4]
 8003fac:	68fb      	ldr	r3, [r7, #12]
 8003fae:	6a1b      	ldr	r3, [r3, #32]
 8003fb0:	2210      	movs	r2, #16
 8003fb2:	4393      	bics	r3, r2
 8003fb4:	001a      	movs	r2, r3
 8003fb6:	68fb      	ldr	r3, [r7, #12]
 8003fb8:	621a      	str	r2, [r3, #32]
 8003fba:	68fb      	ldr	r3, [r7, #12]
 8003fbc:	699b      	ldr	r3, [r3, #24]
 8003fbe:	617b      	str	r3, [r7, #20]
 8003fc0:	68fb      	ldr	r3, [r7, #12]
 8003fc2:	6a1b      	ldr	r3, [r3, #32]
 8003fc4:	613b      	str	r3, [r7, #16]
 8003fc6:	697b      	ldr	r3, [r7, #20]
 8003fc8:	4a0d      	ldr	r2, [pc, #52]	; (8004000 <TIM_TI2_ConfigInputStage+0x60>)
 8003fca:	4013      	ands	r3, r2
 8003fcc:	617b      	str	r3, [r7, #20]
 8003fce:	687b      	ldr	r3, [r7, #4]
 8003fd0:	031b      	lsls	r3, r3, #12
 8003fd2:	697a      	ldr	r2, [r7, #20]
 8003fd4:	4313      	orrs	r3, r2
 8003fd6:	617b      	str	r3, [r7, #20]
 8003fd8:	693b      	ldr	r3, [r7, #16]
 8003fda:	22a0      	movs	r2, #160	; 0xa0
 8003fdc:	4393      	bics	r3, r2
 8003fde:	613b      	str	r3, [r7, #16]
 8003fe0:	68bb      	ldr	r3, [r7, #8]
 8003fe2:	011b      	lsls	r3, r3, #4
 8003fe4:	693a      	ldr	r2, [r7, #16]
 8003fe6:	4313      	orrs	r3, r2
 8003fe8:	613b      	str	r3, [r7, #16]
 8003fea:	68fb      	ldr	r3, [r7, #12]
 8003fec:	697a      	ldr	r2, [r7, #20]
 8003fee:	619a      	str	r2, [r3, #24]
 8003ff0:	68fb      	ldr	r3, [r7, #12]
 8003ff2:	693a      	ldr	r2, [r7, #16]
 8003ff4:	621a      	str	r2, [r3, #32]
 8003ff6:	46c0      	nop			; (mov r8, r8)
 8003ff8:	46bd      	mov	sp, r7
 8003ffa:	b006      	add	sp, #24
 8003ffc:	bd80      	pop	{r7, pc}
 8003ffe:	46c0      	nop			; (mov r8, r8)
 8004000:	ffff0fff 	.word	0xffff0fff

08004004 <TIM_ITRx_SetConfig>:
 8004004:	b580      	push	{r7, lr}
 8004006:	b084      	sub	sp, #16
 8004008:	af00      	add	r7, sp, #0
 800400a:	6078      	str	r0, [r7, #4]
 800400c:	6039      	str	r1, [r7, #0]
 800400e:	687b      	ldr	r3, [r7, #4]
 8004010:	689b      	ldr	r3, [r3, #8]
 8004012:	60fb      	str	r3, [r7, #12]
 8004014:	68fb      	ldr	r3, [r7, #12]
 8004016:	2270      	movs	r2, #112	; 0x70
 8004018:	4393      	bics	r3, r2
 800401a:	60fb      	str	r3, [r7, #12]
 800401c:	683a      	ldr	r2, [r7, #0]
 800401e:	68fb      	ldr	r3, [r7, #12]
 8004020:	4313      	orrs	r3, r2
 8004022:	2207      	movs	r2, #7
 8004024:	4313      	orrs	r3, r2
 8004026:	60fb      	str	r3, [r7, #12]
 8004028:	687b      	ldr	r3, [r7, #4]
 800402a:	68fa      	ldr	r2, [r7, #12]
 800402c:	609a      	str	r2, [r3, #8]
 800402e:	46c0      	nop			; (mov r8, r8)
 8004030:	46bd      	mov	sp, r7
 8004032:	b004      	add	sp, #16
 8004034:	bd80      	pop	{r7, pc}
	...

08004038 <TIM_ETR_SetConfig>:
 8004038:	b580      	push	{r7, lr}
 800403a:	b086      	sub	sp, #24
 800403c:	af00      	add	r7, sp, #0
 800403e:	60f8      	str	r0, [r7, #12]
 8004040:	60b9      	str	r1, [r7, #8]
 8004042:	607a      	str	r2, [r7, #4]
 8004044:	603b      	str	r3, [r7, #0]
 8004046:	68fb      	ldr	r3, [r7, #12]
 8004048:	689b      	ldr	r3, [r3, #8]
 800404a:	617b      	str	r3, [r7, #20]
 800404c:	697b      	ldr	r3, [r7, #20]
 800404e:	4a09      	ldr	r2, [pc, #36]	; (8004074 <TIM_ETR_SetConfig+0x3c>)
 8004050:	4013      	ands	r3, r2
 8004052:	617b      	str	r3, [r7, #20]
 8004054:	683b      	ldr	r3, [r7, #0]
 8004056:	021a      	lsls	r2, r3, #8
 8004058:	687b      	ldr	r3, [r7, #4]
 800405a:	431a      	orrs	r2, r3
 800405c:	68bb      	ldr	r3, [r7, #8]
 800405e:	4313      	orrs	r3, r2
 8004060:	697a      	ldr	r2, [r7, #20]
 8004062:	4313      	orrs	r3, r2
 8004064:	617b      	str	r3, [r7, #20]
 8004066:	68fb      	ldr	r3, [r7, #12]
 8004068:	697a      	ldr	r2, [r7, #20]
 800406a:	609a      	str	r2, [r3, #8]
 800406c:	46c0      	nop			; (mov r8, r8)
 800406e:	46bd      	mov	sp, r7
 8004070:	b006      	add	sp, #24
 8004072:	bd80      	pop	{r7, pc}
 8004074:	ffff00ff 	.word	0xffff00ff

08004078 <HAL_TIMEx_MasterConfigSynchronization>:
 8004078:	b580      	push	{r7, lr}
 800407a:	b084      	sub	sp, #16
 800407c:	af00      	add	r7, sp, #0
 800407e:	6078      	str	r0, [r7, #4]
 8004080:	6039      	str	r1, [r7, #0]
 8004082:	687b      	ldr	r3, [r7, #4]
 8004084:	2238      	movs	r2, #56	; 0x38
 8004086:	5c9b      	ldrb	r3, [r3, r2]
 8004088:	2b01      	cmp	r3, #1
 800408a:	d101      	bne.n	8004090 <HAL_TIMEx_MasterConfigSynchronization+0x18>
 800408c:	2302      	movs	r3, #2
 800408e:	e047      	b.n	8004120 <HAL_TIMEx_MasterConfigSynchronization+0xa8>
 8004090:	687b      	ldr	r3, [r7, #4]
 8004092:	2238      	movs	r2, #56	; 0x38
 8004094:	2101      	movs	r1, #1
 8004096:	5499      	strb	r1, [r3, r2]
 8004098:	687b      	ldr	r3, [r7, #4]
 800409a:	2239      	movs	r2, #57	; 0x39
 800409c:	2102      	movs	r1, #2
 800409e:	5499      	strb	r1, [r3, r2]
 80040a0:	687b      	ldr	r3, [r7, #4]
 80040a2:	681b      	ldr	r3, [r3, #0]
 80040a4:	685b      	ldr	r3, [r3, #4]
 80040a6:	60fb      	str	r3, [r7, #12]
 80040a8:	687b      	ldr	r3, [r7, #4]
 80040aa:	681b      	ldr	r3, [r3, #0]
 80040ac:	689b      	ldr	r3, [r3, #8]
 80040ae:	60bb      	str	r3, [r7, #8]
 80040b0:	68fb      	ldr	r3, [r7, #12]
 80040b2:	2270      	movs	r2, #112	; 0x70
 80040b4:	4393      	bics	r3, r2
 80040b6:	60fb      	str	r3, [r7, #12]
 80040b8:	683b      	ldr	r3, [r7, #0]
 80040ba:	681b      	ldr	r3, [r3, #0]
 80040bc:	68fa      	ldr	r2, [r7, #12]
 80040be:	4313      	orrs	r3, r2
 80040c0:	60fb      	str	r3, [r7, #12]
 80040c2:	687b      	ldr	r3, [r7, #4]
 80040c4:	681b      	ldr	r3, [r3, #0]
 80040c6:	68fa      	ldr	r2, [r7, #12]
 80040c8:	605a      	str	r2, [r3, #4]
 80040ca:	687b      	ldr	r3, [r7, #4]
 80040cc:	681a      	ldr	r2, [r3, #0]
 80040ce:	2380      	movs	r3, #128	; 0x80
 80040d0:	05db      	lsls	r3, r3, #23
 80040d2:	429a      	cmp	r2, r3
 80040d4:	d00e      	beq.n	80040f4 <HAL_TIMEx_MasterConfigSynchronization+0x7c>
 80040d6:	687b      	ldr	r3, [r7, #4]
 80040d8:	681b      	ldr	r3, [r3, #0]
 80040da:	4a13      	ldr	r2, [pc, #76]	; (8004128 <HAL_TIMEx_MasterConfigSynchronization+0xb0>)
 80040dc:	4293      	cmp	r3, r2
 80040de:	d009      	beq.n	80040f4 <HAL_TIMEx_MasterConfigSynchronization+0x7c>
 80040e0:	687b      	ldr	r3, [r7, #4]
 80040e2:	681b      	ldr	r3, [r3, #0]
 80040e4:	4a11      	ldr	r2, [pc, #68]	; (800412c <HAL_TIMEx_MasterConfigSynchronization+0xb4>)
 80040e6:	4293      	cmp	r3, r2
 80040e8:	d004      	beq.n	80040f4 <HAL_TIMEx_MasterConfigSynchronization+0x7c>
 80040ea:	687b      	ldr	r3, [r7, #4]
 80040ec:	681b      	ldr	r3, [r3, #0]
 80040ee:	4a10      	ldr	r2, [pc, #64]	; (8004130 <HAL_TIMEx_MasterConfigSynchronization+0xb8>)
 80040f0:	4293      	cmp	r3, r2
 80040f2:	d10c      	bne.n	800410e <HAL_TIMEx_MasterConfigSynchronization+0x96>
 80040f4:	68bb      	ldr	r3, [r7, #8]
 80040f6:	2280      	movs	r2, #128	; 0x80
 80040f8:	4393      	bics	r3, r2
 80040fa:	60bb      	str	r3, [r7, #8]
 80040fc:	683b      	ldr	r3, [r7, #0]
 80040fe:	685b      	ldr	r3, [r3, #4]
 8004100:	68ba      	ldr	r2, [r7, #8]
 8004102:	4313      	orrs	r3, r2
 8004104:	60bb      	str	r3, [r7, #8]
 8004106:	687b      	ldr	r3, [r7, #4]
 8004108:	681b      	ldr	r3, [r3, #0]
 800410a:	68ba      	ldr	r2, [r7, #8]
 800410c:	609a      	str	r2, [r3, #8]
 800410e:	687b      	ldr	r3, [r7, #4]
 8004110:	2239      	movs	r2, #57	; 0x39
 8004112:	2101      	movs	r1, #1
 8004114:	5499      	strb	r1, [r3, r2]
 8004116:	687b      	ldr	r3, [r7, #4]
 8004118:	2238      	movs	r2, #56	; 0x38
 800411a:	2100      	movs	r1, #0
 800411c:	5499      	strb	r1, [r3, r2]
 800411e:	2300      	movs	r3, #0
 8004120:	0018      	movs	r0, r3
 8004122:	46bd      	mov	sp, r7
 8004124:	b004      	add	sp, #16
 8004126:	bd80      	pop	{r7, pc}
 8004128:	40000400 	.word	0x40000400
 800412c:	40010800 	.word	0x40010800
 8004130:	40011400 	.word	0x40011400

08004134 <HAL_UART_Init>:
 8004134:	b580      	push	{r7, lr}
 8004136:	b082      	sub	sp, #8
 8004138:	af00      	add	r7, sp, #0
 800413a:	6078      	str	r0, [r7, #4]
 800413c:	687b      	ldr	r3, [r7, #4]
 800413e:	2b00      	cmp	r3, #0
 8004140:	d101      	bne.n	8004146 <HAL_UART_Init+0x12>
 8004142:	2301      	movs	r3, #1
 8004144:	e044      	b.n	80041d0 <HAL_UART_Init+0x9c>
 8004146:	687b      	ldr	r3, [r7, #4]
 8004148:	6f9b      	ldr	r3, [r3, #120]	; 0x78
 800414a:	2b00      	cmp	r3, #0
 800414c:	d107      	bne.n	800415e <HAL_UART_Init+0x2a>
 800414e:	687b      	ldr	r3, [r7, #4]
 8004150:	2274      	movs	r2, #116	; 0x74
 8004152:	2100      	movs	r1, #0
 8004154:	5499      	strb	r1, [r3, r2]
 8004156:	687b      	ldr	r3, [r7, #4]
 8004158:	0018      	movs	r0, r3
 800415a:	f7fd ff39 	bl	8001fd0 <HAL_UART_MspInit>
 800415e:	687b      	ldr	r3, [r7, #4]
 8004160:	2224      	movs	r2, #36	; 0x24
 8004162:	679a      	str	r2, [r3, #120]	; 0x78
 8004164:	687b      	ldr	r3, [r7, #4]
 8004166:	681b      	ldr	r3, [r3, #0]
 8004168:	681a      	ldr	r2, [r3, #0]
 800416a:	687b      	ldr	r3, [r7, #4]
 800416c:	681b      	ldr	r3, [r3, #0]
 800416e:	2101      	movs	r1, #1
 8004170:	438a      	bics	r2, r1
 8004172:	601a      	str	r2, [r3, #0]
 8004174:	687b      	ldr	r3, [r7, #4]
 8004176:	0018      	movs	r0, r3
 8004178:	f000 fc36 	bl	80049e8 <UART_SetConfig>
 800417c:	0003      	movs	r3, r0
 800417e:	2b01      	cmp	r3, #1
 8004180:	d101      	bne.n	8004186 <HAL_UART_Init+0x52>
 8004182:	2301      	movs	r3, #1
 8004184:	e024      	b.n	80041d0 <HAL_UART_Init+0x9c>
 8004186:	687b      	ldr	r3, [r7, #4]
 8004188:	6a5b      	ldr	r3, [r3, #36]	; 0x24
 800418a:	2b00      	cmp	r3, #0
 800418c:	d003      	beq.n	8004196 <HAL_UART_Init+0x62>
 800418e:	687b      	ldr	r3, [r7, #4]
 8004190:	0018      	movs	r0, r3
 8004192:	f000 fee7 	bl	8004f64 <UART_AdvFeatureConfig>
 8004196:	687b      	ldr	r3, [r7, #4]
 8004198:	681b      	ldr	r3, [r3, #0]
 800419a:	685a      	ldr	r2, [r3, #4]
 800419c:	687b      	ldr	r3, [r7, #4]
 800419e:	681b      	ldr	r3, [r3, #0]
 80041a0:	490d      	ldr	r1, [pc, #52]	; (80041d8 <HAL_UART_Init+0xa4>)
 80041a2:	400a      	ands	r2, r1
 80041a4:	605a      	str	r2, [r3, #4]
 80041a6:	687b      	ldr	r3, [r7, #4]
 80041a8:	681b      	ldr	r3, [r3, #0]
 80041aa:	689a      	ldr	r2, [r3, #8]
 80041ac:	687b      	ldr	r3, [r7, #4]
 80041ae:	681b      	ldr	r3, [r3, #0]
 80041b0:	212a      	movs	r1, #42	; 0x2a
 80041b2:	438a      	bics	r2, r1
 80041b4:	609a      	str	r2, [r3, #8]
 80041b6:	687b      	ldr	r3, [r7, #4]
 80041b8:	681b      	ldr	r3, [r3, #0]
 80041ba:	681a      	ldr	r2, [r3, #0]
 80041bc:	687b      	ldr	r3, [r7, #4]
 80041be:	681b      	ldr	r3, [r3, #0]
 80041c0:	2101      	movs	r1, #1
 80041c2:	430a      	orrs	r2, r1
 80041c4:	601a      	str	r2, [r3, #0]
 80041c6:	687b      	ldr	r3, [r7, #4]
 80041c8:	0018      	movs	r0, r3
 80041ca:	f000 ff7f 	bl	80050cc <UART_CheckIdleState>
 80041ce:	0003      	movs	r3, r0
 80041d0:	0018      	movs	r0, r3
 80041d2:	46bd      	mov	sp, r7
 80041d4:	b002      	add	sp, #8
 80041d6:	bd80      	pop	{r7, pc}
 80041d8:	ffffb7ff 	.word	0xffffb7ff

080041dc <HAL_UART_Transmit>:
 80041dc:	b580      	push	{r7, lr}
 80041de:	b08a      	sub	sp, #40	; 0x28
 80041e0:	af02      	add	r7, sp, #8
 80041e2:	60f8      	str	r0, [r7, #12]
 80041e4:	60b9      	str	r1, [r7, #8]
 80041e6:	603b      	str	r3, [r7, #0]
 80041e8:	1dbb      	adds	r3, r7, #6
 80041ea:	801a      	strh	r2, [r3, #0]
 80041ec:	68fb      	ldr	r3, [r7, #12]
 80041ee:	6f9b      	ldr	r3, [r3, #120]	; 0x78
 80041f0:	2b20      	cmp	r3, #32
 80041f2:	d000      	beq.n	80041f6 <HAL_UART_Transmit+0x1a>
 80041f4:	e095      	b.n	8004322 <HAL_UART_Transmit+0x146>
 80041f6:	68bb      	ldr	r3, [r7, #8]
 80041f8:	2b00      	cmp	r3, #0
 80041fa:	d003      	beq.n	8004204 <HAL_UART_Transmit+0x28>
 80041fc:	1dbb      	adds	r3, r7, #6
 80041fe:	881b      	ldrh	r3, [r3, #0]
 8004200:	2b00      	cmp	r3, #0
 8004202:	d101      	bne.n	8004208 <HAL_UART_Transmit+0x2c>
 8004204:	2301      	movs	r3, #1
 8004206:	e08d      	b.n	8004324 <HAL_UART_Transmit+0x148>
 8004208:	68fb      	ldr	r3, [r7, #12]
 800420a:	689a      	ldr	r2, [r3, #8]
 800420c:	2380      	movs	r3, #128	; 0x80
 800420e:	015b      	lsls	r3, r3, #5
 8004210:	429a      	cmp	r2, r3
 8004212:	d109      	bne.n	8004228 <HAL_UART_Transmit+0x4c>
 8004214:	68fb      	ldr	r3, [r7, #12]
 8004216:	691b      	ldr	r3, [r3, #16]
 8004218:	2b00      	cmp	r3, #0
 800421a:	d105      	bne.n	8004228 <HAL_UART_Transmit+0x4c>
 800421c:	68bb      	ldr	r3, [r7, #8]
 800421e:	2201      	movs	r2, #1
 8004220:	4013      	ands	r3, r2
 8004222:	d001      	beq.n	8004228 <HAL_UART_Transmit+0x4c>
 8004224:	2301      	movs	r3, #1
 8004226:	e07d      	b.n	8004324 <HAL_UART_Transmit+0x148>
 8004228:	68fb      	ldr	r3, [r7, #12]
 800422a:	2274      	movs	r2, #116	; 0x74
 800422c:	5c9b      	ldrb	r3, [r3, r2]
 800422e:	2b01      	cmp	r3, #1
 8004230:	d101      	bne.n	8004236 <HAL_UART_Transmit+0x5a>
 8004232:	2302      	movs	r3, #2
 8004234:	e076      	b.n	8004324 <HAL_UART_Transmit+0x148>
 8004236:	68fb      	ldr	r3, [r7, #12]
 8004238:	2274      	movs	r2, #116	; 0x74
 800423a:	2101      	movs	r1, #1
 800423c:	5499      	strb	r1, [r3, r2]
 800423e:	68fb      	ldr	r3, [r7, #12]
 8004240:	2280      	movs	r2, #128	; 0x80
 8004242:	2100      	movs	r1, #0
 8004244:	5099      	str	r1, [r3, r2]
 8004246:	68fb      	ldr	r3, [r7, #12]
 8004248:	2221      	movs	r2, #33	; 0x21
 800424a:	679a      	str	r2, [r3, #120]	; 0x78
 800424c:	f7fe f846 	bl	80022dc <HAL_GetTick>
 8004250:	0003      	movs	r3, r0
 8004252:	617b      	str	r3, [r7, #20]
 8004254:	68fb      	ldr	r3, [r7, #12]
 8004256:	1dba      	adds	r2, r7, #6
 8004258:	2150      	movs	r1, #80	; 0x50
 800425a:	8812      	ldrh	r2, [r2, #0]
 800425c:	525a      	strh	r2, [r3, r1]
 800425e:	68fb      	ldr	r3, [r7, #12]
 8004260:	1dba      	adds	r2, r7, #6
 8004262:	2152      	movs	r1, #82	; 0x52
 8004264:	8812      	ldrh	r2, [r2, #0]
 8004266:	525a      	strh	r2, [r3, r1]
 8004268:	68fb      	ldr	r3, [r7, #12]
 800426a:	689a      	ldr	r2, [r3, #8]
 800426c:	2380      	movs	r3, #128	; 0x80
 800426e:	015b      	lsls	r3, r3, #5
 8004270:	429a      	cmp	r2, r3
 8004272:	d108      	bne.n	8004286 <HAL_UART_Transmit+0xaa>
 8004274:	68fb      	ldr	r3, [r7, #12]
 8004276:	691b      	ldr	r3, [r3, #16]
 8004278:	2b00      	cmp	r3, #0
 800427a:	d104      	bne.n	8004286 <HAL_UART_Transmit+0xaa>
 800427c:	2300      	movs	r3, #0
 800427e:	61fb      	str	r3, [r7, #28]
 8004280:	68bb      	ldr	r3, [r7, #8]
 8004282:	61bb      	str	r3, [r7, #24]
 8004284:	e003      	b.n	800428e <HAL_UART_Transmit+0xb2>
 8004286:	68bb      	ldr	r3, [r7, #8]
 8004288:	61fb      	str	r3, [r7, #28]
 800428a:	2300      	movs	r3, #0
 800428c:	61bb      	str	r3, [r7, #24]
 800428e:	68fb      	ldr	r3, [r7, #12]
 8004290:	2274      	movs	r2, #116	; 0x74
 8004292:	2100      	movs	r1, #0
 8004294:	5499      	strb	r1, [r3, r2]
 8004296:	e02c      	b.n	80042f2 <HAL_UART_Transmit+0x116>
 8004298:	697a      	ldr	r2, [r7, #20]
 800429a:	68f8      	ldr	r0, [r7, #12]
 800429c:	683b      	ldr	r3, [r7, #0]
 800429e:	9300      	str	r3, [sp, #0]
 80042a0:	0013      	movs	r3, r2
 80042a2:	2200      	movs	r2, #0
 80042a4:	2180      	movs	r1, #128	; 0x80
 80042a6:	f000 ff59 	bl	800515c <UART_WaitOnFlagUntilTimeout>
 80042aa:	1e03      	subs	r3, r0, #0
 80042ac:	d001      	beq.n	80042b2 <HAL_UART_Transmit+0xd6>
 80042ae:	2303      	movs	r3, #3
 80042b0:	e038      	b.n	8004324 <HAL_UART_Transmit+0x148>
 80042b2:	69fb      	ldr	r3, [r7, #28]
 80042b4:	2b00      	cmp	r3, #0
 80042b6:	d10b      	bne.n	80042d0 <HAL_UART_Transmit+0xf4>
 80042b8:	69bb      	ldr	r3, [r7, #24]
 80042ba:	881b      	ldrh	r3, [r3, #0]
 80042bc:	001a      	movs	r2, r3
 80042be:	68fb      	ldr	r3, [r7, #12]
 80042c0:	681b      	ldr	r3, [r3, #0]
 80042c2:	05d2      	lsls	r2, r2, #23
 80042c4:	0dd2      	lsrs	r2, r2, #23
 80042c6:	629a      	str	r2, [r3, #40]	; 0x28
 80042c8:	69bb      	ldr	r3, [r7, #24]
 80042ca:	3302      	adds	r3, #2
 80042cc:	61bb      	str	r3, [r7, #24]
 80042ce:	e007      	b.n	80042e0 <HAL_UART_Transmit+0x104>
 80042d0:	69fb      	ldr	r3, [r7, #28]
 80042d2:	781a      	ldrb	r2, [r3, #0]
 80042d4:	68fb      	ldr	r3, [r7, #12]
 80042d6:	681b      	ldr	r3, [r3, #0]
 80042d8:	629a      	str	r2, [r3, #40]	; 0x28
 80042da:	69fb      	ldr	r3, [r7, #28]
 80042dc:	3301      	adds	r3, #1
 80042de:	61fb      	str	r3, [r7, #28]
 80042e0:	68fb      	ldr	r3, [r7, #12]
 80042e2:	2252      	movs	r2, #82	; 0x52
 80042e4:	5a9b      	ldrh	r3, [r3, r2]
 80042e6:	b29b      	uxth	r3, r3
 80042e8:	3b01      	subs	r3, #1
 80042ea:	b299      	uxth	r1, r3
 80042ec:	68fb      	ldr	r3, [r7, #12]
 80042ee:	2252      	movs	r2, #82	; 0x52
 80042f0:	5299      	strh	r1, [r3, r2]
 80042f2:	68fb      	ldr	r3, [r7, #12]
 80042f4:	2252      	movs	r2, #82	; 0x52
 80042f6:	5a9b      	ldrh	r3, [r3, r2]
 80042f8:	b29b      	uxth	r3, r3
 80042fa:	2b00      	cmp	r3, #0
 80042fc:	d1cc      	bne.n	8004298 <HAL_UART_Transmit+0xbc>
 80042fe:	697a      	ldr	r2, [r7, #20]
 8004300:	68f8      	ldr	r0, [r7, #12]
 8004302:	683b      	ldr	r3, [r7, #0]
 8004304:	9300      	str	r3, [sp, #0]
 8004306:	0013      	movs	r3, r2
 8004308:	2200      	movs	r2, #0
 800430a:	2140      	movs	r1, #64	; 0x40
 800430c:	f000 ff26 	bl	800515c <UART_WaitOnFlagUntilTimeout>
 8004310:	1e03      	subs	r3, r0, #0
 8004312:	d001      	beq.n	8004318 <HAL_UART_Transmit+0x13c>
 8004314:	2303      	movs	r3, #3
 8004316:	e005      	b.n	8004324 <HAL_UART_Transmit+0x148>
 8004318:	68fb      	ldr	r3, [r7, #12]
 800431a:	2220      	movs	r2, #32
 800431c:	679a      	str	r2, [r3, #120]	; 0x78
 800431e:	2300      	movs	r3, #0
 8004320:	e000      	b.n	8004324 <HAL_UART_Transmit+0x148>
 8004322:	2302      	movs	r3, #2
 8004324:	0018      	movs	r0, r3
 8004326:	46bd      	mov	sp, r7
 8004328:	b008      	add	sp, #32
 800432a:	bd80      	pop	{r7, pc}

0800432c <HAL_UART_Receive_IT>:
 800432c:	b580      	push	{r7, lr}
 800432e:	b088      	sub	sp, #32
 8004330:	af00      	add	r7, sp, #0
 8004332:	60f8      	str	r0, [r7, #12]
 8004334:	60b9      	str	r1, [r7, #8]
 8004336:	1dbb      	adds	r3, r7, #6
 8004338:	801a      	strh	r2, [r3, #0]
 800433a:	68fb      	ldr	r3, [r7, #12]
 800433c:	6fdb      	ldr	r3, [r3, #124]	; 0x7c
 800433e:	2b20      	cmp	r3, #32
 8004340:	d155      	bne.n	80043ee <HAL_UART_Receive_IT+0xc2>
 8004342:	68bb      	ldr	r3, [r7, #8]
 8004344:	2b00      	cmp	r3, #0
 8004346:	d003      	beq.n	8004350 <HAL_UART_Receive_IT+0x24>
 8004348:	1dbb      	adds	r3, r7, #6
 800434a:	881b      	ldrh	r3, [r3, #0]
 800434c:	2b00      	cmp	r3, #0
 800434e:	d101      	bne.n	8004354 <HAL_UART_Receive_IT+0x28>
 8004350:	2301      	movs	r3, #1
 8004352:	e04d      	b.n	80043f0 <HAL_UART_Receive_IT+0xc4>
 8004354:	68fb      	ldr	r3, [r7, #12]
 8004356:	689a      	ldr	r2, [r3, #8]
 8004358:	2380      	movs	r3, #128	; 0x80
 800435a:	015b      	lsls	r3, r3, #5
 800435c:	429a      	cmp	r2, r3
 800435e:	d109      	bne.n	8004374 <HAL_UART_Receive_IT+0x48>
 8004360:	68fb      	ldr	r3, [r7, #12]
 8004362:	691b      	ldr	r3, [r3, #16]
 8004364:	2b00      	cmp	r3, #0
 8004366:	d105      	bne.n	8004374 <HAL_UART_Receive_IT+0x48>
 8004368:	68bb      	ldr	r3, [r7, #8]
 800436a:	2201      	movs	r2, #1
 800436c:	4013      	ands	r3, r2
 800436e:	d001      	beq.n	8004374 <HAL_UART_Receive_IT+0x48>
 8004370:	2301      	movs	r3, #1
 8004372:	e03d      	b.n	80043f0 <HAL_UART_Receive_IT+0xc4>
 8004374:	68fb      	ldr	r3, [r7, #12]
 8004376:	2274      	movs	r2, #116	; 0x74
 8004378:	5c9b      	ldrb	r3, [r3, r2]
 800437a:	2b01      	cmp	r3, #1
 800437c:	d101      	bne.n	8004382 <HAL_UART_Receive_IT+0x56>
 800437e:	2302      	movs	r3, #2
 8004380:	e036      	b.n	80043f0 <HAL_UART_Receive_IT+0xc4>
 8004382:	68fb      	ldr	r3, [r7, #12]
 8004384:	2274      	movs	r2, #116	; 0x74
 8004386:	2101      	movs	r1, #1
 8004388:	5499      	strb	r1, [r3, r2]
 800438a:	68fb      	ldr	r3, [r7, #12]
 800438c:	2200      	movs	r2, #0
 800438e:	661a      	str	r2, [r3, #96]	; 0x60
 8004390:	68fb      	ldr	r3, [r7, #12]
 8004392:	681b      	ldr	r3, [r3, #0]
 8004394:	4a18      	ldr	r2, [pc, #96]	; (80043f8 <HAL_UART_Receive_IT+0xcc>)
 8004396:	4293      	cmp	r3, r2
 8004398:	d020      	beq.n	80043dc <HAL_UART_Receive_IT+0xb0>
 800439a:	68fb      	ldr	r3, [r7, #12]
 800439c:	681b      	ldr	r3, [r3, #0]
 800439e:	685a      	ldr	r2, [r3, #4]
 80043a0:	2380      	movs	r3, #128	; 0x80
 80043a2:	041b      	lsls	r3, r3, #16
 80043a4:	4013      	ands	r3, r2
 80043a6:	d019      	beq.n	80043dc <HAL_UART_Receive_IT+0xb0>
 80043a8:	f3ef 8310 	mrs	r3, PRIMASK
 80043ac:	613b      	str	r3, [r7, #16]
 80043ae:	693b      	ldr	r3, [r7, #16]
 80043b0:	61fb      	str	r3, [r7, #28]
 80043b2:	2301      	movs	r3, #1
 80043b4:	617b      	str	r3, [r7, #20]
 80043b6:	697b      	ldr	r3, [r7, #20]
 80043b8:	f383 8810 	msr	PRIMASK, r3
 80043bc:	46c0      	nop			; (mov r8, r8)
 80043be:	68fb      	ldr	r3, [r7, #12]
 80043c0:	681b      	ldr	r3, [r3, #0]
 80043c2:	681a      	ldr	r2, [r3, #0]
 80043c4:	68fb      	ldr	r3, [r7, #12]
 80043c6:	681b      	ldr	r3, [r3, #0]
 80043c8:	2180      	movs	r1, #128	; 0x80
 80043ca:	04c9      	lsls	r1, r1, #19
 80043cc:	430a      	orrs	r2, r1
 80043ce:	601a      	str	r2, [r3, #0]
 80043d0:	69fb      	ldr	r3, [r7, #28]
 80043d2:	61bb      	str	r3, [r7, #24]
 80043d4:	69bb      	ldr	r3, [r7, #24]
 80043d6:	f383 8810 	msr	PRIMASK, r3
 80043da:	46c0      	nop			; (mov r8, r8)
 80043dc:	1dbb      	adds	r3, r7, #6
 80043de:	881a      	ldrh	r2, [r3, #0]
 80043e0:	68b9      	ldr	r1, [r7, #8]
 80043e2:	68fb      	ldr	r3, [r7, #12]
 80043e4:	0018      	movs	r0, r3
 80043e6:	f000 ff7d 	bl	80052e4 <UART_Start_Receive_IT>
 80043ea:	0003      	movs	r3, r0
 80043ec:	e000      	b.n	80043f0 <HAL_UART_Receive_IT+0xc4>
 80043ee:	2302      	movs	r3, #2
 80043f0:	0018      	movs	r0, r3
 80043f2:	46bd      	mov	sp, r7
 80043f4:	b008      	add	sp, #32
 80043f6:	bd80      	pop	{r7, pc}
 80043f8:	40004800 	.word	0x40004800

080043fc <HAL_UART_IRQHandler>:
 80043fc:	b590      	push	{r4, r7, lr}
 80043fe:	b0ab      	sub	sp, #172	; 0xac
 8004400:	af00      	add	r7, sp, #0
 8004402:	6078      	str	r0, [r7, #4]
 8004404:	687b      	ldr	r3, [r7, #4]
 8004406:	681b      	ldr	r3, [r3, #0]
 8004408:	69db      	ldr	r3, [r3, #28]
 800440a:	22a4      	movs	r2, #164	; 0xa4
 800440c:	18b9      	adds	r1, r7, r2
 800440e:	600b      	str	r3, [r1, #0]
 8004410:	687b      	ldr	r3, [r7, #4]
 8004412:	681b      	ldr	r3, [r3, #0]
 8004414:	681b      	ldr	r3, [r3, #0]
 8004416:	20a0      	movs	r0, #160	; 0xa0
 8004418:	1839      	adds	r1, r7, r0
 800441a:	600b      	str	r3, [r1, #0]
 800441c:	687b      	ldr	r3, [r7, #4]
 800441e:	681b      	ldr	r3, [r3, #0]
 8004420:	689b      	ldr	r3, [r3, #8]
 8004422:	219c      	movs	r1, #156	; 0x9c
 8004424:	1879      	adds	r1, r7, r1
 8004426:	600b      	str	r3, [r1, #0]
 8004428:	0011      	movs	r1, r2
 800442a:	18bb      	adds	r3, r7, r2
 800442c:	681b      	ldr	r3, [r3, #0]
 800442e:	4a99      	ldr	r2, [pc, #612]	; (8004694 <HAL_UART_IRQHandler+0x298>)
 8004430:	4013      	ands	r3, r2
 8004432:	2298      	movs	r2, #152	; 0x98
 8004434:	18bc      	adds	r4, r7, r2
 8004436:	6023      	str	r3, [r4, #0]
 8004438:	18bb      	adds	r3, r7, r2
 800443a:	681b      	ldr	r3, [r3, #0]
 800443c:	2b00      	cmp	r3, #0
 800443e:	d114      	bne.n	800446a <HAL_UART_IRQHandler+0x6e>
 8004440:	187b      	adds	r3, r7, r1
 8004442:	681b      	ldr	r3, [r3, #0]
 8004444:	2220      	movs	r2, #32
 8004446:	4013      	ands	r3, r2
 8004448:	d00f      	beq.n	800446a <HAL_UART_IRQHandler+0x6e>
 800444a:	183b      	adds	r3, r7, r0
 800444c:	681b      	ldr	r3, [r3, #0]
 800444e:	2220      	movs	r2, #32
 8004450:	4013      	ands	r3, r2
 8004452:	d00a      	beq.n	800446a <HAL_UART_IRQHandler+0x6e>
 8004454:	687b      	ldr	r3, [r7, #4]
 8004456:	6e5b      	ldr	r3, [r3, #100]	; 0x64
 8004458:	2b00      	cmp	r3, #0
 800445a:	d100      	bne.n	800445e <HAL_UART_IRQHandler+0x62>
 800445c:	e298      	b.n	8004990 <HAL_UART_IRQHandler+0x594>
 800445e:	687b      	ldr	r3, [r7, #4]
 8004460:	6e5b      	ldr	r3, [r3, #100]	; 0x64
 8004462:	687a      	ldr	r2, [r7, #4]
 8004464:	0010      	movs	r0, r2
 8004466:	4798      	blx	r3
 8004468:	e292      	b.n	8004990 <HAL_UART_IRQHandler+0x594>
 800446a:	2398      	movs	r3, #152	; 0x98
 800446c:	18fb      	adds	r3, r7, r3
 800446e:	681b      	ldr	r3, [r3, #0]
 8004470:	2b00      	cmp	r3, #0
 8004472:	d100      	bne.n	8004476 <HAL_UART_IRQHandler+0x7a>
 8004474:	e114      	b.n	80046a0 <HAL_UART_IRQHandler+0x2a4>
 8004476:	239c      	movs	r3, #156	; 0x9c
 8004478:	18fb      	adds	r3, r7, r3
 800447a:	681b      	ldr	r3, [r3, #0]
 800447c:	2201      	movs	r2, #1
 800447e:	4013      	ands	r3, r2
 8004480:	d106      	bne.n	8004490 <HAL_UART_IRQHandler+0x94>
 8004482:	23a0      	movs	r3, #160	; 0xa0
 8004484:	18fb      	adds	r3, r7, r3
 8004486:	681b      	ldr	r3, [r3, #0]
 8004488:	4a83      	ldr	r2, [pc, #524]	; (8004698 <HAL_UART_IRQHandler+0x29c>)
 800448a:	4013      	ands	r3, r2
 800448c:	d100      	bne.n	8004490 <HAL_UART_IRQHandler+0x94>
 800448e:	e107      	b.n	80046a0 <HAL_UART_IRQHandler+0x2a4>
 8004490:	23a4      	movs	r3, #164	; 0xa4
 8004492:	18fb      	adds	r3, r7, r3
 8004494:	681b      	ldr	r3, [r3, #0]
 8004496:	2201      	movs	r2, #1
 8004498:	4013      	ands	r3, r2
 800449a:	d012      	beq.n	80044c2 <HAL_UART_IRQHandler+0xc6>
 800449c:	23a0      	movs	r3, #160	; 0xa0
 800449e:	18fb      	adds	r3, r7, r3
 80044a0:	681a      	ldr	r2, [r3, #0]
 80044a2:	2380      	movs	r3, #128	; 0x80
 80044a4:	005b      	lsls	r3, r3, #1
 80044a6:	4013      	ands	r3, r2
 80044a8:	d00b      	beq.n	80044c2 <HAL_UART_IRQHandler+0xc6>
 80044aa:	687b      	ldr	r3, [r7, #4]
 80044ac:	681b      	ldr	r3, [r3, #0]
 80044ae:	2201      	movs	r2, #1
 80044b0:	621a      	str	r2, [r3, #32]
 80044b2:	687b      	ldr	r3, [r7, #4]
 80044b4:	2280      	movs	r2, #128	; 0x80
 80044b6:	589b      	ldr	r3, [r3, r2]
 80044b8:	2201      	movs	r2, #1
 80044ba:	431a      	orrs	r2, r3
 80044bc:	687b      	ldr	r3, [r7, #4]
 80044be:	2180      	movs	r1, #128	; 0x80
 80044c0:	505a      	str	r2, [r3, r1]
 80044c2:	23a4      	movs	r3, #164	; 0xa4
 80044c4:	18fb      	adds	r3, r7, r3
 80044c6:	681b      	ldr	r3, [r3, #0]
 80044c8:	2202      	movs	r2, #2
 80044ca:	4013      	ands	r3, r2
 80044cc:	d011      	beq.n	80044f2 <HAL_UART_IRQHandler+0xf6>
 80044ce:	239c      	movs	r3, #156	; 0x9c
 80044d0:	18fb      	adds	r3, r7, r3
 80044d2:	681b      	ldr	r3, [r3, #0]
 80044d4:	2201      	movs	r2, #1
 80044d6:	4013      	ands	r3, r2
 80044d8:	d00b      	beq.n	80044f2 <HAL_UART_IRQHandler+0xf6>
 80044da:	687b      	ldr	r3, [r7, #4]
 80044dc:	681b      	ldr	r3, [r3, #0]
 80044de:	2202      	movs	r2, #2
 80044e0:	621a      	str	r2, [r3, #32]
 80044e2:	687b      	ldr	r3, [r7, #4]
 80044e4:	2280      	movs	r2, #128	; 0x80
 80044e6:	589b      	ldr	r3, [r3, r2]
 80044e8:	2204      	movs	r2, #4
 80044ea:	431a      	orrs	r2, r3
 80044ec:	687b      	ldr	r3, [r7, #4]
 80044ee:	2180      	movs	r1, #128	; 0x80
 80044f0:	505a      	str	r2, [r3, r1]
 80044f2:	23a4      	movs	r3, #164	; 0xa4
 80044f4:	18fb      	adds	r3, r7, r3
 80044f6:	681b      	ldr	r3, [r3, #0]
 80044f8:	2204      	movs	r2, #4
 80044fa:	4013      	ands	r3, r2
 80044fc:	d011      	beq.n	8004522 <HAL_UART_IRQHandler+0x126>
 80044fe:	239c      	movs	r3, #156	; 0x9c
 8004500:	18fb      	adds	r3, r7, r3
 8004502:	681b      	ldr	r3, [r3, #0]
 8004504:	2201      	movs	r2, #1
 8004506:	4013      	ands	r3, r2
 8004508:	d00b      	beq.n	8004522 <HAL_UART_IRQHandler+0x126>
 800450a:	687b      	ldr	r3, [r7, #4]
 800450c:	681b      	ldr	r3, [r3, #0]
 800450e:	2204      	movs	r2, #4
 8004510:	621a      	str	r2, [r3, #32]
 8004512:	687b      	ldr	r3, [r7, #4]
 8004514:	2280      	movs	r2, #128	; 0x80
 8004516:	589b      	ldr	r3, [r3, r2]
 8004518:	2202      	movs	r2, #2
 800451a:	431a      	orrs	r2, r3
 800451c:	687b      	ldr	r3, [r7, #4]
 800451e:	2180      	movs	r1, #128	; 0x80
 8004520:	505a      	str	r2, [r3, r1]
 8004522:	23a4      	movs	r3, #164	; 0xa4
 8004524:	18fb      	adds	r3, r7, r3
 8004526:	681b      	ldr	r3, [r3, #0]
 8004528:	2208      	movs	r2, #8
 800452a:	4013      	ands	r3, r2
 800452c:	d017      	beq.n	800455e <HAL_UART_IRQHandler+0x162>
 800452e:	23a0      	movs	r3, #160	; 0xa0
 8004530:	18fb      	adds	r3, r7, r3
 8004532:	681b      	ldr	r3, [r3, #0]
 8004534:	2220      	movs	r2, #32
 8004536:	4013      	ands	r3, r2
 8004538:	d105      	bne.n	8004546 <HAL_UART_IRQHandler+0x14a>
 800453a:	239c      	movs	r3, #156	; 0x9c
 800453c:	18fb      	adds	r3, r7, r3
 800453e:	681b      	ldr	r3, [r3, #0]
 8004540:	2201      	movs	r2, #1
 8004542:	4013      	ands	r3, r2
 8004544:	d00b      	beq.n	800455e <HAL_UART_IRQHandler+0x162>
 8004546:	687b      	ldr	r3, [r7, #4]
 8004548:	681b      	ldr	r3, [r3, #0]
 800454a:	2208      	movs	r2, #8
 800454c:	621a      	str	r2, [r3, #32]
 800454e:	687b      	ldr	r3, [r7, #4]
 8004550:	2280      	movs	r2, #128	; 0x80
 8004552:	589b      	ldr	r3, [r3, r2]
 8004554:	2208      	movs	r2, #8
 8004556:	431a      	orrs	r2, r3
 8004558:	687b      	ldr	r3, [r7, #4]
 800455a:	2180      	movs	r1, #128	; 0x80
 800455c:	505a      	str	r2, [r3, r1]
 800455e:	23a4      	movs	r3, #164	; 0xa4
 8004560:	18fb      	adds	r3, r7, r3
 8004562:	681a      	ldr	r2, [r3, #0]
 8004564:	2380      	movs	r3, #128	; 0x80
 8004566:	011b      	lsls	r3, r3, #4
 8004568:	4013      	ands	r3, r2
 800456a:	d013      	beq.n	8004594 <HAL_UART_IRQHandler+0x198>
 800456c:	23a0      	movs	r3, #160	; 0xa0
 800456e:	18fb      	adds	r3, r7, r3
 8004570:	681a      	ldr	r2, [r3, #0]
 8004572:	2380      	movs	r3, #128	; 0x80
 8004574:	04db      	lsls	r3, r3, #19
 8004576:	4013      	ands	r3, r2
 8004578:	d00c      	beq.n	8004594 <HAL_UART_IRQHandler+0x198>
 800457a:	687b      	ldr	r3, [r7, #4]
 800457c:	681b      	ldr	r3, [r3, #0]
 800457e:	2280      	movs	r2, #128	; 0x80
 8004580:	0112      	lsls	r2, r2, #4
 8004582:	621a      	str	r2, [r3, #32]
 8004584:	687b      	ldr	r3, [r7, #4]
 8004586:	2280      	movs	r2, #128	; 0x80
 8004588:	589b      	ldr	r3, [r3, r2]
 800458a:	2220      	movs	r2, #32
 800458c:	431a      	orrs	r2, r3
 800458e:	687b      	ldr	r3, [r7, #4]
 8004590:	2180      	movs	r1, #128	; 0x80
 8004592:	505a      	str	r2, [r3, r1]
 8004594:	687b      	ldr	r3, [r7, #4]
 8004596:	2280      	movs	r2, #128	; 0x80
 8004598:	589b      	ldr	r3, [r3, r2]
 800459a:	2b00      	cmp	r3, #0
 800459c:	d100      	bne.n	80045a0 <HAL_UART_IRQHandler+0x1a4>
 800459e:	e1f9      	b.n	8004994 <HAL_UART_IRQHandler+0x598>
 80045a0:	23a4      	movs	r3, #164	; 0xa4
 80045a2:	18fb      	adds	r3, r7, r3
 80045a4:	681b      	ldr	r3, [r3, #0]
 80045a6:	2220      	movs	r2, #32
 80045a8:	4013      	ands	r3, r2
 80045aa:	d00e      	beq.n	80045ca <HAL_UART_IRQHandler+0x1ce>
 80045ac:	23a0      	movs	r3, #160	; 0xa0
 80045ae:	18fb      	adds	r3, r7, r3
 80045b0:	681b      	ldr	r3, [r3, #0]
 80045b2:	2220      	movs	r2, #32
 80045b4:	4013      	ands	r3, r2
 80045b6:	d008      	beq.n	80045ca <HAL_UART_IRQHandler+0x1ce>
 80045b8:	687b      	ldr	r3, [r7, #4]
 80045ba:	6e5b      	ldr	r3, [r3, #100]	; 0x64
 80045bc:	2b00      	cmp	r3, #0
 80045be:	d004      	beq.n	80045ca <HAL_UART_IRQHandler+0x1ce>
 80045c0:	687b      	ldr	r3, [r7, #4]
 80045c2:	6e5b      	ldr	r3, [r3, #100]	; 0x64
 80045c4:	687a      	ldr	r2, [r7, #4]
 80045c6:	0010      	movs	r0, r2
 80045c8:	4798      	blx	r3
 80045ca:	687b      	ldr	r3, [r7, #4]
 80045cc:	2280      	movs	r2, #128	; 0x80
 80045ce:	589b      	ldr	r3, [r3, r2]
 80045d0:	2194      	movs	r1, #148	; 0x94
 80045d2:	187a      	adds	r2, r7, r1
 80045d4:	6013      	str	r3, [r2, #0]
 80045d6:	687b      	ldr	r3, [r7, #4]
 80045d8:	681b      	ldr	r3, [r3, #0]
 80045da:	689b      	ldr	r3, [r3, #8]
 80045dc:	2240      	movs	r2, #64	; 0x40
 80045de:	4013      	ands	r3, r2
 80045e0:	2b40      	cmp	r3, #64	; 0x40
 80045e2:	d004      	beq.n	80045ee <HAL_UART_IRQHandler+0x1f2>
 80045e4:	187b      	adds	r3, r7, r1
 80045e6:	681b      	ldr	r3, [r3, #0]
 80045e8:	2228      	movs	r2, #40	; 0x28
 80045ea:	4013      	ands	r3, r2
 80045ec:	d047      	beq.n	800467e <HAL_UART_IRQHandler+0x282>
 80045ee:	687b      	ldr	r3, [r7, #4]
 80045f0:	0018      	movs	r0, r3
 80045f2:	f000 ff27 	bl	8005444 <UART_EndRxTransfer>
 80045f6:	687b      	ldr	r3, [r7, #4]
 80045f8:	681b      	ldr	r3, [r3, #0]
 80045fa:	689b      	ldr	r3, [r3, #8]
 80045fc:	2240      	movs	r2, #64	; 0x40
 80045fe:	4013      	ands	r3, r2
 8004600:	2b40      	cmp	r3, #64	; 0x40
 8004602:	d137      	bne.n	8004674 <HAL_UART_IRQHandler+0x278>
 8004604:	f3ef 8310 	mrs	r3, PRIMASK
 8004608:	663b      	str	r3, [r7, #96]	; 0x60
 800460a:	6e3b      	ldr	r3, [r7, #96]	; 0x60
 800460c:	2090      	movs	r0, #144	; 0x90
 800460e:	183a      	adds	r2, r7, r0
 8004610:	6013      	str	r3, [r2, #0]
 8004612:	2301      	movs	r3, #1
 8004614:	667b      	str	r3, [r7, #100]	; 0x64
 8004616:	6e7b      	ldr	r3, [r7, #100]	; 0x64
 8004618:	f383 8810 	msr	PRIMASK, r3
 800461c:	46c0      	nop			; (mov r8, r8)
 800461e:	687b      	ldr	r3, [r7, #4]
 8004620:	681b      	ldr	r3, [r3, #0]
 8004622:	689a      	ldr	r2, [r3, #8]
 8004624:	687b      	ldr	r3, [r7, #4]
 8004626:	681b      	ldr	r3, [r3, #0]
 8004628:	2140      	movs	r1, #64	; 0x40
 800462a:	438a      	bics	r2, r1
 800462c:	609a      	str	r2, [r3, #8]
 800462e:	183b      	adds	r3, r7, r0
 8004630:	681b      	ldr	r3, [r3, #0]
 8004632:	66bb      	str	r3, [r7, #104]	; 0x68
 8004634:	6ebb      	ldr	r3, [r7, #104]	; 0x68
 8004636:	f383 8810 	msr	PRIMASK, r3
 800463a:	46c0      	nop			; (mov r8, r8)
 800463c:	687b      	ldr	r3, [r7, #4]
 800463e:	6f1b      	ldr	r3, [r3, #112]	; 0x70
 8004640:	2b00      	cmp	r3, #0
 8004642:	d012      	beq.n	800466a <HAL_UART_IRQHandler+0x26e>
 8004644:	687b      	ldr	r3, [r7, #4]
 8004646:	6f1b      	ldr	r3, [r3, #112]	; 0x70
 8004648:	4a14      	ldr	r2, [pc, #80]	; (800469c <HAL_UART_IRQHandler+0x2a0>)
 800464a:	639a      	str	r2, [r3, #56]	; 0x38
 800464c:	687b      	ldr	r3, [r7, #4]
 800464e:	6f1b      	ldr	r3, [r3, #112]	; 0x70
 8004650:	0018      	movs	r0, r3
 8004652:	f7fd ff8f 	bl	8002574 <HAL_DMA_Abort_IT>
 8004656:	1e03      	subs	r3, r0, #0
 8004658:	d01a      	beq.n	8004690 <HAL_UART_IRQHandler+0x294>
 800465a:	687b      	ldr	r3, [r7, #4]
 800465c:	6f1b      	ldr	r3, [r3, #112]	; 0x70
 800465e:	6b9a      	ldr	r2, [r3, #56]	; 0x38
 8004660:	687b      	ldr	r3, [r7, #4]
 8004662:	6f1b      	ldr	r3, [r3, #112]	; 0x70
 8004664:	0018      	movs	r0, r3
 8004666:	4790      	blx	r2
 8004668:	e012      	b.n	8004690 <HAL_UART_IRQHandler+0x294>
 800466a:	687b      	ldr	r3, [r7, #4]
 800466c:	0018      	movs	r0, r3
 800466e:	f000 f9a7 	bl	80049c0 <HAL_UART_ErrorCallback>
 8004672:	e00d      	b.n	8004690 <HAL_UART_IRQHandler+0x294>
 8004674:	687b      	ldr	r3, [r7, #4]
 8004676:	0018      	movs	r0, r3
 8004678:	f000 f9a2 	bl	80049c0 <HAL_UART_ErrorCallback>
 800467c:	e008      	b.n	8004690 <HAL_UART_IRQHandler+0x294>
 800467e:	687b      	ldr	r3, [r7, #4]
 8004680:	0018      	movs	r0, r3
 8004682:	f000 f99d 	bl	80049c0 <HAL_UART_ErrorCallback>
 8004686:	687b      	ldr	r3, [r7, #4]
 8004688:	2280      	movs	r2, #128	; 0x80
 800468a:	2100      	movs	r1, #0
 800468c:	5099      	str	r1, [r3, r2]
 800468e:	e181      	b.n	8004994 <HAL_UART_IRQHandler+0x598>
 8004690:	46c0      	nop			; (mov r8, r8)
 8004692:	e17f      	b.n	8004994 <HAL_UART_IRQHandler+0x598>
 8004694:	0000080f 	.word	0x0000080f
 8004698:	04000120 	.word	0x04000120
 800469c:	08005509 	.word	0x08005509
 80046a0:	687b      	ldr	r3, [r7, #4]
 80046a2:	6e1b      	ldr	r3, [r3, #96]	; 0x60
 80046a4:	2b01      	cmp	r3, #1
 80046a6:	d000      	beq.n	80046aa <HAL_UART_IRQHandler+0x2ae>
 80046a8:	e133      	b.n	8004912 <HAL_UART_IRQHandler+0x516>
 80046aa:	23a4      	movs	r3, #164	; 0xa4
 80046ac:	18fb      	adds	r3, r7, r3
 80046ae:	681b      	ldr	r3, [r3, #0]
 80046b0:	2210      	movs	r2, #16
 80046b2:	4013      	ands	r3, r2
 80046b4:	d100      	bne.n	80046b8 <HAL_UART_IRQHandler+0x2bc>
 80046b6:	e12c      	b.n	8004912 <HAL_UART_IRQHandler+0x516>
 80046b8:	23a0      	movs	r3, #160	; 0xa0
 80046ba:	18fb      	adds	r3, r7, r3
 80046bc:	681b      	ldr	r3, [r3, #0]
 80046be:	2210      	movs	r2, #16
 80046c0:	4013      	ands	r3, r2
 80046c2:	d100      	bne.n	80046c6 <HAL_UART_IRQHandler+0x2ca>
 80046c4:	e125      	b.n	8004912 <HAL_UART_IRQHandler+0x516>
 80046c6:	687b      	ldr	r3, [r7, #4]
 80046c8:	681b      	ldr	r3, [r3, #0]
 80046ca:	2210      	movs	r2, #16
 80046cc:	621a      	str	r2, [r3, #32]
 80046ce:	687b      	ldr	r3, [r7, #4]
 80046d0:	681b      	ldr	r3, [r3, #0]
 80046d2:	689b      	ldr	r3, [r3, #8]
 80046d4:	2240      	movs	r2, #64	; 0x40
 80046d6:	4013      	ands	r3, r2
 80046d8:	2b40      	cmp	r3, #64	; 0x40
 80046da:	d000      	beq.n	80046de <HAL_UART_IRQHandler+0x2e2>
 80046dc:	e09d      	b.n	800481a <HAL_UART_IRQHandler+0x41e>
 80046de:	687b      	ldr	r3, [r7, #4]
 80046e0:	6f1b      	ldr	r3, [r3, #112]	; 0x70
 80046e2:	681b      	ldr	r3, [r3, #0]
 80046e4:	685a      	ldr	r2, [r3, #4]
 80046e6:	217e      	movs	r1, #126	; 0x7e
 80046e8:	187b      	adds	r3, r7, r1
 80046ea:	801a      	strh	r2, [r3, #0]
 80046ec:	187b      	adds	r3, r7, r1
 80046ee:	881b      	ldrh	r3, [r3, #0]
 80046f0:	2b00      	cmp	r3, #0
 80046f2:	d100      	bne.n	80046f6 <HAL_UART_IRQHandler+0x2fa>
 80046f4:	e150      	b.n	8004998 <HAL_UART_IRQHandler+0x59c>
 80046f6:	687b      	ldr	r3, [r7, #4]
 80046f8:	2258      	movs	r2, #88	; 0x58
 80046fa:	5a9b      	ldrh	r3, [r3, r2]
 80046fc:	187a      	adds	r2, r7, r1
 80046fe:	8812      	ldrh	r2, [r2, #0]
 8004700:	429a      	cmp	r2, r3
 8004702:	d300      	bcc.n	8004706 <HAL_UART_IRQHandler+0x30a>
 8004704:	e148      	b.n	8004998 <HAL_UART_IRQHandler+0x59c>
 8004706:	687b      	ldr	r3, [r7, #4]
 8004708:	187a      	adds	r2, r7, r1
 800470a:	215a      	movs	r1, #90	; 0x5a
 800470c:	8812      	ldrh	r2, [r2, #0]
 800470e:	525a      	strh	r2, [r3, r1]
 8004710:	687b      	ldr	r3, [r7, #4]
 8004712:	6f1b      	ldr	r3, [r3, #112]	; 0x70
 8004714:	681b      	ldr	r3, [r3, #0]
 8004716:	681b      	ldr	r3, [r3, #0]
 8004718:	2220      	movs	r2, #32
 800471a:	4013      	ands	r3, r2
 800471c:	d16e      	bne.n	80047fc <HAL_UART_IRQHandler+0x400>
 800471e:	f3ef 8310 	mrs	r3, PRIMASK
 8004722:	633b      	str	r3, [r7, #48]	; 0x30
 8004724:	6b3b      	ldr	r3, [r7, #48]	; 0x30
 8004726:	67bb      	str	r3, [r7, #120]	; 0x78
 8004728:	2301      	movs	r3, #1
 800472a:	637b      	str	r3, [r7, #52]	; 0x34
 800472c:	6b7b      	ldr	r3, [r7, #52]	; 0x34
 800472e:	f383 8810 	msr	PRIMASK, r3
 8004732:	46c0      	nop			; (mov r8, r8)
 8004734:	687b      	ldr	r3, [r7, #4]
 8004736:	681b      	ldr	r3, [r3, #0]
 8004738:	681a      	ldr	r2, [r3, #0]
 800473a:	687b      	ldr	r3, [r7, #4]
 800473c:	681b      	ldr	r3, [r3, #0]
 800473e:	499a      	ldr	r1, [pc, #616]	; (80049a8 <HAL_UART_IRQHandler+0x5ac>)
 8004740:	400a      	ands	r2, r1
 8004742:	601a      	str	r2, [r3, #0]
 8004744:	6fbb      	ldr	r3, [r7, #120]	; 0x78
 8004746:	63bb      	str	r3, [r7, #56]	; 0x38
 8004748:	6bbb      	ldr	r3, [r7, #56]	; 0x38
 800474a:	f383 8810 	msr	PRIMASK, r3
 800474e:	46c0      	nop			; (mov r8, r8)
 8004750:	f3ef 8310 	mrs	r3, PRIMASK
 8004754:	63fb      	str	r3, [r7, #60]	; 0x3c
 8004756:	6bfb      	ldr	r3, [r7, #60]	; 0x3c
 8004758:	677b      	str	r3, [r7, #116]	; 0x74
 800475a:	2301      	movs	r3, #1
 800475c:	643b      	str	r3, [r7, #64]	; 0x40
 800475e:	6c3b      	ldr	r3, [r7, #64]	; 0x40
 8004760:	f383 8810 	msr	PRIMASK, r3
 8004764:	46c0      	nop			; (mov r8, r8)
 8004766:	687b      	ldr	r3, [r7, #4]
 8004768:	681b      	ldr	r3, [r3, #0]
 800476a:	689a      	ldr	r2, [r3, #8]
 800476c:	687b      	ldr	r3, [r7, #4]
 800476e:	681b      	ldr	r3, [r3, #0]
 8004770:	2101      	movs	r1, #1
 8004772:	438a      	bics	r2, r1
 8004774:	609a      	str	r2, [r3, #8]
 8004776:	6f7b      	ldr	r3, [r7, #116]	; 0x74
 8004778:	647b      	str	r3, [r7, #68]	; 0x44
 800477a:	6c7b      	ldr	r3, [r7, #68]	; 0x44
 800477c:	f383 8810 	msr	PRIMASK, r3
 8004780:	46c0      	nop			; (mov r8, r8)
 8004782:	f3ef 8310 	mrs	r3, PRIMASK
 8004786:	64bb      	str	r3, [r7, #72]	; 0x48
 8004788:	6cbb      	ldr	r3, [r7, #72]	; 0x48
 800478a:	673b      	str	r3, [r7, #112]	; 0x70
 800478c:	2301      	movs	r3, #1
 800478e:	64fb      	str	r3, [r7, #76]	; 0x4c
 8004790:	6cfb      	ldr	r3, [r7, #76]	; 0x4c
 8004792:	f383 8810 	msr	PRIMASK, r3
 8004796:	46c0      	nop			; (mov r8, r8)
 8004798:	687b      	ldr	r3, [r7, #4]
 800479a:	681b      	ldr	r3, [r3, #0]
 800479c:	689a      	ldr	r2, [r3, #8]
 800479e:	687b      	ldr	r3, [r7, #4]
 80047a0:	681b      	ldr	r3, [r3, #0]
 80047a2:	2140      	movs	r1, #64	; 0x40
 80047a4:	438a      	bics	r2, r1
 80047a6:	609a      	str	r2, [r3, #8]
 80047a8:	6f3b      	ldr	r3, [r7, #112]	; 0x70
 80047aa:	653b      	str	r3, [r7, #80]	; 0x50
 80047ac:	6d3b      	ldr	r3, [r7, #80]	; 0x50
 80047ae:	f383 8810 	msr	PRIMASK, r3
 80047b2:	46c0      	nop			; (mov r8, r8)
 80047b4:	687b      	ldr	r3, [r7, #4]
 80047b6:	2220      	movs	r2, #32
 80047b8:	67da      	str	r2, [r3, #124]	; 0x7c
 80047ba:	687b      	ldr	r3, [r7, #4]
 80047bc:	2200      	movs	r2, #0
 80047be:	661a      	str	r2, [r3, #96]	; 0x60
 80047c0:	f3ef 8310 	mrs	r3, PRIMASK
 80047c4:	657b      	str	r3, [r7, #84]	; 0x54
 80047c6:	6d7b      	ldr	r3, [r7, #84]	; 0x54
 80047c8:	66fb      	str	r3, [r7, #108]	; 0x6c
 80047ca:	2301      	movs	r3, #1
 80047cc:	65bb      	str	r3, [r7, #88]	; 0x58
 80047ce:	6dbb      	ldr	r3, [r7, #88]	; 0x58
 80047d0:	f383 8810 	msr	PRIMASK, r3
 80047d4:	46c0      	nop			; (mov r8, r8)
 80047d6:	687b      	ldr	r3, [r7, #4]
 80047d8:	681b      	ldr	r3, [r3, #0]
 80047da:	681a      	ldr	r2, [r3, #0]
 80047dc:	687b      	ldr	r3, [r7, #4]
 80047de:	681b      	ldr	r3, [r3, #0]
 80047e0:	2110      	movs	r1, #16
 80047e2:	438a      	bics	r2, r1
 80047e4:	601a      	str	r2, [r3, #0]
 80047e6:	6efb      	ldr	r3, [r7, #108]	; 0x6c
 80047e8:	65fb      	str	r3, [r7, #92]	; 0x5c
 80047ea:	6dfb      	ldr	r3, [r7, #92]	; 0x5c
 80047ec:	f383 8810 	msr	PRIMASK, r3
 80047f0:	46c0      	nop			; (mov r8, r8)
 80047f2:	687b      	ldr	r3, [r7, #4]
 80047f4:	6f1b      	ldr	r3, [r3, #112]	; 0x70
 80047f6:	0018      	movs	r0, r3
 80047f8:	f7fd fe7c 	bl	80024f4 <HAL_DMA_Abort>
 80047fc:	687b      	ldr	r3, [r7, #4]
 80047fe:	2258      	movs	r2, #88	; 0x58
 8004800:	5a9a      	ldrh	r2, [r3, r2]
 8004802:	687b      	ldr	r3, [r7, #4]
 8004804:	215a      	movs	r1, #90	; 0x5a
 8004806:	5a5b      	ldrh	r3, [r3, r1]
 8004808:	b29b      	uxth	r3, r3
 800480a:	1ad3      	subs	r3, r2, r3
 800480c:	b29a      	uxth	r2, r3
 800480e:	687b      	ldr	r3, [r7, #4]
 8004810:	0011      	movs	r1, r2
 8004812:	0018      	movs	r0, r3
 8004814:	f000 f8dc 	bl	80049d0 <HAL_UARTEx_RxEventCallback>
 8004818:	e0be      	b.n	8004998 <HAL_UART_IRQHandler+0x59c>
 800481a:	687b      	ldr	r3, [r7, #4]
 800481c:	2258      	movs	r2, #88	; 0x58
 800481e:	5a99      	ldrh	r1, [r3, r2]
 8004820:	687b      	ldr	r3, [r7, #4]
 8004822:	225a      	movs	r2, #90	; 0x5a
 8004824:	5a9b      	ldrh	r3, [r3, r2]
 8004826:	b29a      	uxth	r2, r3
 8004828:	208e      	movs	r0, #142	; 0x8e
 800482a:	183b      	adds	r3, r7, r0
 800482c:	1a8a      	subs	r2, r1, r2
 800482e:	801a      	strh	r2, [r3, #0]
 8004830:	687b      	ldr	r3, [r7, #4]
 8004832:	225a      	movs	r2, #90	; 0x5a
 8004834:	5a9b      	ldrh	r3, [r3, r2]
 8004836:	b29b      	uxth	r3, r3
 8004838:	2b00      	cmp	r3, #0
 800483a:	d100      	bne.n	800483e <HAL_UART_IRQHandler+0x442>
 800483c:	e0ae      	b.n	800499c <HAL_UART_IRQHandler+0x5a0>
 800483e:	183b      	adds	r3, r7, r0
 8004840:	881b      	ldrh	r3, [r3, #0]
 8004842:	2b00      	cmp	r3, #0
 8004844:	d100      	bne.n	8004848 <HAL_UART_IRQHandler+0x44c>
 8004846:	e0a9      	b.n	800499c <HAL_UART_IRQHandler+0x5a0>
 8004848:	f3ef 8310 	mrs	r3, PRIMASK
 800484c:	60fb      	str	r3, [r7, #12]
 800484e:	68fb      	ldr	r3, [r7, #12]
 8004850:	2488      	movs	r4, #136	; 0x88
 8004852:	193a      	adds	r2, r7, r4
 8004854:	6013      	str	r3, [r2, #0]
 8004856:	2301      	movs	r3, #1
 8004858:	613b      	str	r3, [r7, #16]
 800485a:	693b      	ldr	r3, [r7, #16]
 800485c:	f383 8810 	msr	PRIMASK, r3
 8004860:	46c0      	nop			; (mov r8, r8)
 8004862:	687b      	ldr	r3, [r7, #4]
 8004864:	681b      	ldr	r3, [r3, #0]
 8004866:	681a      	ldr	r2, [r3, #0]
 8004868:	687b      	ldr	r3, [r7, #4]
 800486a:	681b      	ldr	r3, [r3, #0]
 800486c:	494f      	ldr	r1, [pc, #316]	; (80049ac <HAL_UART_IRQHandler+0x5b0>)
 800486e:	400a      	ands	r2, r1
 8004870:	601a      	str	r2, [r3, #0]
 8004872:	193b      	adds	r3, r7, r4
 8004874:	681b      	ldr	r3, [r3, #0]
 8004876:	617b      	str	r3, [r7, #20]
 8004878:	697b      	ldr	r3, [r7, #20]
 800487a:	f383 8810 	msr	PRIMASK, r3
 800487e:	46c0      	nop			; (mov r8, r8)
 8004880:	f3ef 8310 	mrs	r3, PRIMASK
 8004884:	61bb      	str	r3, [r7, #24]
 8004886:	69bb      	ldr	r3, [r7, #24]
 8004888:	2484      	movs	r4, #132	; 0x84
 800488a:	193a      	adds	r2, r7, r4
 800488c:	6013      	str	r3, [r2, #0]
 800488e:	2301      	movs	r3, #1
 8004890:	61fb      	str	r3, [r7, #28]
 8004892:	69fb      	ldr	r3, [r7, #28]
 8004894:	f383 8810 	msr	PRIMASK, r3
 8004898:	46c0      	nop			; (mov r8, r8)
 800489a:	687b      	ldr	r3, [r7, #4]
 800489c:	681b      	ldr	r3, [r3, #0]
 800489e:	689a      	ldr	r2, [r3, #8]
 80048a0:	687b      	ldr	r3, [r7, #4]
 80048a2:	681b      	ldr	r3, [r3, #0]
 80048a4:	2101      	movs	r1, #1
 80048a6:	438a      	bics	r2, r1
 80048a8:	609a      	str	r2, [r3, #8]
 80048aa:	193b      	adds	r3, r7, r4
 80048ac:	681b      	ldr	r3, [r3, #0]
 80048ae:	623b      	str	r3, [r7, #32]
 80048b0:	6a3b      	ldr	r3, [r7, #32]
 80048b2:	f383 8810 	msr	PRIMASK, r3
 80048b6:	46c0      	nop			; (mov r8, r8)
 80048b8:	687b      	ldr	r3, [r7, #4]
 80048ba:	2220      	movs	r2, #32
 80048bc:	67da      	str	r2, [r3, #124]	; 0x7c
 80048be:	687b      	ldr	r3, [r7, #4]
 80048c0:	2200      	movs	r2, #0
 80048c2:	661a      	str	r2, [r3, #96]	; 0x60
 80048c4:	687b      	ldr	r3, [r7, #4]
 80048c6:	2200      	movs	r2, #0
 80048c8:	665a      	str	r2, [r3, #100]	; 0x64
 80048ca:	f3ef 8310 	mrs	r3, PRIMASK
 80048ce:	627b      	str	r3, [r7, #36]	; 0x24
 80048d0:	6a7b      	ldr	r3, [r7, #36]	; 0x24
 80048d2:	2480      	movs	r4, #128	; 0x80
 80048d4:	193a      	adds	r2, r7, r4
 80048d6:	6013      	str	r3, [r2, #0]
 80048d8:	2301      	movs	r3, #1
 80048da:	62bb      	str	r3, [r7, #40]	; 0x28
 80048dc:	6abb      	ldr	r3, [r7, #40]	; 0x28
 80048de:	f383 8810 	msr	PRIMASK, r3
 80048e2:	46c0      	nop			; (mov r8, r8)
 80048e4:	687b      	ldr	r3, [r7, #4]
 80048e6:	681b      	ldr	r3, [r3, #0]
 80048e8:	681a      	ldr	r2, [r3, #0]
 80048ea:	687b      	ldr	r3, [r7, #4]
 80048ec:	681b      	ldr	r3, [r3, #0]
 80048ee:	2110      	movs	r1, #16
 80048f0:	438a      	bics	r2, r1
 80048f2:	601a      	str	r2, [r3, #0]
 80048f4:	193b      	adds	r3, r7, r4
 80048f6:	681b      	ldr	r3, [r3, #0]
 80048f8:	62fb      	str	r3, [r7, #44]	; 0x2c
 80048fa:	6afb      	ldr	r3, [r7, #44]	; 0x2c
 80048fc:	f383 8810 	msr	PRIMASK, r3
 8004900:	46c0      	nop			; (mov r8, r8)
 8004902:	183b      	adds	r3, r7, r0
 8004904:	881a      	ldrh	r2, [r3, #0]
 8004906:	687b      	ldr	r3, [r7, #4]
 8004908:	0011      	movs	r1, r2
 800490a:	0018      	movs	r0, r3
 800490c:	f000 f860 	bl	80049d0 <HAL_UARTEx_RxEventCallback>
 8004910:	e044      	b.n	800499c <HAL_UART_IRQHandler+0x5a0>
 8004912:	23a4      	movs	r3, #164	; 0xa4
 8004914:	18fb      	adds	r3, r7, r3
 8004916:	681a      	ldr	r2, [r3, #0]
 8004918:	2380      	movs	r3, #128	; 0x80
 800491a:	035b      	lsls	r3, r3, #13
 800491c:	4013      	ands	r3, r2
 800491e:	d010      	beq.n	8004942 <HAL_UART_IRQHandler+0x546>
 8004920:	239c      	movs	r3, #156	; 0x9c
 8004922:	18fb      	adds	r3, r7, r3
 8004924:	681a      	ldr	r2, [r3, #0]
 8004926:	2380      	movs	r3, #128	; 0x80
 8004928:	03db      	lsls	r3, r3, #15
 800492a:	4013      	ands	r3, r2
 800492c:	d009      	beq.n	8004942 <HAL_UART_IRQHandler+0x546>
 800492e:	687b      	ldr	r3, [r7, #4]
 8004930:	681b      	ldr	r3, [r3, #0]
 8004932:	2280      	movs	r2, #128	; 0x80
 8004934:	0352      	lsls	r2, r2, #13
 8004936:	621a      	str	r2, [r3, #32]
 8004938:	687b      	ldr	r3, [r7, #4]
 800493a:	0018      	movs	r0, r3
 800493c:	f000 ff8e 	bl	800585c <HAL_UARTEx_WakeupCallback>
 8004940:	e02f      	b.n	80049a2 <HAL_UART_IRQHandler+0x5a6>
 8004942:	23a4      	movs	r3, #164	; 0xa4
 8004944:	18fb      	adds	r3, r7, r3
 8004946:	681b      	ldr	r3, [r3, #0]
 8004948:	2280      	movs	r2, #128	; 0x80
 800494a:	4013      	ands	r3, r2
 800494c:	d00f      	beq.n	800496e <HAL_UART_IRQHandler+0x572>
 800494e:	23a0      	movs	r3, #160	; 0xa0
 8004950:	18fb      	adds	r3, r7, r3
 8004952:	681b      	ldr	r3, [r3, #0]
 8004954:	2280      	movs	r2, #128	; 0x80
 8004956:	4013      	ands	r3, r2
 8004958:	d009      	beq.n	800496e <HAL_UART_IRQHandler+0x572>
 800495a:	687b      	ldr	r3, [r7, #4]
 800495c:	6e9b      	ldr	r3, [r3, #104]	; 0x68
 800495e:	2b00      	cmp	r3, #0
 8004960:	d01e      	beq.n	80049a0 <HAL_UART_IRQHandler+0x5a4>
 8004962:	687b      	ldr	r3, [r7, #4]
 8004964:	6e9b      	ldr	r3, [r3, #104]	; 0x68
 8004966:	687a      	ldr	r2, [r7, #4]
 8004968:	0010      	movs	r0, r2
 800496a:	4798      	blx	r3
 800496c:	e018      	b.n	80049a0 <HAL_UART_IRQHandler+0x5a4>
 800496e:	23a4      	movs	r3, #164	; 0xa4
 8004970:	18fb      	adds	r3, r7, r3
 8004972:	681b      	ldr	r3, [r3, #0]
 8004974:	2240      	movs	r2, #64	; 0x40
 8004976:	4013      	ands	r3, r2
 8004978:	d013      	beq.n	80049a2 <HAL_UART_IRQHandler+0x5a6>
 800497a:	23a0      	movs	r3, #160	; 0xa0
 800497c:	18fb      	adds	r3, r7, r3
 800497e:	681b      	ldr	r3, [r3, #0]
 8004980:	2240      	movs	r2, #64	; 0x40
 8004982:	4013      	ands	r3, r2
 8004984:	d00d      	beq.n	80049a2 <HAL_UART_IRQHandler+0x5a6>
 8004986:	687b      	ldr	r3, [r7, #4]
 8004988:	0018      	movs	r0, r3
 800498a:	f000 fdd4 	bl	8005536 <UART_EndTransmit_IT>
 800498e:	e008      	b.n	80049a2 <HAL_UART_IRQHandler+0x5a6>
 8004990:	46c0      	nop			; (mov r8, r8)
 8004992:	e006      	b.n	80049a2 <HAL_UART_IRQHandler+0x5a6>
 8004994:	46c0      	nop			; (mov r8, r8)
 8004996:	e004      	b.n	80049a2 <HAL_UART_IRQHandler+0x5a6>
 8004998:	46c0      	nop			; (mov r8, r8)
 800499a:	e002      	b.n	80049a2 <HAL_UART_IRQHandler+0x5a6>
 800499c:	46c0      	nop			; (mov r8, r8)
 800499e:	e000      	b.n	80049a2 <HAL_UART_IRQHandler+0x5a6>
 80049a0:	46c0      	nop			; (mov r8, r8)
 80049a2:	46bd      	mov	sp, r7
 80049a4:	b02b      	add	sp, #172	; 0xac
 80049a6:	bd90      	pop	{r4, r7, pc}
 80049a8:	fffffeff 	.word	0xfffffeff
 80049ac:	fffffedf 	.word	0xfffffedf

080049b0 <HAL_UART_TxCpltCallback>:
 80049b0:	b580      	push	{r7, lr}
 80049b2:	b082      	sub	sp, #8
 80049b4:	af00      	add	r7, sp, #0
 80049b6:	6078      	str	r0, [r7, #4]
 80049b8:	46c0      	nop			; (mov r8, r8)
 80049ba:	46bd      	mov	sp, r7
 80049bc:	b002      	add	sp, #8
 80049be:	bd80      	pop	{r7, pc}

080049c0 <HAL_UART_ErrorCallback>:
 80049c0:	b580      	push	{r7, lr}
 80049c2:	b082      	sub	sp, #8
 80049c4:	af00      	add	r7, sp, #0
 80049c6:	6078      	str	r0, [r7, #4]
 80049c8:	46c0      	nop			; (mov r8, r8)
 80049ca:	46bd      	mov	sp, r7
 80049cc:	b002      	add	sp, #8
 80049ce:	bd80      	pop	{r7, pc}

080049d0 <HAL_UARTEx_RxEventCallback>:
 80049d0:	b580      	push	{r7, lr}
 80049d2:	b082      	sub	sp, #8
 80049d4:	af00      	add	r7, sp, #0
 80049d6:	6078      	str	r0, [r7, #4]
 80049d8:	000a      	movs	r2, r1
 80049da:	1cbb      	adds	r3, r7, #2
 80049dc:	801a      	strh	r2, [r3, #0]
 80049de:	46c0      	nop			; (mov r8, r8)
 80049e0:	46bd      	mov	sp, r7
 80049e2:	b002      	add	sp, #8
 80049e4:	bd80      	pop	{r7, pc}
	...

080049e8 <UART_SetConfig>:
 80049e8:	b5b0      	push	{r4, r5, r7, lr}
 80049ea:	b08e      	sub	sp, #56	; 0x38
 80049ec:	af00      	add	r7, sp, #0
 80049ee:	61f8      	str	r0, [r7, #28]
 80049f0:	231a      	movs	r3, #26
 80049f2:	2218      	movs	r2, #24
 80049f4:	4694      	mov	ip, r2
 80049f6:	44bc      	add	ip, r7
 80049f8:	4463      	add	r3, ip
 80049fa:	2200      	movs	r2, #0
 80049fc:	701a      	strb	r2, [r3, #0]
 80049fe:	69fb      	ldr	r3, [r7, #28]
 8004a00:	689a      	ldr	r2, [r3, #8]
 8004a02:	69fb      	ldr	r3, [r7, #28]
 8004a04:	691b      	ldr	r3, [r3, #16]
 8004a06:	431a      	orrs	r2, r3
 8004a08:	69fb      	ldr	r3, [r7, #28]
 8004a0a:	695b      	ldr	r3, [r3, #20]
 8004a0c:	431a      	orrs	r2, r3
 8004a0e:	69fb      	ldr	r3, [r7, #28]
 8004a10:	69db      	ldr	r3, [r3, #28]
 8004a12:	4313      	orrs	r3, r2
 8004a14:	637b      	str	r3, [r7, #52]	; 0x34
 8004a16:	69fb      	ldr	r3, [r7, #28]
 8004a18:	681b      	ldr	r3, [r3, #0]
 8004a1a:	681b      	ldr	r3, [r3, #0]
 8004a1c:	4ab0      	ldr	r2, [pc, #704]	; (8004ce0 <UART_SetConfig+0x2f8>)
 8004a1e:	4013      	ands	r3, r2
 8004a20:	0019      	movs	r1, r3
 8004a22:	69fb      	ldr	r3, [r7, #28]
 8004a24:	681b      	ldr	r3, [r3, #0]
 8004a26:	6b7a      	ldr	r2, [r7, #52]	; 0x34
 8004a28:	430a      	orrs	r2, r1
 8004a2a:	601a      	str	r2, [r3, #0]
 8004a2c:	69fb      	ldr	r3, [r7, #28]
 8004a2e:	681b      	ldr	r3, [r3, #0]
 8004a30:	685b      	ldr	r3, [r3, #4]
 8004a32:	4aac      	ldr	r2, [pc, #688]	; (8004ce4 <UART_SetConfig+0x2fc>)
 8004a34:	4013      	ands	r3, r2
 8004a36:	0019      	movs	r1, r3
 8004a38:	69fb      	ldr	r3, [r7, #28]
 8004a3a:	68da      	ldr	r2, [r3, #12]
 8004a3c:	69fb      	ldr	r3, [r7, #28]
 8004a3e:	681b      	ldr	r3, [r3, #0]
 8004a40:	430a      	orrs	r2, r1
 8004a42:	605a      	str	r2, [r3, #4]
 8004a44:	69fb      	ldr	r3, [r7, #28]
 8004a46:	699b      	ldr	r3, [r3, #24]
 8004a48:	637b      	str	r3, [r7, #52]	; 0x34
 8004a4a:	69fb      	ldr	r3, [r7, #28]
 8004a4c:	681b      	ldr	r3, [r3, #0]
 8004a4e:	4aa6      	ldr	r2, [pc, #664]	; (8004ce8 <UART_SetConfig+0x300>)
 8004a50:	4293      	cmp	r3, r2
 8004a52:	d004      	beq.n	8004a5e <UART_SetConfig+0x76>
 8004a54:	69fb      	ldr	r3, [r7, #28]
 8004a56:	6a1b      	ldr	r3, [r3, #32]
 8004a58:	6b7a      	ldr	r2, [r7, #52]	; 0x34
 8004a5a:	4313      	orrs	r3, r2
 8004a5c:	637b      	str	r3, [r7, #52]	; 0x34
 8004a5e:	69fb      	ldr	r3, [r7, #28]
 8004a60:	681b      	ldr	r3, [r3, #0]
 8004a62:	689b      	ldr	r3, [r3, #8]
 8004a64:	4aa1      	ldr	r2, [pc, #644]	; (8004cec <UART_SetConfig+0x304>)
 8004a66:	4013      	ands	r3, r2
 8004a68:	0019      	movs	r1, r3
 8004a6a:	69fb      	ldr	r3, [r7, #28]
 8004a6c:	681b      	ldr	r3, [r3, #0]
 8004a6e:	6b7a      	ldr	r2, [r7, #52]	; 0x34
 8004a70:	430a      	orrs	r2, r1
 8004a72:	609a      	str	r2, [r3, #8]
 8004a74:	69fb      	ldr	r3, [r7, #28]
 8004a76:	681b      	ldr	r3, [r3, #0]
 8004a78:	4a9d      	ldr	r2, [pc, #628]	; (8004cf0 <UART_SetConfig+0x308>)
 8004a7a:	4293      	cmp	r3, r2
 8004a7c:	d136      	bne.n	8004aec <UART_SetConfig+0x104>
 8004a7e:	4b9d      	ldr	r3, [pc, #628]	; (8004cf4 <UART_SetConfig+0x30c>)
 8004a80:	6cdb      	ldr	r3, [r3, #76]	; 0x4c
 8004a82:	2203      	movs	r2, #3
 8004a84:	4013      	ands	r3, r2
 8004a86:	2b03      	cmp	r3, #3
 8004a88:	d020      	beq.n	8004acc <UART_SetConfig+0xe4>
 8004a8a:	d827      	bhi.n	8004adc <UART_SetConfig+0xf4>
 8004a8c:	2b02      	cmp	r3, #2
 8004a8e:	d00d      	beq.n	8004aac <UART_SetConfig+0xc4>
 8004a90:	d824      	bhi.n	8004adc <UART_SetConfig+0xf4>
 8004a92:	2b00      	cmp	r3, #0
 8004a94:	d002      	beq.n	8004a9c <UART_SetConfig+0xb4>
 8004a96:	2b01      	cmp	r3, #1
 8004a98:	d010      	beq.n	8004abc <UART_SetConfig+0xd4>
 8004a9a:	e01f      	b.n	8004adc <UART_SetConfig+0xf4>
 8004a9c:	231b      	movs	r3, #27
 8004a9e:	2218      	movs	r2, #24
 8004aa0:	4694      	mov	ip, r2
 8004aa2:	44bc      	add	ip, r7
 8004aa4:	4463      	add	r3, ip
 8004aa6:	2201      	movs	r2, #1
 8004aa8:	701a      	strb	r2, [r3, #0]
 8004aaa:	e0c5      	b.n	8004c38 <UART_SetConfig+0x250>
 8004aac:	231b      	movs	r3, #27
 8004aae:	2218      	movs	r2, #24
 8004ab0:	4694      	mov	ip, r2
 8004ab2:	44bc      	add	ip, r7
 8004ab4:	4463      	add	r3, ip
 8004ab6:	2202      	movs	r2, #2
 8004ab8:	701a      	strb	r2, [r3, #0]
 8004aba:	e0bd      	b.n	8004c38 <UART_SetConfig+0x250>
 8004abc:	231b      	movs	r3, #27
 8004abe:	2218      	movs	r2, #24
 8004ac0:	4694      	mov	ip, r2
 8004ac2:	44bc      	add	ip, r7
 8004ac4:	4463      	add	r3, ip
 8004ac6:	2204      	movs	r2, #4
 8004ac8:	701a      	strb	r2, [r3, #0]
 8004aca:	e0b5      	b.n	8004c38 <UART_SetConfig+0x250>
 8004acc:	231b      	movs	r3, #27
 8004ace:	2218      	movs	r2, #24
 8004ad0:	4694      	mov	ip, r2
 8004ad2:	44bc      	add	ip, r7
 8004ad4:	4463      	add	r3, ip
 8004ad6:	2208      	movs	r2, #8
 8004ad8:	701a      	strb	r2, [r3, #0]
 8004ada:	e0ad      	b.n	8004c38 <UART_SetConfig+0x250>
 8004adc:	231b      	movs	r3, #27
 8004ade:	2218      	movs	r2, #24
 8004ae0:	4694      	mov	ip, r2
 8004ae2:	44bc      	add	ip, r7
 8004ae4:	4463      	add	r3, ip
 8004ae6:	2210      	movs	r2, #16
 8004ae8:	701a      	strb	r2, [r3, #0]
 8004aea:	e0a5      	b.n	8004c38 <UART_SetConfig+0x250>
 8004aec:	69fb      	ldr	r3, [r7, #28]
 8004aee:	681b      	ldr	r3, [r3, #0]
 8004af0:	4a81      	ldr	r2, [pc, #516]	; (8004cf8 <UART_SetConfig+0x310>)
 8004af2:	4293      	cmp	r3, r2
 8004af4:	d136      	bne.n	8004b64 <UART_SetConfig+0x17c>
 8004af6:	4b7f      	ldr	r3, [pc, #508]	; (8004cf4 <UART_SetConfig+0x30c>)
 8004af8:	6cdb      	ldr	r3, [r3, #76]	; 0x4c
 8004afa:	220c      	movs	r2, #12
 8004afc:	4013      	ands	r3, r2
 8004afe:	2b0c      	cmp	r3, #12
 8004b00:	d020      	beq.n	8004b44 <UART_SetConfig+0x15c>
 8004b02:	d827      	bhi.n	8004b54 <UART_SetConfig+0x16c>
 8004b04:	2b08      	cmp	r3, #8
 8004b06:	d00d      	beq.n	8004b24 <UART_SetConfig+0x13c>
 8004b08:	d824      	bhi.n	8004b54 <UART_SetConfig+0x16c>
 8004b0a:	2b00      	cmp	r3, #0
 8004b0c:	d002      	beq.n	8004b14 <UART_SetConfig+0x12c>
 8004b0e:	2b04      	cmp	r3, #4
 8004b10:	d010      	beq.n	8004b34 <UART_SetConfig+0x14c>
 8004b12:	e01f      	b.n	8004b54 <UART_SetConfig+0x16c>
 8004b14:	231b      	movs	r3, #27
 8004b16:	2218      	movs	r2, #24
 8004b18:	4694      	mov	ip, r2
 8004b1a:	44bc      	add	ip, r7
 8004b1c:	4463      	add	r3, ip
 8004b1e:	2200      	movs	r2, #0
 8004b20:	701a      	strb	r2, [r3, #0]
 8004b22:	e089      	b.n	8004c38 <UART_SetConfig+0x250>
 8004b24:	231b      	movs	r3, #27
 8004b26:	2218      	movs	r2, #24
 8004b28:	4694      	mov	ip, r2
 8004b2a:	44bc      	add	ip, r7
 8004b2c:	4463      	add	r3, ip
 8004b2e:	2202      	movs	r2, #2
 8004b30:	701a      	strb	r2, [r3, #0]
 8004b32:	e081      	b.n	8004c38 <UART_SetConfig+0x250>
 8004b34:	231b      	movs	r3, #27
 8004b36:	2218      	movs	r2, #24
 8004b38:	4694      	mov	ip, r2
 8004b3a:	44bc      	add	ip, r7
 8004b3c:	4463      	add	r3, ip
 8004b3e:	2204      	movs	r2, #4
 8004b40:	701a      	strb	r2, [r3, #0]
 8004b42:	e079      	b.n	8004c38 <UART_SetConfig+0x250>
 8004b44:	231b      	movs	r3, #27
 8004b46:	2218      	movs	r2, #24
 8004b48:	4694      	mov	ip, r2
 8004b4a:	44bc      	add	ip, r7
 8004b4c:	4463      	add	r3, ip
 8004b4e:	2208      	movs	r2, #8
 8004b50:	701a      	strb	r2, [r3, #0]
 8004b52:	e071      	b.n	8004c38 <UART_SetConfig+0x250>
 8004b54:	231b      	movs	r3, #27
 8004b56:	2218      	movs	r2, #24
 8004b58:	4694      	mov	ip, r2
 8004b5a:	44bc      	add	ip, r7
 8004b5c:	4463      	add	r3, ip
 8004b5e:	2210      	movs	r2, #16
 8004b60:	701a      	strb	r2, [r3, #0]
 8004b62:	e069      	b.n	8004c38 <UART_SetConfig+0x250>
 8004b64:	69fb      	ldr	r3, [r7, #28]
 8004b66:	681b      	ldr	r3, [r3, #0]
 8004b68:	4a64      	ldr	r2, [pc, #400]	; (8004cfc <UART_SetConfig+0x314>)
 8004b6a:	4293      	cmp	r3, r2
 8004b6c:	d107      	bne.n	8004b7e <UART_SetConfig+0x196>
 8004b6e:	231b      	movs	r3, #27
 8004b70:	2218      	movs	r2, #24
 8004b72:	4694      	mov	ip, r2
 8004b74:	44bc      	add	ip, r7
 8004b76:	4463      	add	r3, ip
 8004b78:	2200      	movs	r2, #0
 8004b7a:	701a      	strb	r2, [r3, #0]
 8004b7c:	e05c      	b.n	8004c38 <UART_SetConfig+0x250>
 8004b7e:	69fb      	ldr	r3, [r7, #28]
 8004b80:	681b      	ldr	r3, [r3, #0]
 8004b82:	4a5f      	ldr	r2, [pc, #380]	; (8004d00 <UART_SetConfig+0x318>)
 8004b84:	4293      	cmp	r3, r2
 8004b86:	d107      	bne.n	8004b98 <UART_SetConfig+0x1b0>
 8004b88:	231b      	movs	r3, #27
 8004b8a:	2218      	movs	r2, #24
 8004b8c:	4694      	mov	ip, r2
 8004b8e:	44bc      	add	ip, r7
 8004b90:	4463      	add	r3, ip
 8004b92:	2200      	movs	r2, #0
 8004b94:	701a      	strb	r2, [r3, #0]
 8004b96:	e04f      	b.n	8004c38 <UART_SetConfig+0x250>
 8004b98:	69fb      	ldr	r3, [r7, #28]
 8004b9a:	681b      	ldr	r3, [r3, #0]
 8004b9c:	4a52      	ldr	r2, [pc, #328]	; (8004ce8 <UART_SetConfig+0x300>)
 8004b9e:	4293      	cmp	r3, r2
 8004ba0:	d143      	bne.n	8004c2a <UART_SetConfig+0x242>
 8004ba2:	4b54      	ldr	r3, [pc, #336]	; (8004cf4 <UART_SetConfig+0x30c>)
 8004ba4:	6cda      	ldr	r2, [r3, #76]	; 0x4c
 8004ba6:	23c0      	movs	r3, #192	; 0xc0
 8004ba8:	011b      	lsls	r3, r3, #4
 8004baa:	4013      	ands	r3, r2
 8004bac:	22c0      	movs	r2, #192	; 0xc0
 8004bae:	0112      	lsls	r2, r2, #4
 8004bb0:	4293      	cmp	r3, r2
 8004bb2:	d02a      	beq.n	8004c0a <UART_SetConfig+0x222>
 8004bb4:	22c0      	movs	r2, #192	; 0xc0
 8004bb6:	0112      	lsls	r2, r2, #4
 8004bb8:	4293      	cmp	r3, r2
 8004bba:	d82e      	bhi.n	8004c1a <UART_SetConfig+0x232>
 8004bbc:	2280      	movs	r2, #128	; 0x80
 8004bbe:	0112      	lsls	r2, r2, #4
 8004bc0:	4293      	cmp	r3, r2
 8004bc2:	d012      	beq.n	8004bea <UART_SetConfig+0x202>
 8004bc4:	2280      	movs	r2, #128	; 0x80
 8004bc6:	0112      	lsls	r2, r2, #4
 8004bc8:	4293      	cmp	r3, r2
 8004bca:	d826      	bhi.n	8004c1a <UART_SetConfig+0x232>
 8004bcc:	2b00      	cmp	r3, #0
 8004bce:	d004      	beq.n	8004bda <UART_SetConfig+0x1f2>
 8004bd0:	2280      	movs	r2, #128	; 0x80
 8004bd2:	00d2      	lsls	r2, r2, #3
 8004bd4:	4293      	cmp	r3, r2
 8004bd6:	d010      	beq.n	8004bfa <UART_SetConfig+0x212>
 8004bd8:	e01f      	b.n	8004c1a <UART_SetConfig+0x232>
 8004bda:	231b      	movs	r3, #27
 8004bdc:	2218      	movs	r2, #24
 8004bde:	4694      	mov	ip, r2
 8004be0:	44bc      	add	ip, r7
 8004be2:	4463      	add	r3, ip
 8004be4:	2200      	movs	r2, #0
 8004be6:	701a      	strb	r2, [r3, #0]
 8004be8:	e026      	b.n	8004c38 <UART_SetConfig+0x250>
 8004bea:	231b      	movs	r3, #27
 8004bec:	2218      	movs	r2, #24
 8004bee:	4694      	mov	ip, r2
 8004bf0:	44bc      	add	ip, r7
 8004bf2:	4463      	add	r3, ip
 8004bf4:	2202      	movs	r2, #2
 8004bf6:	701a      	strb	r2, [r3, #0]
 8004bf8:	e01e      	b.n	8004c38 <UART_SetConfig+0x250>
 8004bfa:	231b      	movs	r3, #27
 8004bfc:	2218      	movs	r2, #24
 8004bfe:	4694      	mov	ip, r2
 8004c00:	44bc      	add	ip, r7
 8004c02:	4463      	add	r3, ip
 8004c04:	2204      	movs	r2, #4
 8004c06:	701a      	strb	r2, [r3, #0]
 8004c08:	e016      	b.n	8004c38 <UART_SetConfig+0x250>
 8004c0a:	231b      	movs	r3, #27
 8004c0c:	2218      	movs	r2, #24
 8004c0e:	4694      	mov	ip, r2
 8004c10:	44bc      	add	ip, r7
 8004c12:	4463      	add	r3, ip
 8004c14:	2208      	movs	r2, #8
 8004c16:	701a      	strb	r2, [r3, #0]
 8004c18:	e00e      	b.n	8004c38 <UART_SetConfig+0x250>
 8004c1a:	231b      	movs	r3, #27
 8004c1c:	2218      	movs	r2, #24
 8004c1e:	4694      	mov	ip, r2
 8004c20:	44bc      	add	ip, r7
 8004c22:	4463      	add	r3, ip
 8004c24:	2210      	movs	r2, #16
 8004c26:	701a      	strb	r2, [r3, #0]
 8004c28:	e006      	b.n	8004c38 <UART_SetConfig+0x250>
 8004c2a:	231b      	movs	r3, #27
 8004c2c:	2218      	movs	r2, #24
 8004c2e:	4694      	mov	ip, r2
 8004c30:	44bc      	add	ip, r7
 8004c32:	4463      	add	r3, ip
 8004c34:	2210      	movs	r2, #16
 8004c36:	701a      	strb	r2, [r3, #0]
 8004c38:	69fb      	ldr	r3, [r7, #28]
 8004c3a:	681b      	ldr	r3, [r3, #0]
 8004c3c:	4a2a      	ldr	r2, [pc, #168]	; (8004ce8 <UART_SetConfig+0x300>)
 8004c3e:	4293      	cmp	r3, r2
 8004c40:	d000      	beq.n	8004c44 <UART_SetConfig+0x25c>
 8004c42:	e09e      	b.n	8004d82 <UART_SetConfig+0x39a>
 8004c44:	231b      	movs	r3, #27
 8004c46:	2218      	movs	r2, #24
 8004c48:	4694      	mov	ip, r2
 8004c4a:	44bc      	add	ip, r7
 8004c4c:	4463      	add	r3, ip
 8004c4e:	781b      	ldrb	r3, [r3, #0]
 8004c50:	2b08      	cmp	r3, #8
 8004c52:	d01d      	beq.n	8004c90 <UART_SetConfig+0x2a8>
 8004c54:	dc20      	bgt.n	8004c98 <UART_SetConfig+0x2b0>
 8004c56:	2b04      	cmp	r3, #4
 8004c58:	d015      	beq.n	8004c86 <UART_SetConfig+0x29e>
 8004c5a:	dc1d      	bgt.n	8004c98 <UART_SetConfig+0x2b0>
 8004c5c:	2b00      	cmp	r3, #0
 8004c5e:	d002      	beq.n	8004c66 <UART_SetConfig+0x27e>
 8004c60:	2b02      	cmp	r3, #2
 8004c62:	d005      	beq.n	8004c70 <UART_SetConfig+0x288>
 8004c64:	e018      	b.n	8004c98 <UART_SetConfig+0x2b0>
 8004c66:	f7fe fc6d 	bl	8003544 <HAL_RCC_GetPCLK1Freq>
 8004c6a:	0003      	movs	r3, r0
 8004c6c:	62fb      	str	r3, [r7, #44]	; 0x2c
 8004c6e:	e01d      	b.n	8004cac <UART_SetConfig+0x2c4>
 8004c70:	4b20      	ldr	r3, [pc, #128]	; (8004cf4 <UART_SetConfig+0x30c>)
 8004c72:	681b      	ldr	r3, [r3, #0]
 8004c74:	2210      	movs	r2, #16
 8004c76:	4013      	ands	r3, r2
 8004c78:	d002      	beq.n	8004c80 <UART_SetConfig+0x298>
 8004c7a:	4b22      	ldr	r3, [pc, #136]	; (8004d04 <UART_SetConfig+0x31c>)
 8004c7c:	62fb      	str	r3, [r7, #44]	; 0x2c
 8004c7e:	e015      	b.n	8004cac <UART_SetConfig+0x2c4>
 8004c80:	4b21      	ldr	r3, [pc, #132]	; (8004d08 <UART_SetConfig+0x320>)
 8004c82:	62fb      	str	r3, [r7, #44]	; 0x2c
 8004c84:	e012      	b.n	8004cac <UART_SetConfig+0x2c4>
 8004c86:	f7fe fbad 	bl	80033e4 <HAL_RCC_GetSysClockFreq>
 8004c8a:	0003      	movs	r3, r0
 8004c8c:	62fb      	str	r3, [r7, #44]	; 0x2c
 8004c8e:	e00d      	b.n	8004cac <UART_SetConfig+0x2c4>
 8004c90:	2380      	movs	r3, #128	; 0x80
 8004c92:	021b      	lsls	r3, r3, #8
 8004c94:	62fb      	str	r3, [r7, #44]	; 0x2c
 8004c96:	e009      	b.n	8004cac <UART_SetConfig+0x2c4>
 8004c98:	2300      	movs	r3, #0
 8004c9a:	62fb      	str	r3, [r7, #44]	; 0x2c
 8004c9c:	231a      	movs	r3, #26
 8004c9e:	2218      	movs	r2, #24
 8004ca0:	4694      	mov	ip, r2
 8004ca2:	44bc      	add	ip, r7
 8004ca4:	4463      	add	r3, ip
 8004ca6:	2201      	movs	r2, #1
 8004ca8:	701a      	strb	r2, [r3, #0]
 8004caa:	46c0      	nop			; (mov r8, r8)
 8004cac:	6afb      	ldr	r3, [r7, #44]	; 0x2c
 8004cae:	2b00      	cmp	r3, #0
 8004cb0:	d100      	bne.n	8004cb4 <UART_SetConfig+0x2cc>
 8004cb2:	e13c      	b.n	8004f2e <UART_SetConfig+0x546>
 8004cb4:	69fb      	ldr	r3, [r7, #28]
 8004cb6:	685a      	ldr	r2, [r3, #4]
 8004cb8:	0013      	movs	r3, r2
 8004cba:	005b      	lsls	r3, r3, #1
 8004cbc:	189b      	adds	r3, r3, r2
 8004cbe:	6afa      	ldr	r2, [r7, #44]	; 0x2c
 8004cc0:	429a      	cmp	r2, r3
 8004cc2:	d305      	bcc.n	8004cd0 <UART_SetConfig+0x2e8>
 8004cc4:	69fb      	ldr	r3, [r7, #28]
 8004cc6:	685b      	ldr	r3, [r3, #4]
 8004cc8:	031b      	lsls	r3, r3, #12
 8004cca:	6afa      	ldr	r2, [r7, #44]	; 0x2c
 8004ccc:	429a      	cmp	r2, r3
 8004cce:	d91d      	bls.n	8004d0c <UART_SetConfig+0x324>
 8004cd0:	231a      	movs	r3, #26
 8004cd2:	2218      	movs	r2, #24
 8004cd4:	4694      	mov	ip, r2
 8004cd6:	44bc      	add	ip, r7
 8004cd8:	4463      	add	r3, ip
 8004cda:	2201      	movs	r2, #1
 8004cdc:	701a      	strb	r2, [r3, #0]
 8004cde:	e126      	b.n	8004f2e <UART_SetConfig+0x546>
 8004ce0:	efff69f3 	.word	0xefff69f3
 8004ce4:	ffffcfff 	.word	0xffffcfff
 8004ce8:	40004800 	.word	0x40004800
 8004cec:	fffff4ff 	.word	0xfffff4ff
 8004cf0:	40013800 	.word	0x40013800
 8004cf4:	40021000 	.word	0x40021000
 8004cf8:	40004400 	.word	0x40004400
 8004cfc:	40004c00 	.word	0x40004c00
 8004d00:	40005000 	.word	0x40005000
 8004d04:	003d0900 	.word	0x003d0900
 8004d08:	00f42400 	.word	0x00f42400
 8004d0c:	6afb      	ldr	r3, [r7, #44]	; 0x2c
 8004d0e:	613b      	str	r3, [r7, #16]
 8004d10:	2300      	movs	r3, #0
 8004d12:	617b      	str	r3, [r7, #20]
 8004d14:	6939      	ldr	r1, [r7, #16]
 8004d16:	697a      	ldr	r2, [r7, #20]
 8004d18:	000b      	movs	r3, r1
 8004d1a:	0e1b      	lsrs	r3, r3, #24
 8004d1c:	0010      	movs	r0, r2
 8004d1e:	0205      	lsls	r5, r0, #8
 8004d20:	431d      	orrs	r5, r3
 8004d22:	000b      	movs	r3, r1
 8004d24:	021c      	lsls	r4, r3, #8
 8004d26:	69fb      	ldr	r3, [r7, #28]
 8004d28:	685b      	ldr	r3, [r3, #4]
 8004d2a:	085b      	lsrs	r3, r3, #1
 8004d2c:	60bb      	str	r3, [r7, #8]
 8004d2e:	2300      	movs	r3, #0
 8004d30:	60fb      	str	r3, [r7, #12]
 8004d32:	68b8      	ldr	r0, [r7, #8]
 8004d34:	68f9      	ldr	r1, [r7, #12]
 8004d36:	1900      	adds	r0, r0, r4
 8004d38:	4169      	adcs	r1, r5
 8004d3a:	69fb      	ldr	r3, [r7, #28]
 8004d3c:	685b      	ldr	r3, [r3, #4]
 8004d3e:	603b      	str	r3, [r7, #0]
 8004d40:	2300      	movs	r3, #0
 8004d42:	607b      	str	r3, [r7, #4]
 8004d44:	683a      	ldr	r2, [r7, #0]
 8004d46:	687b      	ldr	r3, [r7, #4]
 8004d48:	f7fb fb66 	bl	8000418 <__aeabi_uldivmod>
 8004d4c:	0002      	movs	r2, r0
 8004d4e:	000b      	movs	r3, r1
 8004d50:	0013      	movs	r3, r2
 8004d52:	62bb      	str	r3, [r7, #40]	; 0x28
 8004d54:	6aba      	ldr	r2, [r7, #40]	; 0x28
 8004d56:	23c0      	movs	r3, #192	; 0xc0
 8004d58:	009b      	lsls	r3, r3, #2
 8004d5a:	429a      	cmp	r2, r3
 8004d5c:	d309      	bcc.n	8004d72 <UART_SetConfig+0x38a>
 8004d5e:	6aba      	ldr	r2, [r7, #40]	; 0x28
 8004d60:	2380      	movs	r3, #128	; 0x80
 8004d62:	035b      	lsls	r3, r3, #13
 8004d64:	429a      	cmp	r2, r3
 8004d66:	d204      	bcs.n	8004d72 <UART_SetConfig+0x38a>
 8004d68:	69fb      	ldr	r3, [r7, #28]
 8004d6a:	681b      	ldr	r3, [r3, #0]
 8004d6c:	6aba      	ldr	r2, [r7, #40]	; 0x28
 8004d6e:	60da      	str	r2, [r3, #12]
 8004d70:	e0dd      	b.n	8004f2e <UART_SetConfig+0x546>
 8004d72:	231a      	movs	r3, #26
 8004d74:	2218      	movs	r2, #24
 8004d76:	4694      	mov	ip, r2
 8004d78:	44bc      	add	ip, r7
 8004d7a:	4463      	add	r3, ip
 8004d7c:	2201      	movs	r2, #1
 8004d7e:	701a      	strb	r2, [r3, #0]
 8004d80:	e0d5      	b.n	8004f2e <UART_SetConfig+0x546>
 8004d82:	69fb      	ldr	r3, [r7, #28]
 8004d84:	69da      	ldr	r2, [r3, #28]
 8004d86:	2380      	movs	r3, #128	; 0x80
 8004d88:	021b      	lsls	r3, r3, #8
 8004d8a:	429a      	cmp	r2, r3
 8004d8c:	d000      	beq.n	8004d90 <UART_SetConfig+0x3a8>
 8004d8e:	e074      	b.n	8004e7a <UART_SetConfig+0x492>
 8004d90:	231b      	movs	r3, #27
 8004d92:	2218      	movs	r2, #24
 8004d94:	4694      	mov	ip, r2
 8004d96:	44bc      	add	ip, r7
 8004d98:	4463      	add	r3, ip
 8004d9a:	781b      	ldrb	r3, [r3, #0]
 8004d9c:	2b08      	cmp	r3, #8
 8004d9e:	d822      	bhi.n	8004de6 <UART_SetConfig+0x3fe>
 8004da0:	009a      	lsls	r2, r3, #2
 8004da2:	4b6b      	ldr	r3, [pc, #428]	; (8004f50 <UART_SetConfig+0x568>)
 8004da4:	18d3      	adds	r3, r2, r3
 8004da6:	681b      	ldr	r3, [r3, #0]
 8004da8:	469f      	mov	pc, r3
 8004daa:	f7fe fbcb 	bl	8003544 <HAL_RCC_GetPCLK1Freq>
 8004dae:	0003      	movs	r3, r0
 8004db0:	62fb      	str	r3, [r7, #44]	; 0x2c
 8004db2:	e022      	b.n	8004dfa <UART_SetConfig+0x412>
 8004db4:	f7fe fbdc 	bl	8003570 <HAL_RCC_GetPCLK2Freq>
 8004db8:	0003      	movs	r3, r0
 8004dba:	62fb      	str	r3, [r7, #44]	; 0x2c
 8004dbc:	e01d      	b.n	8004dfa <UART_SetConfig+0x412>
 8004dbe:	4b65      	ldr	r3, [pc, #404]	; (8004f54 <UART_SetConfig+0x56c>)
 8004dc0:	681b      	ldr	r3, [r3, #0]
 8004dc2:	2210      	movs	r2, #16
 8004dc4:	4013      	ands	r3, r2
 8004dc6:	d002      	beq.n	8004dce <UART_SetConfig+0x3e6>
 8004dc8:	4b63      	ldr	r3, [pc, #396]	; (8004f58 <UART_SetConfig+0x570>)
 8004dca:	62fb      	str	r3, [r7, #44]	; 0x2c
 8004dcc:	e015      	b.n	8004dfa <UART_SetConfig+0x412>
 8004dce:	4b63      	ldr	r3, [pc, #396]	; (8004f5c <UART_SetConfig+0x574>)
 8004dd0:	62fb      	str	r3, [r7, #44]	; 0x2c
 8004dd2:	e012      	b.n	8004dfa <UART_SetConfig+0x412>
 8004dd4:	f7fe fb06 	bl	80033e4 <HAL_RCC_GetSysClockFreq>
 8004dd8:	0003      	movs	r3, r0
 8004dda:	62fb      	str	r3, [r7, #44]	; 0x2c
 8004ddc:	e00d      	b.n	8004dfa <UART_SetConfig+0x412>
 8004dde:	2380      	movs	r3, #128	; 0x80
 8004de0:	021b      	lsls	r3, r3, #8
 8004de2:	62fb      	str	r3, [r7, #44]	; 0x2c
 8004de4:	e009      	b.n	8004dfa <UART_SetConfig+0x412>
 8004de6:	2300      	movs	r3, #0
 8004de8:	62fb      	str	r3, [r7, #44]	; 0x2c
 8004dea:	231a      	movs	r3, #26
 8004dec:	2218      	movs	r2, #24
 8004dee:	4694      	mov	ip, r2
 8004df0:	44bc      	add	ip, r7
 8004df2:	4463      	add	r3, ip
 8004df4:	2201      	movs	r2, #1
 8004df6:	701a      	strb	r2, [r3, #0]
 8004df8:	46c0      	nop			; (mov r8, r8)
 8004dfa:	6afb      	ldr	r3, [r7, #44]	; 0x2c
 8004dfc:	2b00      	cmp	r3, #0
 8004dfe:	d100      	bne.n	8004e02 <UART_SetConfig+0x41a>
 8004e00:	e095      	b.n	8004f2e <UART_SetConfig+0x546>
 8004e02:	6afb      	ldr	r3, [r7, #44]	; 0x2c
 8004e04:	005a      	lsls	r2, r3, #1
 8004e06:	69fb      	ldr	r3, [r7, #28]
 8004e08:	685b      	ldr	r3, [r3, #4]
 8004e0a:	085b      	lsrs	r3, r3, #1
 8004e0c:	18d2      	adds	r2, r2, r3
 8004e0e:	69fb      	ldr	r3, [r7, #28]
 8004e10:	685b      	ldr	r3, [r3, #4]
 8004e12:	0019      	movs	r1, r3
 8004e14:	0010      	movs	r0, r2
 8004e16:	f7fb f989 	bl	800012c <__udivsi3>
 8004e1a:	0003      	movs	r3, r0
 8004e1c:	b29b      	uxth	r3, r3
 8004e1e:	62bb      	str	r3, [r7, #40]	; 0x28
 8004e20:	6abb      	ldr	r3, [r7, #40]	; 0x28
 8004e22:	2b0f      	cmp	r3, #15
 8004e24:	d921      	bls.n	8004e6a <UART_SetConfig+0x482>
 8004e26:	6aba      	ldr	r2, [r7, #40]	; 0x28
 8004e28:	2380      	movs	r3, #128	; 0x80
 8004e2a:	025b      	lsls	r3, r3, #9
 8004e2c:	429a      	cmp	r2, r3
 8004e2e:	d21c      	bcs.n	8004e6a <UART_SetConfig+0x482>
 8004e30:	6abb      	ldr	r3, [r7, #40]	; 0x28
 8004e32:	b29a      	uxth	r2, r3
 8004e34:	200e      	movs	r0, #14
 8004e36:	2418      	movs	r4, #24
 8004e38:	193b      	adds	r3, r7, r4
 8004e3a:	181b      	adds	r3, r3, r0
 8004e3c:	210f      	movs	r1, #15
 8004e3e:	438a      	bics	r2, r1
 8004e40:	801a      	strh	r2, [r3, #0]
 8004e42:	6abb      	ldr	r3, [r7, #40]	; 0x28
 8004e44:	085b      	lsrs	r3, r3, #1
 8004e46:	b29b      	uxth	r3, r3
 8004e48:	2207      	movs	r2, #7
 8004e4a:	4013      	ands	r3, r2
 8004e4c:	b299      	uxth	r1, r3
 8004e4e:	193b      	adds	r3, r7, r4
 8004e50:	181b      	adds	r3, r3, r0
 8004e52:	193a      	adds	r2, r7, r4
 8004e54:	1812      	adds	r2, r2, r0
 8004e56:	8812      	ldrh	r2, [r2, #0]
 8004e58:	430a      	orrs	r2, r1
 8004e5a:	801a      	strh	r2, [r3, #0]
 8004e5c:	69fb      	ldr	r3, [r7, #28]
 8004e5e:	681b      	ldr	r3, [r3, #0]
 8004e60:	193a      	adds	r2, r7, r4
 8004e62:	1812      	adds	r2, r2, r0
 8004e64:	8812      	ldrh	r2, [r2, #0]
 8004e66:	60da      	str	r2, [r3, #12]
 8004e68:	e061      	b.n	8004f2e <UART_SetConfig+0x546>
 8004e6a:	231a      	movs	r3, #26
 8004e6c:	2218      	movs	r2, #24
 8004e6e:	4694      	mov	ip, r2
 8004e70:	44bc      	add	ip, r7
 8004e72:	4463      	add	r3, ip
 8004e74:	2201      	movs	r2, #1
 8004e76:	701a      	strb	r2, [r3, #0]
 8004e78:	e059      	b.n	8004f2e <UART_SetConfig+0x546>
 8004e7a:	231b      	movs	r3, #27
 8004e7c:	2218      	movs	r2, #24
 8004e7e:	4694      	mov	ip, r2
 8004e80:	44bc      	add	ip, r7
 8004e82:	4463      	add	r3, ip
 8004e84:	781b      	ldrb	r3, [r3, #0]
 8004e86:	2b08      	cmp	r3, #8
 8004e88:	d822      	bhi.n	8004ed0 <UART_SetConfig+0x4e8>
 8004e8a:	009a      	lsls	r2, r3, #2
 8004e8c:	4b34      	ldr	r3, [pc, #208]	; (8004f60 <UART_SetConfig+0x578>)
 8004e8e:	18d3      	adds	r3, r2, r3
 8004e90:	681b      	ldr	r3, [r3, #0]
 8004e92:	469f      	mov	pc, r3
 8004e94:	f7fe fb56 	bl	8003544 <HAL_RCC_GetPCLK1Freq>
 8004e98:	0003      	movs	r3, r0
 8004e9a:	62fb      	str	r3, [r7, #44]	; 0x2c
 8004e9c:	e022      	b.n	8004ee4 <UART_SetConfig+0x4fc>
 8004e9e:	f7fe fb67 	bl	8003570 <HAL_RCC_GetPCLK2Freq>
 8004ea2:	0003      	movs	r3, r0
 8004ea4:	62fb      	str	r3, [r7, #44]	; 0x2c
 8004ea6:	e01d      	b.n	8004ee4 <UART_SetConfig+0x4fc>
 8004ea8:	4b2a      	ldr	r3, [pc, #168]	; (8004f54 <UART_SetConfig+0x56c>)
 8004eaa:	681b      	ldr	r3, [r3, #0]
 8004eac:	2210      	movs	r2, #16
 8004eae:	4013      	ands	r3, r2
 8004eb0:	d002      	beq.n	8004eb8 <UART_SetConfig+0x4d0>
 8004eb2:	4b29      	ldr	r3, [pc, #164]	; (8004f58 <UART_SetConfig+0x570>)
 8004eb4:	62fb      	str	r3, [r7, #44]	; 0x2c
 8004eb6:	e015      	b.n	8004ee4 <UART_SetConfig+0x4fc>
 8004eb8:	4b28      	ldr	r3, [pc, #160]	; (8004f5c <UART_SetConfig+0x574>)
 8004eba:	62fb      	str	r3, [r7, #44]	; 0x2c
 8004ebc:	e012      	b.n	8004ee4 <UART_SetConfig+0x4fc>
 8004ebe:	f7fe fa91 	bl	80033e4 <HAL_RCC_GetSysClockFreq>
 8004ec2:	0003      	movs	r3, r0
 8004ec4:	62fb      	str	r3, [r7, #44]	; 0x2c
 8004ec6:	e00d      	b.n	8004ee4 <UART_SetConfig+0x4fc>
 8004ec8:	2380      	movs	r3, #128	; 0x80
 8004eca:	021b      	lsls	r3, r3, #8
 8004ecc:	62fb      	str	r3, [r7, #44]	; 0x2c
 8004ece:	e009      	b.n	8004ee4 <UART_SetConfig+0x4fc>
 8004ed0:	2300      	movs	r3, #0
 8004ed2:	62fb      	str	r3, [r7, #44]	; 0x2c
 8004ed4:	231a      	movs	r3, #26
 8004ed6:	2218      	movs	r2, #24
 8004ed8:	4694      	mov	ip, r2
 8004eda:	44bc      	add	ip, r7
 8004edc:	4463      	add	r3, ip
 8004ede:	2201      	movs	r2, #1
 8004ee0:	701a      	strb	r2, [r3, #0]
 8004ee2:	46c0      	nop			; (mov r8, r8)
 8004ee4:	6afb      	ldr	r3, [r7, #44]	; 0x2c
 8004ee6:	2b00      	cmp	r3, #0
 8004ee8:	d021      	beq.n	8004f2e <UART_SetConfig+0x546>
 8004eea:	69fb      	ldr	r3, [r7, #28]
 8004eec:	685b      	ldr	r3, [r3, #4]
 8004eee:	085a      	lsrs	r2, r3, #1
 8004ef0:	6afb      	ldr	r3, [r7, #44]	; 0x2c
 8004ef2:	18d2      	adds	r2, r2, r3
 8004ef4:	69fb      	ldr	r3, [r7, #28]
 8004ef6:	685b      	ldr	r3, [r3, #4]
 8004ef8:	0019      	movs	r1, r3
 8004efa:	0010      	movs	r0, r2
 8004efc:	f7fb f916 	bl	800012c <__udivsi3>
 8004f00:	0003      	movs	r3, r0
 8004f02:	b29b      	uxth	r3, r3
 8004f04:	62bb      	str	r3, [r7, #40]	; 0x28
 8004f06:	6abb      	ldr	r3, [r7, #40]	; 0x28
 8004f08:	2b0f      	cmp	r3, #15
 8004f0a:	d909      	bls.n	8004f20 <UART_SetConfig+0x538>
 8004f0c:	6aba      	ldr	r2, [r7, #40]	; 0x28
 8004f0e:	2380      	movs	r3, #128	; 0x80
 8004f10:	025b      	lsls	r3, r3, #9
 8004f12:	429a      	cmp	r2, r3
 8004f14:	d204      	bcs.n	8004f20 <UART_SetConfig+0x538>
 8004f16:	69fb      	ldr	r3, [r7, #28]
 8004f18:	681b      	ldr	r3, [r3, #0]
 8004f1a:	6aba      	ldr	r2, [r7, #40]	; 0x28
 8004f1c:	60da      	str	r2, [r3, #12]
 8004f1e:	e006      	b.n	8004f2e <UART_SetConfig+0x546>
 8004f20:	231a      	movs	r3, #26
 8004f22:	2218      	movs	r2, #24
 8004f24:	4694      	mov	ip, r2
 8004f26:	44bc      	add	ip, r7
 8004f28:	4463      	add	r3, ip
 8004f2a:	2201      	movs	r2, #1
 8004f2c:	701a      	strb	r2, [r3, #0]
 8004f2e:	69fb      	ldr	r3, [r7, #28]
 8004f30:	2200      	movs	r2, #0
 8004f32:	665a      	str	r2, [r3, #100]	; 0x64
 8004f34:	69fb      	ldr	r3, [r7, #28]
 8004f36:	2200      	movs	r2, #0
 8004f38:	669a      	str	r2, [r3, #104]	; 0x68
 8004f3a:	231a      	movs	r3, #26
 8004f3c:	2218      	movs	r2, #24
 8004f3e:	4694      	mov	ip, r2
 8004f40:	44bc      	add	ip, r7
 8004f42:	4463      	add	r3, ip
 8004f44:	781b      	ldrb	r3, [r3, #0]
 8004f46:	0018      	movs	r0, r3
 8004f48:	46bd      	mov	sp, r7
 8004f4a:	b00e      	add	sp, #56	; 0x38
 8004f4c:	bdb0      	pop	{r4, r5, r7, pc}
 8004f4e:	46c0      	nop			; (mov r8, r8)
 8004f50:	08006c1c 	.word	0x08006c1c
 8004f54:	40021000 	.word	0x40021000
 8004f58:	003d0900 	.word	0x003d0900
 8004f5c:	00f42400 	.word	0x00f42400
 8004f60:	08006c40 	.word	0x08006c40

08004f64 <UART_AdvFeatureConfig>:
 8004f64:	b580      	push	{r7, lr}
 8004f66:	b082      	sub	sp, #8
 8004f68:	af00      	add	r7, sp, #0
 8004f6a:	6078      	str	r0, [r7, #4]
 8004f6c:	687b      	ldr	r3, [r7, #4]
 8004f6e:	6a5b      	ldr	r3, [r3, #36]	; 0x24
 8004f70:	2201      	movs	r2, #1
 8004f72:	4013      	ands	r3, r2
 8004f74:	d00b      	beq.n	8004f8e <UART_AdvFeatureConfig+0x2a>
 8004f76:	687b      	ldr	r3, [r7, #4]
 8004f78:	681b      	ldr	r3, [r3, #0]
 8004f7a:	685b      	ldr	r3, [r3, #4]
 8004f7c:	4a4a      	ldr	r2, [pc, #296]	; (80050a8 <UART_AdvFeatureConfig+0x144>)
 8004f7e:	4013      	ands	r3, r2
 8004f80:	0019      	movs	r1, r3
 8004f82:	687b      	ldr	r3, [r7, #4]
 8004f84:	6a9a      	ldr	r2, [r3, #40]	; 0x28
 8004f86:	687b      	ldr	r3, [r7, #4]
 8004f88:	681b      	ldr	r3, [r3, #0]
 8004f8a:	430a      	orrs	r2, r1
 8004f8c:	605a      	str	r2, [r3, #4]
 8004f8e:	687b      	ldr	r3, [r7, #4]
 8004f90:	6a5b      	ldr	r3, [r3, #36]	; 0x24
 8004f92:	2202      	movs	r2, #2
 8004f94:	4013      	ands	r3, r2
 8004f96:	d00b      	beq.n	8004fb0 <UART_AdvFeatureConfig+0x4c>
 8004f98:	687b      	ldr	r3, [r7, #4]
 8004f9a:	681b      	ldr	r3, [r3, #0]
 8004f9c:	685b      	ldr	r3, [r3, #4]
 8004f9e:	4a43      	ldr	r2, [pc, #268]	; (80050ac <UART_AdvFeatureConfig+0x148>)
 8004fa0:	4013      	ands	r3, r2
 8004fa2:	0019      	movs	r1, r3
 8004fa4:	687b      	ldr	r3, [r7, #4]
 8004fa6:	6ada      	ldr	r2, [r3, #44]	; 0x2c
 8004fa8:	687b      	ldr	r3, [r7, #4]
 8004faa:	681b      	ldr	r3, [r3, #0]
 8004fac:	430a      	orrs	r2, r1
 8004fae:	605a      	str	r2, [r3, #4]
 8004fb0:	687b      	ldr	r3, [r7, #4]
 8004fb2:	6a5b      	ldr	r3, [r3, #36]	; 0x24
 8004fb4:	2204      	movs	r2, #4
 8004fb6:	4013      	ands	r3, r2
 8004fb8:	d00b      	beq.n	8004fd2 <UART_AdvFeatureConfig+0x6e>
 8004fba:	687b      	ldr	r3, [r7, #4]
 8004fbc:	681b      	ldr	r3, [r3, #0]
 8004fbe:	685b      	ldr	r3, [r3, #4]
 8004fc0:	4a3b      	ldr	r2, [pc, #236]	; (80050b0 <UART_AdvFeatureConfig+0x14c>)
 8004fc2:	4013      	ands	r3, r2
 8004fc4:	0019      	movs	r1, r3
 8004fc6:	687b      	ldr	r3, [r7, #4]
 8004fc8:	6b1a      	ldr	r2, [r3, #48]	; 0x30
 8004fca:	687b      	ldr	r3, [r7, #4]
 8004fcc:	681b      	ldr	r3, [r3, #0]
 8004fce:	430a      	orrs	r2, r1
 8004fd0:	605a      	str	r2, [r3, #4]
 8004fd2:	687b      	ldr	r3, [r7, #4]
 8004fd4:	6a5b      	ldr	r3, [r3, #36]	; 0x24
 8004fd6:	2208      	movs	r2, #8
 8004fd8:	4013      	ands	r3, r2
 8004fda:	d00b      	beq.n	8004ff4 <UART_AdvFeatureConfig+0x90>
 8004fdc:	687b      	ldr	r3, [r7, #4]
 8004fde:	681b      	ldr	r3, [r3, #0]
 8004fe0:	685b      	ldr	r3, [r3, #4]
 8004fe2:	4a34      	ldr	r2, [pc, #208]	; (80050b4 <UART_AdvFeatureConfig+0x150>)
 8004fe4:	4013      	ands	r3, r2
 8004fe6:	0019      	movs	r1, r3
 8004fe8:	687b      	ldr	r3, [r7, #4]
 8004fea:	6b5a      	ldr	r2, [r3, #52]	; 0x34
 8004fec:	687b      	ldr	r3, [r7, #4]
 8004fee:	681b      	ldr	r3, [r3, #0]
 8004ff0:	430a      	orrs	r2, r1
 8004ff2:	605a      	str	r2, [r3, #4]
 8004ff4:	687b      	ldr	r3, [r7, #4]
 8004ff6:	6a5b      	ldr	r3, [r3, #36]	; 0x24
 8004ff8:	2210      	movs	r2, #16
 8004ffa:	4013      	ands	r3, r2
 8004ffc:	d00b      	beq.n	8005016 <UART_AdvFeatureConfig+0xb2>
 8004ffe:	687b      	ldr	r3, [r7, #4]
 8005000:	681b      	ldr	r3, [r3, #0]
 8005002:	689b      	ldr	r3, [r3, #8]
 8005004:	4a2c      	ldr	r2, [pc, #176]	; (80050b8 <UART_AdvFeatureConfig+0x154>)
 8005006:	4013      	ands	r3, r2
 8005008:	0019      	movs	r1, r3
 800500a:	687b      	ldr	r3, [r7, #4]
 800500c:	6b9a      	ldr	r2, [r3, #56]	; 0x38
 800500e:	687b      	ldr	r3, [r7, #4]
 8005010:	681b      	ldr	r3, [r3, #0]
 8005012:	430a      	orrs	r2, r1
 8005014:	609a      	str	r2, [r3, #8]
 8005016:	687b      	ldr	r3, [r7, #4]
 8005018:	6a5b      	ldr	r3, [r3, #36]	; 0x24
 800501a:	2220      	movs	r2, #32
 800501c:	4013      	ands	r3, r2
 800501e:	d00b      	beq.n	8005038 <UART_AdvFeatureConfig+0xd4>
 8005020:	687b      	ldr	r3, [r7, #4]
 8005022:	681b      	ldr	r3, [r3, #0]
 8005024:	689b      	ldr	r3, [r3, #8]
 8005026:	4a25      	ldr	r2, [pc, #148]	; (80050bc <UART_AdvFeatureConfig+0x158>)
 8005028:	4013      	ands	r3, r2
 800502a:	0019      	movs	r1, r3
 800502c:	687b      	ldr	r3, [r7, #4]
 800502e:	6bda      	ldr	r2, [r3, #60]	; 0x3c
 8005030:	687b      	ldr	r3, [r7, #4]
 8005032:	681b      	ldr	r3, [r3, #0]
 8005034:	430a      	orrs	r2, r1
 8005036:	609a      	str	r2, [r3, #8]
 8005038:	687b      	ldr	r3, [r7, #4]
 800503a:	6a5b      	ldr	r3, [r3, #36]	; 0x24
 800503c:	2240      	movs	r2, #64	; 0x40
 800503e:	4013      	ands	r3, r2
 8005040:	d01d      	beq.n	800507e <UART_AdvFeatureConfig+0x11a>
 8005042:	687b      	ldr	r3, [r7, #4]
 8005044:	681b      	ldr	r3, [r3, #0]
 8005046:	685b      	ldr	r3, [r3, #4]
 8005048:	4a1d      	ldr	r2, [pc, #116]	; (80050c0 <UART_AdvFeatureConfig+0x15c>)
 800504a:	4013      	ands	r3, r2
 800504c:	0019      	movs	r1, r3
 800504e:	687b      	ldr	r3, [r7, #4]
 8005050:	6c1a      	ldr	r2, [r3, #64]	; 0x40
 8005052:	687b      	ldr	r3, [r7, #4]
 8005054:	681b      	ldr	r3, [r3, #0]
 8005056:	430a      	orrs	r2, r1
 8005058:	605a      	str	r2, [r3, #4]
 800505a:	687b      	ldr	r3, [r7, #4]
 800505c:	6c1a      	ldr	r2, [r3, #64]	; 0x40
 800505e:	2380      	movs	r3, #128	; 0x80
 8005060:	035b      	lsls	r3, r3, #13
 8005062:	429a      	cmp	r2, r3
 8005064:	d10b      	bne.n	800507e <UART_AdvFeatureConfig+0x11a>
 8005066:	687b      	ldr	r3, [r7, #4]
 8005068:	681b      	ldr	r3, [r3, #0]
 800506a:	685b      	ldr	r3, [r3, #4]
 800506c:	4a15      	ldr	r2, [pc, #84]	; (80050c4 <UART_AdvFeatureConfig+0x160>)
 800506e:	4013      	ands	r3, r2
 8005070:	0019      	movs	r1, r3
 8005072:	687b      	ldr	r3, [r7, #4]
 8005074:	6c5a      	ldr	r2, [r3, #68]	; 0x44
 8005076:	687b      	ldr	r3, [r7, #4]
 8005078:	681b      	ldr	r3, [r3, #0]
 800507a:	430a      	orrs	r2, r1
 800507c:	605a      	str	r2, [r3, #4]
 800507e:	687b      	ldr	r3, [r7, #4]
 8005080:	6a5b      	ldr	r3, [r3, #36]	; 0x24
 8005082:	2280      	movs	r2, #128	; 0x80
 8005084:	4013      	ands	r3, r2
 8005086:	d00b      	beq.n	80050a0 <UART_AdvFeatureConfig+0x13c>
 8005088:	687b      	ldr	r3, [r7, #4]
 800508a:	681b      	ldr	r3, [r3, #0]
 800508c:	685b      	ldr	r3, [r3, #4]
 800508e:	4a0e      	ldr	r2, [pc, #56]	; (80050c8 <UART_AdvFeatureConfig+0x164>)
 8005090:	4013      	ands	r3, r2
 8005092:	0019      	movs	r1, r3
 8005094:	687b      	ldr	r3, [r7, #4]
 8005096:	6c9a      	ldr	r2, [r3, #72]	; 0x48
 8005098:	687b      	ldr	r3, [r7, #4]
 800509a:	681b      	ldr	r3, [r3, #0]
 800509c:	430a      	orrs	r2, r1
 800509e:	605a      	str	r2, [r3, #4]
 80050a0:	46c0      	nop			; (mov r8, r8)
 80050a2:	46bd      	mov	sp, r7
 80050a4:	b002      	add	sp, #8
 80050a6:	bd80      	pop	{r7, pc}
 80050a8:	fffdffff 	.word	0xfffdffff
 80050ac:	fffeffff 	.word	0xfffeffff
 80050b0:	fffbffff 	.word	0xfffbffff
 80050b4:	ffff7fff 	.word	0xffff7fff
 80050b8:	ffffefff 	.word	0xffffefff
 80050bc:	ffffdfff 	.word	0xffffdfff
 80050c0:	ffefffff 	.word	0xffefffff
 80050c4:	ff9fffff 	.word	0xff9fffff
 80050c8:	fff7ffff 	.word	0xfff7ffff

080050cc <UART_CheckIdleState>:
 80050cc:	b580      	push	{r7, lr}
 80050ce:	b086      	sub	sp, #24
 80050d0:	af02      	add	r7, sp, #8
 80050d2:	6078      	str	r0, [r7, #4]
 80050d4:	687b      	ldr	r3, [r7, #4]
 80050d6:	2280      	movs	r2, #128	; 0x80
 80050d8:	2100      	movs	r1, #0
 80050da:	5099      	str	r1, [r3, r2]
 80050dc:	f7fd f8fe 	bl	80022dc <HAL_GetTick>
 80050e0:	0003      	movs	r3, r0
 80050e2:	60fb      	str	r3, [r7, #12]
 80050e4:	687b      	ldr	r3, [r7, #4]
 80050e6:	681b      	ldr	r3, [r3, #0]
 80050e8:	681b      	ldr	r3, [r3, #0]
 80050ea:	2208      	movs	r2, #8
 80050ec:	4013      	ands	r3, r2
 80050ee:	2b08      	cmp	r3, #8
 80050f0:	d10c      	bne.n	800510c <UART_CheckIdleState+0x40>
 80050f2:	68fb      	ldr	r3, [r7, #12]
 80050f4:	2280      	movs	r2, #128	; 0x80
 80050f6:	0391      	lsls	r1, r2, #14
 80050f8:	6878      	ldr	r0, [r7, #4]
 80050fa:	4a17      	ldr	r2, [pc, #92]	; (8005158 <UART_CheckIdleState+0x8c>)
 80050fc:	9200      	str	r2, [sp, #0]
 80050fe:	2200      	movs	r2, #0
 8005100:	f000 f82c 	bl	800515c <UART_WaitOnFlagUntilTimeout>
 8005104:	1e03      	subs	r3, r0, #0
 8005106:	d001      	beq.n	800510c <UART_CheckIdleState+0x40>
 8005108:	2303      	movs	r3, #3
 800510a:	e021      	b.n	8005150 <UART_CheckIdleState+0x84>
 800510c:	687b      	ldr	r3, [r7, #4]
 800510e:	681b      	ldr	r3, [r3, #0]
 8005110:	681b      	ldr	r3, [r3, #0]
 8005112:	2204      	movs	r2, #4
 8005114:	4013      	ands	r3, r2
 8005116:	2b04      	cmp	r3, #4
 8005118:	d10c      	bne.n	8005134 <UART_CheckIdleState+0x68>
 800511a:	68fb      	ldr	r3, [r7, #12]
 800511c:	2280      	movs	r2, #128	; 0x80
 800511e:	03d1      	lsls	r1, r2, #15
 8005120:	6878      	ldr	r0, [r7, #4]
 8005122:	4a0d      	ldr	r2, [pc, #52]	; (8005158 <UART_CheckIdleState+0x8c>)
 8005124:	9200      	str	r2, [sp, #0]
 8005126:	2200      	movs	r2, #0
 8005128:	f000 f818 	bl	800515c <UART_WaitOnFlagUntilTimeout>
 800512c:	1e03      	subs	r3, r0, #0
 800512e:	d001      	beq.n	8005134 <UART_CheckIdleState+0x68>
 8005130:	2303      	movs	r3, #3
 8005132:	e00d      	b.n	8005150 <UART_CheckIdleState+0x84>
 8005134:	687b      	ldr	r3, [r7, #4]
 8005136:	2220      	movs	r2, #32
 8005138:	679a      	str	r2, [r3, #120]	; 0x78
 800513a:	687b      	ldr	r3, [r7, #4]
 800513c:	2220      	movs	r2, #32
 800513e:	67da      	str	r2, [r3, #124]	; 0x7c
 8005140:	687b      	ldr	r3, [r7, #4]
 8005142:	2200      	movs	r2, #0
 8005144:	661a      	str	r2, [r3, #96]	; 0x60
 8005146:	687b      	ldr	r3, [r7, #4]
 8005148:	2274      	movs	r2, #116	; 0x74
 800514a:	2100      	movs	r1, #0
 800514c:	5499      	strb	r1, [r3, r2]
 800514e:	2300      	movs	r3, #0
 8005150:	0018      	movs	r0, r3
 8005152:	46bd      	mov	sp, r7
 8005154:	b004      	add	sp, #16
 8005156:	bd80      	pop	{r7, pc}
 8005158:	01ffffff 	.word	0x01ffffff

0800515c <UART_WaitOnFlagUntilTimeout>:
 800515c:	b580      	push	{r7, lr}
 800515e:	b094      	sub	sp, #80	; 0x50
 8005160:	af00      	add	r7, sp, #0
 8005162:	60f8      	str	r0, [r7, #12]
 8005164:	60b9      	str	r1, [r7, #8]
 8005166:	603b      	str	r3, [r7, #0]
 8005168:	1dfb      	adds	r3, r7, #7
 800516a:	701a      	strb	r2, [r3, #0]
 800516c:	e0a3      	b.n	80052b6 <UART_WaitOnFlagUntilTimeout+0x15a>
 800516e:	6dbb      	ldr	r3, [r7, #88]	; 0x58
 8005170:	3301      	adds	r3, #1
 8005172:	d100      	bne.n	8005176 <UART_WaitOnFlagUntilTimeout+0x1a>
 8005174:	e09f      	b.n	80052b6 <UART_WaitOnFlagUntilTimeout+0x15a>
 8005176:	f7fd f8b1 	bl	80022dc <HAL_GetTick>
 800517a:	0002      	movs	r2, r0
 800517c:	683b      	ldr	r3, [r7, #0]
 800517e:	1ad3      	subs	r3, r2, r3
 8005180:	6dba      	ldr	r2, [r7, #88]	; 0x58
 8005182:	429a      	cmp	r2, r3
 8005184:	d302      	bcc.n	800518c <UART_WaitOnFlagUntilTimeout+0x30>
 8005186:	6dbb      	ldr	r3, [r7, #88]	; 0x58
 8005188:	2b00      	cmp	r3, #0
 800518a:	d13d      	bne.n	8005208 <UART_WaitOnFlagUntilTimeout+0xac>
 800518c:	f3ef 8310 	mrs	r3, PRIMASK
 8005190:	62bb      	str	r3, [r7, #40]	; 0x28
 8005192:	6abb      	ldr	r3, [r7, #40]	; 0x28
 8005194:	647b      	str	r3, [r7, #68]	; 0x44
 8005196:	2301      	movs	r3, #1
 8005198:	62fb      	str	r3, [r7, #44]	; 0x2c
 800519a:	6afb      	ldr	r3, [r7, #44]	; 0x2c
 800519c:	f383 8810 	msr	PRIMASK, r3
 80051a0:	46c0      	nop			; (mov r8, r8)
 80051a2:	68fb      	ldr	r3, [r7, #12]
 80051a4:	681b      	ldr	r3, [r3, #0]
 80051a6:	681a      	ldr	r2, [r3, #0]
 80051a8:	68fb      	ldr	r3, [r7, #12]
 80051aa:	681b      	ldr	r3, [r3, #0]
 80051ac:	494c      	ldr	r1, [pc, #304]	; (80052e0 <UART_WaitOnFlagUntilTimeout+0x184>)
 80051ae:	400a      	ands	r2, r1
 80051b0:	601a      	str	r2, [r3, #0]
 80051b2:	6c7b      	ldr	r3, [r7, #68]	; 0x44
 80051b4:	633b      	str	r3, [r7, #48]	; 0x30
 80051b6:	6b3b      	ldr	r3, [r7, #48]	; 0x30
 80051b8:	f383 8810 	msr	PRIMASK, r3
 80051bc:	46c0      	nop			; (mov r8, r8)
 80051be:	f3ef 8310 	mrs	r3, PRIMASK
 80051c2:	637b      	str	r3, [r7, #52]	; 0x34
 80051c4:	6b7b      	ldr	r3, [r7, #52]	; 0x34
 80051c6:	643b      	str	r3, [r7, #64]	; 0x40
 80051c8:	2301      	movs	r3, #1
 80051ca:	63bb      	str	r3, [r7, #56]	; 0x38
 80051cc:	6bbb      	ldr	r3, [r7, #56]	; 0x38
 80051ce:	f383 8810 	msr	PRIMASK, r3
 80051d2:	46c0      	nop			; (mov r8, r8)
 80051d4:	68fb      	ldr	r3, [r7, #12]
 80051d6:	681b      	ldr	r3, [r3, #0]
 80051d8:	689a      	ldr	r2, [r3, #8]
 80051da:	68fb      	ldr	r3, [r7, #12]
 80051dc:	681b      	ldr	r3, [r3, #0]
 80051de:	2101      	movs	r1, #1
 80051e0:	438a      	bics	r2, r1
 80051e2:	609a      	str	r2, [r3, #8]
 80051e4:	6c3b      	ldr	r3, [r7, #64]	; 0x40
 80051e6:	63fb      	str	r3, [r7, #60]	; 0x3c
 80051e8:	6bfb      	ldr	r3, [r7, #60]	; 0x3c
 80051ea:	f383 8810 	msr	PRIMASK, r3
 80051ee:	46c0      	nop			; (mov r8, r8)
 80051f0:	68fb      	ldr	r3, [r7, #12]
 80051f2:	2220      	movs	r2, #32
 80051f4:	679a      	str	r2, [r3, #120]	; 0x78
 80051f6:	68fb      	ldr	r3, [r7, #12]
 80051f8:	2220      	movs	r2, #32
 80051fa:	67da      	str	r2, [r3, #124]	; 0x7c
 80051fc:	68fb      	ldr	r3, [r7, #12]
 80051fe:	2274      	movs	r2, #116	; 0x74
 8005200:	2100      	movs	r1, #0
 8005202:	5499      	strb	r1, [r3, r2]
 8005204:	2303      	movs	r3, #3
 8005206:	e067      	b.n	80052d8 <UART_WaitOnFlagUntilTimeout+0x17c>
 8005208:	68fb      	ldr	r3, [r7, #12]
 800520a:	681b      	ldr	r3, [r3, #0]
 800520c:	681b      	ldr	r3, [r3, #0]
 800520e:	2204      	movs	r2, #4
 8005210:	4013      	ands	r3, r2
 8005212:	d050      	beq.n	80052b6 <UART_WaitOnFlagUntilTimeout+0x15a>
 8005214:	68fb      	ldr	r3, [r7, #12]
 8005216:	681b      	ldr	r3, [r3, #0]
 8005218:	69da      	ldr	r2, [r3, #28]
 800521a:	2380      	movs	r3, #128	; 0x80
 800521c:	011b      	lsls	r3, r3, #4
 800521e:	401a      	ands	r2, r3
 8005220:	2380      	movs	r3, #128	; 0x80
 8005222:	011b      	lsls	r3, r3, #4
 8005224:	429a      	cmp	r2, r3
 8005226:	d146      	bne.n	80052b6 <UART_WaitOnFlagUntilTimeout+0x15a>
 8005228:	68fb      	ldr	r3, [r7, #12]
 800522a:	681b      	ldr	r3, [r3, #0]
 800522c:	2280      	movs	r2, #128	; 0x80
 800522e:	0112      	lsls	r2, r2, #4
 8005230:	621a      	str	r2, [r3, #32]
 8005232:	f3ef 8310 	mrs	r3, PRIMASK
 8005236:	613b      	str	r3, [r7, #16]
 8005238:	693b      	ldr	r3, [r7, #16]
 800523a:	64fb      	str	r3, [r7, #76]	; 0x4c
 800523c:	2301      	movs	r3, #1
 800523e:	617b      	str	r3, [r7, #20]
 8005240:	697b      	ldr	r3, [r7, #20]
 8005242:	f383 8810 	msr	PRIMASK, r3
 8005246:	46c0      	nop			; (mov r8, r8)
 8005248:	68fb      	ldr	r3, [r7, #12]
 800524a:	681b      	ldr	r3, [r3, #0]
 800524c:	681a      	ldr	r2, [r3, #0]
 800524e:	68fb      	ldr	r3, [r7, #12]
 8005250:	681b      	ldr	r3, [r3, #0]
 8005252:	4923      	ldr	r1, [pc, #140]	; (80052e0 <UART_WaitOnFlagUntilTimeout+0x184>)
 8005254:	400a      	ands	r2, r1
 8005256:	601a      	str	r2, [r3, #0]
 8005258:	6cfb      	ldr	r3, [r7, #76]	; 0x4c
 800525a:	61bb      	str	r3, [r7, #24]
 800525c:	69bb      	ldr	r3, [r7, #24]
 800525e:	f383 8810 	msr	PRIMASK, r3
 8005262:	46c0      	nop			; (mov r8, r8)
 8005264:	f3ef 8310 	mrs	r3, PRIMASK
 8005268:	61fb      	str	r3, [r7, #28]
 800526a:	69fb      	ldr	r3, [r7, #28]
 800526c:	64bb      	str	r3, [r7, #72]	; 0x48
 800526e:	2301      	movs	r3, #1
 8005270:	623b      	str	r3, [r7, #32]
 8005272:	6a3b      	ldr	r3, [r7, #32]
 8005274:	f383 8810 	msr	PRIMASK, r3
 8005278:	46c0      	nop			; (mov r8, r8)
 800527a:	68fb      	ldr	r3, [r7, #12]
 800527c:	681b      	ldr	r3, [r3, #0]
 800527e:	689a      	ldr	r2, [r3, #8]
 8005280:	68fb      	ldr	r3, [r7, #12]
 8005282:	681b      	ldr	r3, [r3, #0]
 8005284:	2101      	movs	r1, #1
 8005286:	438a      	bics	r2, r1
 8005288:	609a      	str	r2, [r3, #8]
 800528a:	6cbb      	ldr	r3, [r7, #72]	; 0x48
 800528c:	627b      	str	r3, [r7, #36]	; 0x24
 800528e:	6a7b      	ldr	r3, [r7, #36]	; 0x24
 8005290:	f383 8810 	msr	PRIMASK, r3
 8005294:	46c0      	nop			; (mov r8, r8)
 8005296:	68fb      	ldr	r3, [r7, #12]
 8005298:	2220      	movs	r2, #32
 800529a:	679a      	str	r2, [r3, #120]	; 0x78
 800529c:	68fb      	ldr	r3, [r7, #12]
 800529e:	2220      	movs	r2, #32
 80052a0:	67da      	str	r2, [r3, #124]	; 0x7c
 80052a2:	68fb      	ldr	r3, [r7, #12]
 80052a4:	2280      	movs	r2, #128	; 0x80
 80052a6:	2120      	movs	r1, #32
 80052a8:	5099      	str	r1, [r3, r2]
 80052aa:	68fb      	ldr	r3, [r7, #12]
 80052ac:	2274      	movs	r2, #116	; 0x74
 80052ae:	2100      	movs	r1, #0
 80052b0:	5499      	strb	r1, [r3, r2]
 80052b2:	2303      	movs	r3, #3
 80052b4:	e010      	b.n	80052d8 <UART_WaitOnFlagUntilTimeout+0x17c>
 80052b6:	68fb      	ldr	r3, [r7, #12]
 80052b8:	681b      	ldr	r3, [r3, #0]
 80052ba:	69db      	ldr	r3, [r3, #28]
 80052bc:	68ba      	ldr	r2, [r7, #8]
 80052be:	4013      	ands	r3, r2
 80052c0:	68ba      	ldr	r2, [r7, #8]
 80052c2:	1ad3      	subs	r3, r2, r3
 80052c4:	425a      	negs	r2, r3
 80052c6:	4153      	adcs	r3, r2
 80052c8:	b2db      	uxtb	r3, r3
 80052ca:	001a      	movs	r2, r3
 80052cc:	1dfb      	adds	r3, r7, #7
 80052ce:	781b      	ldrb	r3, [r3, #0]
 80052d0:	429a      	cmp	r2, r3
 80052d2:	d100      	bne.n	80052d6 <UART_WaitOnFlagUntilTimeout+0x17a>
 80052d4:	e74b      	b.n	800516e <UART_WaitOnFlagUntilTimeout+0x12>
 80052d6:	2300      	movs	r3, #0
 80052d8:	0018      	movs	r0, r3
 80052da:	46bd      	mov	sp, r7
 80052dc:	b014      	add	sp, #80	; 0x50
 80052de:	bd80      	pop	{r7, pc}
 80052e0:	fffffe5f 	.word	0xfffffe5f

080052e4 <UART_Start_Receive_IT>:
 80052e4:	b580      	push	{r7, lr}
 80052e6:	b08c      	sub	sp, #48	; 0x30
 80052e8:	af00      	add	r7, sp, #0
 80052ea:	60f8      	str	r0, [r7, #12]
 80052ec:	60b9      	str	r1, [r7, #8]
 80052ee:	1dbb      	adds	r3, r7, #6
 80052f0:	801a      	strh	r2, [r3, #0]
 80052f2:	68fb      	ldr	r3, [r7, #12]
 80052f4:	68ba      	ldr	r2, [r7, #8]
 80052f6:	655a      	str	r2, [r3, #84]	; 0x54
 80052f8:	68fb      	ldr	r3, [r7, #12]
 80052fa:	1dba      	adds	r2, r7, #6
 80052fc:	2158      	movs	r1, #88	; 0x58
 80052fe:	8812      	ldrh	r2, [r2, #0]
 8005300:	525a      	strh	r2, [r3, r1]
 8005302:	68fb      	ldr	r3, [r7, #12]
 8005304:	1dba      	adds	r2, r7, #6
 8005306:	215a      	movs	r1, #90	; 0x5a
 8005308:	8812      	ldrh	r2, [r2, #0]
 800530a:	525a      	strh	r2, [r3, r1]
 800530c:	68fb      	ldr	r3, [r7, #12]
 800530e:	2200      	movs	r2, #0
 8005310:	665a      	str	r2, [r3, #100]	; 0x64
 8005312:	68fb      	ldr	r3, [r7, #12]
 8005314:	689a      	ldr	r2, [r3, #8]
 8005316:	2380      	movs	r3, #128	; 0x80
 8005318:	015b      	lsls	r3, r3, #5
 800531a:	429a      	cmp	r2, r3
 800531c:	d10d      	bne.n	800533a <UART_Start_Receive_IT+0x56>
 800531e:	68fb      	ldr	r3, [r7, #12]
 8005320:	691b      	ldr	r3, [r3, #16]
 8005322:	2b00      	cmp	r3, #0
 8005324:	d104      	bne.n	8005330 <UART_Start_Receive_IT+0x4c>
 8005326:	68fb      	ldr	r3, [r7, #12]
 8005328:	225c      	movs	r2, #92	; 0x5c
 800532a:	4943      	ldr	r1, [pc, #268]	; (8005438 <UART_Start_Receive_IT+0x154>)
 800532c:	5299      	strh	r1, [r3, r2]
 800532e:	e02e      	b.n	800538e <UART_Start_Receive_IT+0xaa>
 8005330:	68fb      	ldr	r3, [r7, #12]
 8005332:	225c      	movs	r2, #92	; 0x5c
 8005334:	21ff      	movs	r1, #255	; 0xff
 8005336:	5299      	strh	r1, [r3, r2]
 8005338:	e029      	b.n	800538e <UART_Start_Receive_IT+0xaa>
 800533a:	68fb      	ldr	r3, [r7, #12]
 800533c:	689b      	ldr	r3, [r3, #8]
 800533e:	2b00      	cmp	r3, #0
 8005340:	d10d      	bne.n	800535e <UART_Start_Receive_IT+0x7a>
 8005342:	68fb      	ldr	r3, [r7, #12]
 8005344:	691b      	ldr	r3, [r3, #16]
 8005346:	2b00      	cmp	r3, #0
 8005348:	d104      	bne.n	8005354 <UART_Start_Receive_IT+0x70>
 800534a:	68fb      	ldr	r3, [r7, #12]
 800534c:	225c      	movs	r2, #92	; 0x5c
 800534e:	21ff      	movs	r1, #255	; 0xff
 8005350:	5299      	strh	r1, [r3, r2]
 8005352:	e01c      	b.n	800538e <UART_Start_Receive_IT+0xaa>
 8005354:	68fb      	ldr	r3, [r7, #12]
 8005356:	225c      	movs	r2, #92	; 0x5c
 8005358:	217f      	movs	r1, #127	; 0x7f
 800535a:	5299      	strh	r1, [r3, r2]
 800535c:	e017      	b.n	800538e <UART_Start_Receive_IT+0xaa>
 800535e:	68fb      	ldr	r3, [r7, #12]
 8005360:	689a      	ldr	r2, [r3, #8]
 8005362:	2380      	movs	r3, #128	; 0x80
 8005364:	055b      	lsls	r3, r3, #21
 8005366:	429a      	cmp	r2, r3
 8005368:	d10d      	bne.n	8005386 <UART_Start_Receive_IT+0xa2>
 800536a:	68fb      	ldr	r3, [r7, #12]
 800536c:	691b      	ldr	r3, [r3, #16]
 800536e:	2b00      	cmp	r3, #0
 8005370:	d104      	bne.n	800537c <UART_Start_Receive_IT+0x98>
 8005372:	68fb      	ldr	r3, [r7, #12]
 8005374:	225c      	movs	r2, #92	; 0x5c
 8005376:	217f      	movs	r1, #127	; 0x7f
 8005378:	5299      	strh	r1, [r3, r2]
 800537a:	e008      	b.n	800538e <UART_Start_Receive_IT+0xaa>
 800537c:	68fb      	ldr	r3, [r7, #12]
 800537e:	225c      	movs	r2, #92	; 0x5c
 8005380:	213f      	movs	r1, #63	; 0x3f
 8005382:	5299      	strh	r1, [r3, r2]
 8005384:	e003      	b.n	800538e <UART_Start_Receive_IT+0xaa>
 8005386:	68fb      	ldr	r3, [r7, #12]
 8005388:	225c      	movs	r2, #92	; 0x5c
 800538a:	2100      	movs	r1, #0
 800538c:	5299      	strh	r1, [r3, r2]
 800538e:	68fb      	ldr	r3, [r7, #12]
 8005390:	2280      	movs	r2, #128	; 0x80
 8005392:	2100      	movs	r1, #0
 8005394:	5099      	str	r1, [r3, r2]
 8005396:	68fb      	ldr	r3, [r7, #12]
 8005398:	2222      	movs	r2, #34	; 0x22
 800539a:	67da      	str	r2, [r3, #124]	; 0x7c
 800539c:	f3ef 8310 	mrs	r3, PRIMASK
 80053a0:	61fb      	str	r3, [r7, #28]
 80053a2:	69fb      	ldr	r3, [r7, #28]
 80053a4:	62fb      	str	r3, [r7, #44]	; 0x2c
 80053a6:	2301      	movs	r3, #1
 80053a8:	623b      	str	r3, [r7, #32]
 80053aa:	6a3b      	ldr	r3, [r7, #32]
 80053ac:	f383 8810 	msr	PRIMASK, r3
 80053b0:	46c0      	nop			; (mov r8, r8)
 80053b2:	68fb      	ldr	r3, [r7, #12]
 80053b4:	681b      	ldr	r3, [r3, #0]
 80053b6:	689a      	ldr	r2, [r3, #8]
 80053b8:	68fb      	ldr	r3, [r7, #12]
 80053ba:	681b      	ldr	r3, [r3, #0]
 80053bc:	2101      	movs	r1, #1
 80053be:	430a      	orrs	r2, r1
 80053c0:	609a      	str	r2, [r3, #8]
 80053c2:	6afb      	ldr	r3, [r7, #44]	; 0x2c
 80053c4:	627b      	str	r3, [r7, #36]	; 0x24
 80053c6:	6a7b      	ldr	r3, [r7, #36]	; 0x24
 80053c8:	f383 8810 	msr	PRIMASK, r3
 80053cc:	46c0      	nop			; (mov r8, r8)
 80053ce:	68fb      	ldr	r3, [r7, #12]
 80053d0:	689a      	ldr	r2, [r3, #8]
 80053d2:	2380      	movs	r3, #128	; 0x80
 80053d4:	015b      	lsls	r3, r3, #5
 80053d6:	429a      	cmp	r2, r3
 80053d8:	d107      	bne.n	80053ea <UART_Start_Receive_IT+0x106>
 80053da:	68fb      	ldr	r3, [r7, #12]
 80053dc:	691b      	ldr	r3, [r3, #16]
 80053de:	2b00      	cmp	r3, #0
 80053e0:	d103      	bne.n	80053ea <UART_Start_Receive_IT+0x106>
 80053e2:	68fb      	ldr	r3, [r7, #12]
 80053e4:	4a15      	ldr	r2, [pc, #84]	; (800543c <UART_Start_Receive_IT+0x158>)
 80053e6:	665a      	str	r2, [r3, #100]	; 0x64
 80053e8:	e002      	b.n	80053f0 <UART_Start_Receive_IT+0x10c>
 80053ea:	68fb      	ldr	r3, [r7, #12]
 80053ec:	4a14      	ldr	r2, [pc, #80]	; (8005440 <UART_Start_Receive_IT+0x15c>)
 80053ee:	665a      	str	r2, [r3, #100]	; 0x64
 80053f0:	68fb      	ldr	r3, [r7, #12]
 80053f2:	2274      	movs	r2, #116	; 0x74
 80053f4:	2100      	movs	r1, #0
 80053f6:	5499      	strb	r1, [r3, r2]
 80053f8:	f3ef 8310 	mrs	r3, PRIMASK
 80053fc:	613b      	str	r3, [r7, #16]
 80053fe:	693b      	ldr	r3, [r7, #16]
 8005400:	62bb      	str	r3, [r7, #40]	; 0x28
 8005402:	2301      	movs	r3, #1
 8005404:	617b      	str	r3, [r7, #20]
 8005406:	697b      	ldr	r3, [r7, #20]
 8005408:	f383 8810 	msr	PRIMASK, r3
 800540c:	46c0      	nop			; (mov r8, r8)
 800540e:	68fb      	ldr	r3, [r7, #12]
 8005410:	681b      	ldr	r3, [r3, #0]
 8005412:	681a      	ldr	r2, [r3, #0]
 8005414:	68fb      	ldr	r3, [r7, #12]
 8005416:	681b      	ldr	r3, [r3, #0]
 8005418:	2190      	movs	r1, #144	; 0x90
 800541a:	0049      	lsls	r1, r1, #1
 800541c:	430a      	orrs	r2, r1
 800541e:	601a      	str	r2, [r3, #0]
 8005420:	6abb      	ldr	r3, [r7, #40]	; 0x28
 8005422:	61bb      	str	r3, [r7, #24]
 8005424:	69bb      	ldr	r3, [r7, #24]
 8005426:	f383 8810 	msr	PRIMASK, r3
 800542a:	46c0      	nop			; (mov r8, r8)
 800542c:	2300      	movs	r3, #0
 800542e:	0018      	movs	r0, r3
 8005430:	46bd      	mov	sp, r7
 8005432:	b00c      	add	sp, #48	; 0x30
 8005434:	bd80      	pop	{r7, pc}
 8005436:	46c0      	nop			; (mov r8, r8)
 8005438:	000001ff 	.word	0x000001ff
 800543c:	080056f5 	.word	0x080056f5
 8005440:	0800558d 	.word	0x0800558d

08005444 <UART_EndRxTransfer>:
 8005444:	b580      	push	{r7, lr}
 8005446:	b08e      	sub	sp, #56	; 0x38
 8005448:	af00      	add	r7, sp, #0
 800544a:	6078      	str	r0, [r7, #4]
 800544c:	f3ef 8310 	mrs	r3, PRIMASK
 8005450:	617b      	str	r3, [r7, #20]
 8005452:	697b      	ldr	r3, [r7, #20]
 8005454:	637b      	str	r3, [r7, #52]	; 0x34
 8005456:	2301      	movs	r3, #1
 8005458:	61bb      	str	r3, [r7, #24]
 800545a:	69bb      	ldr	r3, [r7, #24]
 800545c:	f383 8810 	msr	PRIMASK, r3
 8005460:	46c0      	nop			; (mov r8, r8)
 8005462:	687b      	ldr	r3, [r7, #4]
 8005464:	681b      	ldr	r3, [r3, #0]
 8005466:	681a      	ldr	r2, [r3, #0]
 8005468:	687b      	ldr	r3, [r7, #4]
 800546a:	681b      	ldr	r3, [r3, #0]
 800546c:	4925      	ldr	r1, [pc, #148]	; (8005504 <UART_EndRxTransfer+0xc0>)
 800546e:	400a      	ands	r2, r1
 8005470:	601a      	str	r2, [r3, #0]
 8005472:	6b7b      	ldr	r3, [r7, #52]	; 0x34
 8005474:	61fb      	str	r3, [r7, #28]
 8005476:	69fb      	ldr	r3, [r7, #28]
 8005478:	f383 8810 	msr	PRIMASK, r3
 800547c:	46c0      	nop			; (mov r8, r8)
 800547e:	f3ef 8310 	mrs	r3, PRIMASK
 8005482:	623b      	str	r3, [r7, #32]
 8005484:	6a3b      	ldr	r3, [r7, #32]
 8005486:	633b      	str	r3, [r7, #48]	; 0x30
 8005488:	2301      	movs	r3, #1
 800548a:	627b      	str	r3, [r7, #36]	; 0x24
 800548c:	6a7b      	ldr	r3, [r7, #36]	; 0x24
 800548e:	f383 8810 	msr	PRIMASK, r3
 8005492:	46c0      	nop			; (mov r8, r8)
 8005494:	687b      	ldr	r3, [r7, #4]
 8005496:	681b      	ldr	r3, [r3, #0]
 8005498:	689a      	ldr	r2, [r3, #8]
 800549a:	687b      	ldr	r3, [r7, #4]
 800549c:	681b      	ldr	r3, [r3, #0]
 800549e:	2101      	movs	r1, #1
 80054a0:	438a      	bics	r2, r1
 80054a2:	609a      	str	r2, [r3, #8]
 80054a4:	6b3b      	ldr	r3, [r7, #48]	; 0x30
 80054a6:	62bb      	str	r3, [r7, #40]	; 0x28
 80054a8:	6abb      	ldr	r3, [r7, #40]	; 0x28
 80054aa:	f383 8810 	msr	PRIMASK, r3
 80054ae:	46c0      	nop			; (mov r8, r8)
 80054b0:	687b      	ldr	r3, [r7, #4]
 80054b2:	6e1b      	ldr	r3, [r3, #96]	; 0x60
 80054b4:	2b01      	cmp	r3, #1
 80054b6:	d118      	bne.n	80054ea <UART_EndRxTransfer+0xa6>
 80054b8:	f3ef 8310 	mrs	r3, PRIMASK
 80054bc:	60bb      	str	r3, [r7, #8]
 80054be:	68bb      	ldr	r3, [r7, #8]
 80054c0:	62fb      	str	r3, [r7, #44]	; 0x2c
 80054c2:	2301      	movs	r3, #1
 80054c4:	60fb      	str	r3, [r7, #12]
 80054c6:	68fb      	ldr	r3, [r7, #12]
 80054c8:	f383 8810 	msr	PRIMASK, r3
 80054cc:	46c0      	nop			; (mov r8, r8)
 80054ce:	687b      	ldr	r3, [r7, #4]
 80054d0:	681b      	ldr	r3, [r3, #0]
 80054d2:	681a      	ldr	r2, [r3, #0]
 80054d4:	687b      	ldr	r3, [r7, #4]
 80054d6:	681b      	ldr	r3, [r3, #0]
 80054d8:	2110      	movs	r1, #16
 80054da:	438a      	bics	r2, r1
 80054dc:	601a      	str	r2, [r3, #0]
 80054de:	6afb      	ldr	r3, [r7, #44]	; 0x2c
 80054e0:	613b      	str	r3, [r7, #16]
 80054e2:	693b      	ldr	r3, [r7, #16]
 80054e4:	f383 8810 	msr	PRIMASK, r3
 80054e8:	46c0      	nop			; (mov r8, r8)
 80054ea:	687b      	ldr	r3, [r7, #4]
 80054ec:	2220      	movs	r2, #32
 80054ee:	67da      	str	r2, [r3, #124]	; 0x7c
 80054f0:	687b      	ldr	r3, [r7, #4]
 80054f2:	2200      	movs	r2, #0
 80054f4:	661a      	str	r2, [r3, #96]	; 0x60
 80054f6:	687b      	ldr	r3, [r7, #4]
 80054f8:	2200      	movs	r2, #0
 80054fa:	665a      	str	r2, [r3, #100]	; 0x64
 80054fc:	46c0      	nop			; (mov r8, r8)
 80054fe:	46bd      	mov	sp, r7
 8005500:	b00e      	add	sp, #56	; 0x38
 8005502:	bd80      	pop	{r7, pc}
 8005504:	fffffedf 	.word	0xfffffedf

08005508 <UART_DMAAbortOnError>:
 8005508:	b580      	push	{r7, lr}
 800550a:	b084      	sub	sp, #16
 800550c:	af00      	add	r7, sp, #0
 800550e:	6078      	str	r0, [r7, #4]
 8005510:	687b      	ldr	r3, [r7, #4]
 8005512:	6a9b      	ldr	r3, [r3, #40]	; 0x28
 8005514:	60fb      	str	r3, [r7, #12]
 8005516:	68fb      	ldr	r3, [r7, #12]
 8005518:	225a      	movs	r2, #90	; 0x5a
 800551a:	2100      	movs	r1, #0
 800551c:	5299      	strh	r1, [r3, r2]
 800551e:	68fb      	ldr	r3, [r7, #12]
 8005520:	2252      	movs	r2, #82	; 0x52
 8005522:	2100      	movs	r1, #0
 8005524:	5299      	strh	r1, [r3, r2]
 8005526:	68fb      	ldr	r3, [r7, #12]
 8005528:	0018      	movs	r0, r3
 800552a:	f7ff fa49 	bl	80049c0 <HAL_UART_ErrorCallback>
 800552e:	46c0      	nop			; (mov r8, r8)
 8005530:	46bd      	mov	sp, r7
 8005532:	b004      	add	sp, #16
 8005534:	bd80      	pop	{r7, pc}

08005536 <UART_EndTransmit_IT>:
 8005536:	b580      	push	{r7, lr}
 8005538:	b086      	sub	sp, #24
 800553a:	af00      	add	r7, sp, #0
 800553c:	6078      	str	r0, [r7, #4]
 800553e:	f3ef 8310 	mrs	r3, PRIMASK
 8005542:	60bb      	str	r3, [r7, #8]
 8005544:	68bb      	ldr	r3, [r7, #8]
 8005546:	617b      	str	r3, [r7, #20]
 8005548:	2301      	movs	r3, #1
 800554a:	60fb      	str	r3, [r7, #12]
 800554c:	68fb      	ldr	r3, [r7, #12]
 800554e:	f383 8810 	msr	PRIMASK, r3
 8005552:	46c0      	nop			; (mov r8, r8)
 8005554:	687b      	ldr	r3, [r7, #4]
 8005556:	681b      	ldr	r3, [r3, #0]
 8005558:	681a      	ldr	r2, [r3, #0]
 800555a:	687b      	ldr	r3, [r7, #4]
 800555c:	681b      	ldr	r3, [r3, #0]
 800555e:	2140      	movs	r1, #64	; 0x40
 8005560:	438a      	bics	r2, r1
 8005562:	601a      	str	r2, [r3, #0]
 8005564:	697b      	ldr	r3, [r7, #20]
 8005566:	613b      	str	r3, [r7, #16]
 8005568:	693b      	ldr	r3, [r7, #16]
 800556a:	f383 8810 	msr	PRIMASK, r3
 800556e:	46c0      	nop			; (mov r8, r8)
 8005570:	687b      	ldr	r3, [r7, #4]
 8005572:	2220      	movs	r2, #32
 8005574:	679a      	str	r2, [r3, #120]	; 0x78
 8005576:	687b      	ldr	r3, [r7, #4]
 8005578:	2200      	movs	r2, #0
 800557a:	669a      	str	r2, [r3, #104]	; 0x68
 800557c:	687b      	ldr	r3, [r7, #4]
 800557e:	0018      	movs	r0, r3
 8005580:	f7ff fa16 	bl	80049b0 <HAL_UART_TxCpltCallback>
 8005584:	46c0      	nop			; (mov r8, r8)
 8005586:	46bd      	mov	sp, r7
 8005588:	b006      	add	sp, #24
 800558a:	bd80      	pop	{r7, pc}

0800558c <UART_RxISR_8BIT>:
 800558c:	b580      	push	{r7, lr}
 800558e:	b090      	sub	sp, #64	; 0x40
 8005590:	af00      	add	r7, sp, #0
 8005592:	6078      	str	r0, [r7, #4]
 8005594:	203e      	movs	r0, #62	; 0x3e
 8005596:	183b      	adds	r3, r7, r0
 8005598:	687a      	ldr	r2, [r7, #4]
 800559a:	215c      	movs	r1, #92	; 0x5c
 800559c:	5a52      	ldrh	r2, [r2, r1]
 800559e:	801a      	strh	r2, [r3, #0]
 80055a0:	687b      	ldr	r3, [r7, #4]
 80055a2:	6fdb      	ldr	r3, [r3, #124]	; 0x7c
 80055a4:	2b22      	cmp	r3, #34	; 0x22
 80055a6:	d000      	beq.n	80055aa <UART_RxISR_8BIT+0x1e>
 80055a8:	e095      	b.n	80056d6 <UART_RxISR_8BIT+0x14a>
 80055aa:	687b      	ldr	r3, [r7, #4]
 80055ac:	681b      	ldr	r3, [r3, #0]
 80055ae:	6a5a      	ldr	r2, [r3, #36]	; 0x24
 80055b0:	213c      	movs	r1, #60	; 0x3c
 80055b2:	187b      	adds	r3, r7, r1
 80055b4:	801a      	strh	r2, [r3, #0]
 80055b6:	187b      	adds	r3, r7, r1
 80055b8:	881b      	ldrh	r3, [r3, #0]
 80055ba:	b2da      	uxtb	r2, r3
 80055bc:	183b      	adds	r3, r7, r0
 80055be:	881b      	ldrh	r3, [r3, #0]
 80055c0:	b2d9      	uxtb	r1, r3
 80055c2:	687b      	ldr	r3, [r7, #4]
 80055c4:	6d5b      	ldr	r3, [r3, #84]	; 0x54
 80055c6:	400a      	ands	r2, r1
 80055c8:	b2d2      	uxtb	r2, r2
 80055ca:	701a      	strb	r2, [r3, #0]
 80055cc:	687b      	ldr	r3, [r7, #4]
 80055ce:	6d5b      	ldr	r3, [r3, #84]	; 0x54
 80055d0:	1c5a      	adds	r2, r3, #1
 80055d2:	687b      	ldr	r3, [r7, #4]
 80055d4:	655a      	str	r2, [r3, #84]	; 0x54
 80055d6:	687b      	ldr	r3, [r7, #4]
 80055d8:	225a      	movs	r2, #90	; 0x5a
 80055da:	5a9b      	ldrh	r3, [r3, r2]
 80055dc:	b29b      	uxth	r3, r3
 80055de:	3b01      	subs	r3, #1
 80055e0:	b299      	uxth	r1, r3
 80055e2:	687b      	ldr	r3, [r7, #4]
 80055e4:	225a      	movs	r2, #90	; 0x5a
 80055e6:	5299      	strh	r1, [r3, r2]
 80055e8:	687b      	ldr	r3, [r7, #4]
 80055ea:	225a      	movs	r2, #90	; 0x5a
 80055ec:	5a9b      	ldrh	r3, [r3, r2]
 80055ee:	b29b      	uxth	r3, r3
 80055f0:	2b00      	cmp	r3, #0
 80055f2:	d178      	bne.n	80056e6 <UART_RxISR_8BIT+0x15a>
 80055f4:	f3ef 8310 	mrs	r3, PRIMASK
 80055f8:	61bb      	str	r3, [r7, #24]
 80055fa:	69bb      	ldr	r3, [r7, #24]
 80055fc:	63bb      	str	r3, [r7, #56]	; 0x38
 80055fe:	2301      	movs	r3, #1
 8005600:	61fb      	str	r3, [r7, #28]
 8005602:	69fb      	ldr	r3, [r7, #28]
 8005604:	f383 8810 	msr	PRIMASK, r3
 8005608:	46c0      	nop			; (mov r8, r8)
 800560a:	687b      	ldr	r3, [r7, #4]
 800560c:	681b      	ldr	r3, [r3, #0]
 800560e:	681a      	ldr	r2, [r3, #0]
 8005610:	687b      	ldr	r3, [r7, #4]
 8005612:	681b      	ldr	r3, [r3, #0]
 8005614:	4936      	ldr	r1, [pc, #216]	; (80056f0 <UART_RxISR_8BIT+0x164>)
 8005616:	400a      	ands	r2, r1
 8005618:	601a      	str	r2, [r3, #0]
 800561a:	6bbb      	ldr	r3, [r7, #56]	; 0x38
 800561c:	623b      	str	r3, [r7, #32]
 800561e:	6a3b      	ldr	r3, [r7, #32]
 8005620:	f383 8810 	msr	PRIMASK, r3
 8005624:	46c0      	nop			; (mov r8, r8)
 8005626:	f3ef 8310 	mrs	r3, PRIMASK
 800562a:	627b      	str	r3, [r7, #36]	; 0x24
 800562c:	6a7b      	ldr	r3, [r7, #36]	; 0x24
 800562e:	637b      	str	r3, [r7, #52]	; 0x34
 8005630:	2301      	movs	r3, #1
 8005632:	62bb      	str	r3, [r7, #40]	; 0x28
 8005634:	6abb      	ldr	r3, [r7, #40]	; 0x28
 8005636:	f383 8810 	msr	PRIMASK, r3
 800563a:	46c0      	nop			; (mov r8, r8)
 800563c:	687b      	ldr	r3, [r7, #4]
 800563e:	681b      	ldr	r3, [r3, #0]
 8005640:	689a      	ldr	r2, [r3, #8]
 8005642:	687b      	ldr	r3, [r7, #4]
 8005644:	681b      	ldr	r3, [r3, #0]
 8005646:	2101      	movs	r1, #1
 8005648:	438a      	bics	r2, r1
 800564a:	609a      	str	r2, [r3, #8]
 800564c:	6b7b      	ldr	r3, [r7, #52]	; 0x34
 800564e:	62fb      	str	r3, [r7, #44]	; 0x2c
 8005650:	6afb      	ldr	r3, [r7, #44]	; 0x2c
 8005652:	f383 8810 	msr	PRIMASK, r3
 8005656:	46c0      	nop			; (mov r8, r8)
 8005658:	687b      	ldr	r3, [r7, #4]
 800565a:	2220      	movs	r2, #32
 800565c:	67da      	str	r2, [r3, #124]	; 0x7c
 800565e:	687b      	ldr	r3, [r7, #4]
 8005660:	2200      	movs	r2, #0
 8005662:	665a      	str	r2, [r3, #100]	; 0x64
 8005664:	687b      	ldr	r3, [r7, #4]
 8005666:	6e1b      	ldr	r3, [r3, #96]	; 0x60
 8005668:	2b01      	cmp	r3, #1
 800566a:	d12f      	bne.n	80056cc <UART_RxISR_8BIT+0x140>
 800566c:	687b      	ldr	r3, [r7, #4]
 800566e:	2200      	movs	r2, #0
 8005670:	661a      	str	r2, [r3, #96]	; 0x60
 8005672:	f3ef 8310 	mrs	r3, PRIMASK
 8005676:	60fb      	str	r3, [r7, #12]
 8005678:	68fb      	ldr	r3, [r7, #12]
 800567a:	633b      	str	r3, [r7, #48]	; 0x30
 800567c:	2301      	movs	r3, #1
 800567e:	613b      	str	r3, [r7, #16]
 8005680:	693b      	ldr	r3, [r7, #16]
 8005682:	f383 8810 	msr	PRIMASK, r3
 8005686:	46c0      	nop			; (mov r8, r8)
 8005688:	687b      	ldr	r3, [r7, #4]
 800568a:	681b      	ldr	r3, [r3, #0]
 800568c:	681a      	ldr	r2, [r3, #0]
 800568e:	687b      	ldr	r3, [r7, #4]
 8005690:	681b      	ldr	r3, [r3, #0]
 8005692:	2110      	movs	r1, #16
 8005694:	438a      	bics	r2, r1
 8005696:	601a      	str	r2, [r3, #0]
 8005698:	6b3b      	ldr	r3, [r7, #48]	; 0x30
 800569a:	617b      	str	r3, [r7, #20]
 800569c:	697b      	ldr	r3, [r7, #20]
 800569e:	f383 8810 	msr	PRIMASK, r3
 80056a2:	46c0      	nop			; (mov r8, r8)
 80056a4:	687b      	ldr	r3, [r7, #4]
 80056a6:	681b      	ldr	r3, [r3, #0]
 80056a8:	69db      	ldr	r3, [r3, #28]
 80056aa:	2210      	movs	r2, #16
 80056ac:	4013      	ands	r3, r2
 80056ae:	2b10      	cmp	r3, #16
 80056b0:	d103      	bne.n	80056ba <UART_RxISR_8BIT+0x12e>
 80056b2:	687b      	ldr	r3, [r7, #4]
 80056b4:	681b      	ldr	r3, [r3, #0]
 80056b6:	2210      	movs	r2, #16
 80056b8:	621a      	str	r2, [r3, #32]
 80056ba:	687b      	ldr	r3, [r7, #4]
 80056bc:	2258      	movs	r2, #88	; 0x58
 80056be:	5a9a      	ldrh	r2, [r3, r2]
 80056c0:	687b      	ldr	r3, [r7, #4]
 80056c2:	0011      	movs	r1, r2
 80056c4:	0018      	movs	r0, r3
 80056c6:	f7ff f983 	bl	80049d0 <HAL_UARTEx_RxEventCallback>
 80056ca:	e00c      	b.n	80056e6 <UART_RxISR_8BIT+0x15a>
 80056cc:	687b      	ldr	r3, [r7, #4]
 80056ce:	0018      	movs	r0, r3
 80056d0:	f7fb fe24 	bl	800131c <HAL_UART_RxCpltCallback>
 80056d4:	e007      	b.n	80056e6 <UART_RxISR_8BIT+0x15a>
 80056d6:	687b      	ldr	r3, [r7, #4]
 80056d8:	681b      	ldr	r3, [r3, #0]
 80056da:	699a      	ldr	r2, [r3, #24]
 80056dc:	687b      	ldr	r3, [r7, #4]
 80056de:	681b      	ldr	r3, [r3, #0]
 80056e0:	2108      	movs	r1, #8
 80056e2:	430a      	orrs	r2, r1
 80056e4:	619a      	str	r2, [r3, #24]
 80056e6:	46c0      	nop			; (mov r8, r8)
 80056e8:	46bd      	mov	sp, r7
 80056ea:	b010      	add	sp, #64	; 0x40
 80056ec:	bd80      	pop	{r7, pc}
 80056ee:	46c0      	nop			; (mov r8, r8)
 80056f0:	fffffedf 	.word	0xfffffedf

080056f4 <UART_RxISR_16BIT>:
 80056f4:	b580      	push	{r7, lr}
 80056f6:	b090      	sub	sp, #64	; 0x40
 80056f8:	af00      	add	r7, sp, #0
 80056fa:	6078      	str	r0, [r7, #4]
 80056fc:	203e      	movs	r0, #62	; 0x3e
 80056fe:	183b      	adds	r3, r7, r0
 8005700:	687a      	ldr	r2, [r7, #4]
 8005702:	215c      	movs	r1, #92	; 0x5c
 8005704:	5a52      	ldrh	r2, [r2, r1]
 8005706:	801a      	strh	r2, [r3, #0]
 8005708:	687b      	ldr	r3, [r7, #4]
 800570a:	6fdb      	ldr	r3, [r3, #124]	; 0x7c
 800570c:	2b22      	cmp	r3, #34	; 0x22
 800570e:	d000      	beq.n	8005712 <UART_RxISR_16BIT+0x1e>
 8005710:	e095      	b.n	800583e <UART_RxISR_16BIT+0x14a>
 8005712:	687b      	ldr	r3, [r7, #4]
 8005714:	681b      	ldr	r3, [r3, #0]
 8005716:	6a5a      	ldr	r2, [r3, #36]	; 0x24
 8005718:	213c      	movs	r1, #60	; 0x3c
 800571a:	187b      	adds	r3, r7, r1
 800571c:	801a      	strh	r2, [r3, #0]
 800571e:	687b      	ldr	r3, [r7, #4]
 8005720:	6d5b      	ldr	r3, [r3, #84]	; 0x54
 8005722:	63bb      	str	r3, [r7, #56]	; 0x38
 8005724:	187b      	adds	r3, r7, r1
 8005726:	183a      	adds	r2, r7, r0
 8005728:	881b      	ldrh	r3, [r3, #0]
 800572a:	8812      	ldrh	r2, [r2, #0]
 800572c:	4013      	ands	r3, r2
 800572e:	b29a      	uxth	r2, r3
 8005730:	6bbb      	ldr	r3, [r7, #56]	; 0x38
 8005732:	801a      	strh	r2, [r3, #0]
 8005734:	687b      	ldr	r3, [r7, #4]
 8005736:	6d5b      	ldr	r3, [r3, #84]	; 0x54
 8005738:	1c9a      	adds	r2, r3, #2
 800573a:	687b      	ldr	r3, [r7, #4]
 800573c:	655a      	str	r2, [r3, #84]	; 0x54
 800573e:	687b      	ldr	r3, [r7, #4]
 8005740:	225a      	movs	r2, #90	; 0x5a
 8005742:	5a9b      	ldrh	r3, [r3, r2]
 8005744:	b29b      	uxth	r3, r3
 8005746:	3b01      	subs	r3, #1
 8005748:	b299      	uxth	r1, r3
 800574a:	687b      	ldr	r3, [r7, #4]
 800574c:	225a      	movs	r2, #90	; 0x5a
 800574e:	5299      	strh	r1, [r3, r2]
 8005750:	687b      	ldr	r3, [r7, #4]
 8005752:	225a      	movs	r2, #90	; 0x5a
 8005754:	5a9b      	ldrh	r3, [r3, r2]
 8005756:	b29b      	uxth	r3, r3
 8005758:	2b00      	cmp	r3, #0
 800575a:	d178      	bne.n	800584e <UART_RxISR_16BIT+0x15a>
 800575c:	f3ef 8310 	mrs	r3, PRIMASK
 8005760:	617b      	str	r3, [r7, #20]
 8005762:	697b      	ldr	r3, [r7, #20]
 8005764:	637b      	str	r3, [r7, #52]	; 0x34
 8005766:	2301      	movs	r3, #1
 8005768:	61bb      	str	r3, [r7, #24]
 800576a:	69bb      	ldr	r3, [r7, #24]
 800576c:	f383 8810 	msr	PRIMASK, r3
 8005770:	46c0      	nop			; (mov r8, r8)
 8005772:	687b      	ldr	r3, [r7, #4]
 8005774:	681b      	ldr	r3, [r3, #0]
 8005776:	681a      	ldr	r2, [r3, #0]
 8005778:	687b      	ldr	r3, [r7, #4]
 800577a:	681b      	ldr	r3, [r3, #0]
 800577c:	4936      	ldr	r1, [pc, #216]	; (8005858 <UART_RxISR_16BIT+0x164>)
 800577e:	400a      	ands	r2, r1
 8005780:	601a      	str	r2, [r3, #0]
 8005782:	6b7b      	ldr	r3, [r7, #52]	; 0x34
 8005784:	61fb      	str	r3, [r7, #28]
 8005786:	69fb      	ldr	r3, [r7, #28]
 8005788:	f383 8810 	msr	PRIMASK, r3
 800578c:	46c0      	nop			; (mov r8, r8)
 800578e:	f3ef 8310 	mrs	r3, PRIMASK
 8005792:	623b      	str	r3, [r7, #32]
 8005794:	6a3b      	ldr	r3, [r7, #32]
 8005796:	633b      	str	r3, [r7, #48]	; 0x30
 8005798:	2301      	movs	r3, #1
 800579a:	627b      	str	r3, [r7, #36]	; 0x24
 800579c:	6a7b      	ldr	r3, [r7, #36]	; 0x24
 800579e:	f383 8810 	msr	PRIMASK, r3
 80057a2:	46c0      	nop			; (mov r8, r8)
 80057a4:	687b      	ldr	r3, [r7, #4]
 80057a6:	681b      	ldr	r3, [r3, #0]
 80057a8:	689a      	ldr	r2, [r3, #8]
 80057aa:	687b      	ldr	r3, [r7, #4]
 80057ac:	681b      	ldr	r3, [r3, #0]
 80057ae:	2101      	movs	r1, #1
 80057b0:	438a      	bics	r2, r1
 80057b2:	609a      	str	r2, [r3, #8]
 80057b4:	6b3b      	ldr	r3, [r7, #48]	; 0x30
 80057b6:	62bb      	str	r3, [r7, #40]	; 0x28
 80057b8:	6abb      	ldr	r3, [r7, #40]	; 0x28
 80057ba:	f383 8810 	msr	PRIMASK, r3
 80057be:	46c0      	nop			; (mov r8, r8)
 80057c0:	687b      	ldr	r3, [r7, #4]
 80057c2:	2220      	movs	r2, #32
 80057c4:	67da      	str	r2, [r3, #124]	; 0x7c
 80057c6:	687b      	ldr	r3, [r7, #4]
 80057c8:	2200      	movs	r2, #0
 80057ca:	665a      	str	r2, [r3, #100]	; 0x64
 80057cc:	687b      	ldr	r3, [r7, #4]
 80057ce:	6e1b      	ldr	r3, [r3, #96]	; 0x60
 80057d0:	2b01      	cmp	r3, #1
 80057d2:	d12f      	bne.n	8005834 <UART_RxISR_16BIT+0x140>
 80057d4:	687b      	ldr	r3, [r7, #4]
 80057d6:	2200      	movs	r2, #0
 80057d8:	661a      	str	r2, [r3, #96]	; 0x60
 80057da:	f3ef 8310 	mrs	r3, PRIMASK
 80057de:	60bb      	str	r3, [r7, #8]
 80057e0:	68bb      	ldr	r3, [r7, #8]
 80057e2:	62fb      	str	r3, [r7, #44]	; 0x2c
 80057e4:	2301      	movs	r3, #1
 80057e6:	60fb      	str	r3, [r7, #12]
 80057e8:	68fb      	ldr	r3, [r7, #12]
 80057ea:	f383 8810 	msr	PRIMASK, r3
 80057ee:	46c0      	nop			; (mov r8, r8)
 80057f0:	687b      	ldr	r3, [r7, #4]
 80057f2:	681b      	ldr	r3, [r3, #0]
 80057f4:	681a      	ldr	r2, [r3, #0]
 80057f6:	687b      	ldr	r3, [r7, #4]
 80057f8:	681b      	ldr	r3, [r3, #0]
 80057fa:	2110      	movs	r1, #16
 80057fc:	438a      	bics	r2, r1
 80057fe:	601a      	str	r2, [r3, #0]
 8005800:	6afb      	ldr	r3, [r7, #44]	; 0x2c
 8005802:	613b      	str	r3, [r7, #16]
 8005804:	693b      	ldr	r3, [r7, #16]
 8005806:	f383 8810 	msr	PRIMASK, r3
 800580a:	46c0      	nop			; (mov r8, r8)
 800580c:	687b      	ldr	r3, [r7, #4]
 800580e:	681b      	ldr	r3, [r3, #0]
 8005810:	69db      	ldr	r3, [r3, #28]
 8005812:	2210      	movs	r2, #16
 8005814:	4013      	ands	r3, r2
 8005816:	2b10      	cmp	r3, #16
 8005818:	d103      	bne.n	8005822 <UART_RxISR_16BIT+0x12e>
 800581a:	687b      	ldr	r3, [r7, #4]
 800581c:	681b      	ldr	r3, [r3, #0]
 800581e:	2210      	movs	r2, #16
 8005820:	621a      	str	r2, [r3, #32]
 8005822:	687b      	ldr	r3, [r7, #4]
 8005824:	2258      	movs	r2, #88	; 0x58
 8005826:	5a9a      	ldrh	r2, [r3, r2]
 8005828:	687b      	ldr	r3, [r7, #4]
 800582a:	0011      	movs	r1, r2
 800582c:	0018      	movs	r0, r3
 800582e:	f7ff f8cf 	bl	80049d0 <HAL_UARTEx_RxEventCallback>
 8005832:	e00c      	b.n	800584e <UART_RxISR_16BIT+0x15a>
 8005834:	687b      	ldr	r3, [r7, #4]
 8005836:	0018      	movs	r0, r3
 8005838:	f7fb fd70 	bl	800131c <HAL_UART_RxCpltCallback>
 800583c:	e007      	b.n	800584e <UART_RxISR_16BIT+0x15a>
 800583e:	687b      	ldr	r3, [r7, #4]
 8005840:	681b      	ldr	r3, [r3, #0]
 8005842:	699a      	ldr	r2, [r3, #24]
 8005844:	687b      	ldr	r3, [r7, #4]
 8005846:	681b      	ldr	r3, [r3, #0]
 8005848:	2108      	movs	r1, #8
 800584a:	430a      	orrs	r2, r1
 800584c:	619a      	str	r2, [r3, #24]
 800584e:	46c0      	nop			; (mov r8, r8)
 8005850:	46bd      	mov	sp, r7
 8005852:	b010      	add	sp, #64	; 0x40
 8005854:	bd80      	pop	{r7, pc}
 8005856:	46c0      	nop			; (mov r8, r8)
 8005858:	fffffedf 	.word	0xfffffedf

0800585c <HAL_UARTEx_WakeupCallback>:
 800585c:	b580      	push	{r7, lr}
 800585e:	b082      	sub	sp, #8
 8005860:	af00      	add	r7, sp, #0
 8005862:	6078      	str	r0, [r7, #4]
 8005864:	46c0      	nop			; (mov r8, r8)
 8005866:	46bd      	mov	sp, r7
 8005868:	b002      	add	sp, #8
 800586a:	bd80      	pop	{r7, pc}

0800586c <__errno>:
 800586c:	4b01      	ldr	r3, [pc, #4]	; (8005874 <__errno+0x8>)
 800586e:	6818      	ldr	r0, [r3, #0]
 8005870:	4770      	bx	lr
 8005872:	46c0      	nop			; (mov r8, r8)
 8005874:	20000288 	.word	0x20000288

08005878 <__libc_init_array>:
 8005878:	b570      	push	{r4, r5, r6, lr}
 800587a:	2600      	movs	r6, #0
 800587c:	4d0c      	ldr	r5, [pc, #48]	; (80058b0 <__libc_init_array+0x38>)
 800587e:	4c0d      	ldr	r4, [pc, #52]	; (80058b4 <__libc_init_array+0x3c>)
 8005880:	1b64      	subs	r4, r4, r5
 8005882:	10a4      	asrs	r4, r4, #2
 8005884:	42a6      	cmp	r6, r4
 8005886:	d109      	bne.n	800589c <__libc_init_array+0x24>
 8005888:	2600      	movs	r6, #0
 800588a:	f001 f951 	bl	8006b30 <_init>
 800588e:	4d0a      	ldr	r5, [pc, #40]	; (80058b8 <__libc_init_array+0x40>)
 8005890:	4c0a      	ldr	r4, [pc, #40]	; (80058bc <__libc_init_array+0x44>)
 8005892:	1b64      	subs	r4, r4, r5
 8005894:	10a4      	asrs	r4, r4, #2
 8005896:	42a6      	cmp	r6, r4
 8005898:	d105      	bne.n	80058a6 <__libc_init_array+0x2e>
 800589a:	bd70      	pop	{r4, r5, r6, pc}
 800589c:	00b3      	lsls	r3, r6, #2
 800589e:	58eb      	ldr	r3, [r5, r3]
 80058a0:	4798      	blx	r3
 80058a2:	3601      	adds	r6, #1
 80058a4:	e7ee      	b.n	8005884 <__libc_init_array+0xc>
 80058a6:	00b3      	lsls	r3, r6, #2
 80058a8:	58eb      	ldr	r3, [r5, r3]
 80058aa:	4798      	blx	r3
 80058ac:	3601      	adds	r6, #1
 80058ae:	e7f2      	b.n	8005896 <__libc_init_array+0x1e>
 80058b0:	08006e1c 	.word	0x08006e1c
 80058b4:	08006e1c 	.word	0x08006e1c
 80058b8:	08006e1c 	.word	0x08006e1c
 80058bc:	08006e20 	.word	0x08006e20

080058c0 <memcmp>:
 80058c0:	b530      	push	{r4, r5, lr}
 80058c2:	2400      	movs	r4, #0
 80058c4:	3901      	subs	r1, #1
 80058c6:	42a2      	cmp	r2, r4
 80058c8:	d101      	bne.n	80058ce <memcmp+0xe>
 80058ca:	2000      	movs	r0, #0
 80058cc:	e005      	b.n	80058da <memcmp+0x1a>
 80058ce:	5d03      	ldrb	r3, [r0, r4]
 80058d0:	3401      	adds	r4, #1
 80058d2:	5d0d      	ldrb	r5, [r1, r4]
 80058d4:	42ab      	cmp	r3, r5
 80058d6:	d0f6      	beq.n	80058c6 <memcmp+0x6>
 80058d8:	1b58      	subs	r0, r3, r5
 80058da:	bd30      	pop	{r4, r5, pc}

080058dc <memcpy>:
 80058dc:	2300      	movs	r3, #0
 80058de:	b510      	push	{r4, lr}
 80058e0:	429a      	cmp	r2, r3
 80058e2:	d100      	bne.n	80058e6 <memcpy+0xa>
 80058e4:	bd10      	pop	{r4, pc}
 80058e6:	5ccc      	ldrb	r4, [r1, r3]
 80058e8:	54c4      	strb	r4, [r0, r3]
 80058ea:	3301      	adds	r3, #1
 80058ec:	e7f8      	b.n	80058e0 <memcpy+0x4>

080058ee <memset>:
 80058ee:	0003      	movs	r3, r0
 80058f0:	1882      	adds	r2, r0, r2
 80058f2:	4293      	cmp	r3, r2
 80058f4:	d100      	bne.n	80058f8 <memset+0xa>
 80058f6:	4770      	bx	lr
 80058f8:	7019      	strb	r1, [r3, #0]
 80058fa:	3301      	adds	r3, #1
 80058fc:	e7f9      	b.n	80058f2 <memset+0x4>
	...

08005900 <siprintf>:
 8005900:	b40e      	push	{r1, r2, r3}
 8005902:	b500      	push	{lr}
 8005904:	490b      	ldr	r1, [pc, #44]	; (8005934 <siprintf+0x34>)
 8005906:	b09c      	sub	sp, #112	; 0x70
 8005908:	ab1d      	add	r3, sp, #116	; 0x74
 800590a:	9002      	str	r0, [sp, #8]
 800590c:	9006      	str	r0, [sp, #24]
 800590e:	9107      	str	r1, [sp, #28]
 8005910:	9104      	str	r1, [sp, #16]
 8005912:	4809      	ldr	r0, [pc, #36]	; (8005938 <siprintf+0x38>)
 8005914:	4909      	ldr	r1, [pc, #36]	; (800593c <siprintf+0x3c>)
 8005916:	cb04      	ldmia	r3!, {r2}
 8005918:	9105      	str	r1, [sp, #20]
 800591a:	6800      	ldr	r0, [r0, #0]
 800591c:	a902      	add	r1, sp, #8
 800591e:	9301      	str	r3, [sp, #4]
 8005920:	f000 f89a 	bl	8005a58 <_svfiprintf_r>
 8005924:	2300      	movs	r3, #0
 8005926:	9a02      	ldr	r2, [sp, #8]
 8005928:	7013      	strb	r3, [r2, #0]
 800592a:	b01c      	add	sp, #112	; 0x70
 800592c:	bc08      	pop	{r3}
 800592e:	b003      	add	sp, #12
 8005930:	4718      	bx	r3
 8005932:	46c0      	nop			; (mov r8, r8)
 8005934:	7fffffff 	.word	0x7fffffff
 8005938:	20000288 	.word	0x20000288
 800593c:	ffff0208 	.word	0xffff0208

08005940 <siscanf>:
 8005940:	b40e      	push	{r1, r2, r3}
 8005942:	b530      	push	{r4, r5, lr}
 8005944:	2381      	movs	r3, #129	; 0x81
 8005946:	b09c      	sub	sp, #112	; 0x70
 8005948:	466a      	mov	r2, sp
 800594a:	ac1f      	add	r4, sp, #124	; 0x7c
 800594c:	009b      	lsls	r3, r3, #2
 800594e:	cc20      	ldmia	r4!, {r5}
 8005950:	8293      	strh	r3, [r2, #20]
 8005952:	9002      	str	r0, [sp, #8]
 8005954:	9006      	str	r0, [sp, #24]
 8005956:	f7fa fbd7 	bl	8000108 <strlen>
 800595a:	4b0b      	ldr	r3, [pc, #44]	; (8005988 <siscanf+0x48>)
 800595c:	466a      	mov	r2, sp
 800595e:	930b      	str	r3, [sp, #44]	; 0x2c
 8005960:	2300      	movs	r3, #0
 8005962:	9003      	str	r0, [sp, #12]
 8005964:	9007      	str	r0, [sp, #28]
 8005966:	4809      	ldr	r0, [pc, #36]	; (800598c <siscanf+0x4c>)
 8005968:	930f      	str	r3, [sp, #60]	; 0x3c
 800596a:	9314      	str	r3, [sp, #80]	; 0x50
 800596c:	3b01      	subs	r3, #1
 800596e:	82d3      	strh	r3, [r2, #22]
 8005970:	a902      	add	r1, sp, #8
 8005972:	0023      	movs	r3, r4
 8005974:	002a      	movs	r2, r5
 8005976:	6800      	ldr	r0, [r0, #0]
 8005978:	9401      	str	r4, [sp, #4]
 800597a:	f000 f9c9 	bl	8005d10 <__ssvfiscanf_r>
 800597e:	b01c      	add	sp, #112	; 0x70
 8005980:	bc30      	pop	{r4, r5}
 8005982:	bc08      	pop	{r3}
 8005984:	b003      	add	sp, #12
 8005986:	4718      	bx	r3
 8005988:	08005991 	.word	0x08005991
 800598c:	20000288 	.word	0x20000288

08005990 <__seofread>:
 8005990:	2000      	movs	r0, #0
 8005992:	4770      	bx	lr

08005994 <__ssputs_r>:
 8005994:	b5f0      	push	{r4, r5, r6, r7, lr}
 8005996:	688e      	ldr	r6, [r1, #8]
 8005998:	b085      	sub	sp, #20
 800599a:	0007      	movs	r7, r0
 800599c:	000c      	movs	r4, r1
 800599e:	9203      	str	r2, [sp, #12]
 80059a0:	9301      	str	r3, [sp, #4]
 80059a2:	429e      	cmp	r6, r3
 80059a4:	d83c      	bhi.n	8005a20 <__ssputs_r+0x8c>
 80059a6:	2390      	movs	r3, #144	; 0x90
 80059a8:	898a      	ldrh	r2, [r1, #12]
 80059aa:	00db      	lsls	r3, r3, #3
 80059ac:	421a      	tst	r2, r3
 80059ae:	d034      	beq.n	8005a1a <__ssputs_r+0x86>
 80059b0:	2503      	movs	r5, #3
 80059b2:	6909      	ldr	r1, [r1, #16]
 80059b4:	6823      	ldr	r3, [r4, #0]
 80059b6:	1a5b      	subs	r3, r3, r1
 80059b8:	9302      	str	r3, [sp, #8]
 80059ba:	6963      	ldr	r3, [r4, #20]
 80059bc:	9802      	ldr	r0, [sp, #8]
 80059be:	435d      	muls	r5, r3
 80059c0:	0feb      	lsrs	r3, r5, #31
 80059c2:	195d      	adds	r5, r3, r5
 80059c4:	9b01      	ldr	r3, [sp, #4]
 80059c6:	106d      	asrs	r5, r5, #1
 80059c8:	3301      	adds	r3, #1
 80059ca:	181b      	adds	r3, r3, r0
 80059cc:	42ab      	cmp	r3, r5
 80059ce:	d900      	bls.n	80059d2 <__ssputs_r+0x3e>
 80059d0:	001d      	movs	r5, r3
 80059d2:	0553      	lsls	r3, r2, #21
 80059d4:	d532      	bpl.n	8005a3c <__ssputs_r+0xa8>
 80059d6:	0029      	movs	r1, r5
 80059d8:	0038      	movs	r0, r7
 80059da:	f000 fffb 	bl	80069d4 <_malloc_r>
 80059de:	1e06      	subs	r6, r0, #0
 80059e0:	d109      	bne.n	80059f6 <__ssputs_r+0x62>
 80059e2:	230c      	movs	r3, #12
 80059e4:	603b      	str	r3, [r7, #0]
 80059e6:	2340      	movs	r3, #64	; 0x40
 80059e8:	2001      	movs	r0, #1
 80059ea:	89a2      	ldrh	r2, [r4, #12]
 80059ec:	4240      	negs	r0, r0
 80059ee:	4313      	orrs	r3, r2
 80059f0:	81a3      	strh	r3, [r4, #12]
 80059f2:	b005      	add	sp, #20
 80059f4:	bdf0      	pop	{r4, r5, r6, r7, pc}
 80059f6:	9a02      	ldr	r2, [sp, #8]
 80059f8:	6921      	ldr	r1, [r4, #16]
 80059fa:	f7ff ff6f 	bl	80058dc <memcpy>
 80059fe:	89a3      	ldrh	r3, [r4, #12]
 8005a00:	4a14      	ldr	r2, [pc, #80]	; (8005a54 <__ssputs_r+0xc0>)
 8005a02:	401a      	ands	r2, r3
 8005a04:	2380      	movs	r3, #128	; 0x80
 8005a06:	4313      	orrs	r3, r2
 8005a08:	81a3      	strh	r3, [r4, #12]
 8005a0a:	9b02      	ldr	r3, [sp, #8]
 8005a0c:	6126      	str	r6, [r4, #16]
 8005a0e:	18f6      	adds	r6, r6, r3
 8005a10:	6026      	str	r6, [r4, #0]
 8005a12:	6165      	str	r5, [r4, #20]
 8005a14:	9e01      	ldr	r6, [sp, #4]
 8005a16:	1aed      	subs	r5, r5, r3
 8005a18:	60a5      	str	r5, [r4, #8]
 8005a1a:	9b01      	ldr	r3, [sp, #4]
 8005a1c:	429e      	cmp	r6, r3
 8005a1e:	d900      	bls.n	8005a22 <__ssputs_r+0x8e>
 8005a20:	9e01      	ldr	r6, [sp, #4]
 8005a22:	0032      	movs	r2, r6
 8005a24:	9903      	ldr	r1, [sp, #12]
 8005a26:	6820      	ldr	r0, [r4, #0]
 8005a28:	f000 ff77 	bl	800691a <memmove>
 8005a2c:	68a3      	ldr	r3, [r4, #8]
 8005a2e:	2000      	movs	r0, #0
 8005a30:	1b9b      	subs	r3, r3, r6
 8005a32:	60a3      	str	r3, [r4, #8]
 8005a34:	6823      	ldr	r3, [r4, #0]
 8005a36:	199e      	adds	r6, r3, r6
 8005a38:	6026      	str	r6, [r4, #0]
 8005a3a:	e7da      	b.n	80059f2 <__ssputs_r+0x5e>
 8005a3c:	002a      	movs	r2, r5
 8005a3e:	0038      	movs	r0, r7
 8005a40:	f001 f826 	bl	8006a90 <_realloc_r>
 8005a44:	1e06      	subs	r6, r0, #0
 8005a46:	d1e0      	bne.n	8005a0a <__ssputs_r+0x76>
 8005a48:	0038      	movs	r0, r7
 8005a4a:	6921      	ldr	r1, [r4, #16]
 8005a4c:	f000 ff78 	bl	8006940 <_free_r>
 8005a50:	e7c7      	b.n	80059e2 <__ssputs_r+0x4e>
 8005a52:	46c0      	nop			; (mov r8, r8)
 8005a54:	fffffb7f 	.word	0xfffffb7f

08005a58 <_svfiprintf_r>:
 8005a58:	b5f0      	push	{r4, r5, r6, r7, lr}
 8005a5a:	b0a1      	sub	sp, #132	; 0x84
 8005a5c:	9003      	str	r0, [sp, #12]
 8005a5e:	001d      	movs	r5, r3
 8005a60:	898b      	ldrh	r3, [r1, #12]
 8005a62:	000f      	movs	r7, r1
 8005a64:	0016      	movs	r6, r2
 8005a66:	061b      	lsls	r3, r3, #24
 8005a68:	d511      	bpl.n	8005a8e <_svfiprintf_r+0x36>
 8005a6a:	690b      	ldr	r3, [r1, #16]
 8005a6c:	2b00      	cmp	r3, #0
 8005a6e:	d10e      	bne.n	8005a8e <_svfiprintf_r+0x36>
 8005a70:	2140      	movs	r1, #64	; 0x40
 8005a72:	f000 ffaf 	bl	80069d4 <_malloc_r>
 8005a76:	6038      	str	r0, [r7, #0]
 8005a78:	6138      	str	r0, [r7, #16]
 8005a7a:	2800      	cmp	r0, #0
 8005a7c:	d105      	bne.n	8005a8a <_svfiprintf_r+0x32>
 8005a7e:	230c      	movs	r3, #12
 8005a80:	9a03      	ldr	r2, [sp, #12]
 8005a82:	3801      	subs	r0, #1
 8005a84:	6013      	str	r3, [r2, #0]
 8005a86:	b021      	add	sp, #132	; 0x84
 8005a88:	bdf0      	pop	{r4, r5, r6, r7, pc}
 8005a8a:	2340      	movs	r3, #64	; 0x40
 8005a8c:	617b      	str	r3, [r7, #20]
 8005a8e:	2300      	movs	r3, #0
 8005a90:	ac08      	add	r4, sp, #32
 8005a92:	6163      	str	r3, [r4, #20]
 8005a94:	3320      	adds	r3, #32
 8005a96:	7663      	strb	r3, [r4, #25]
 8005a98:	3310      	adds	r3, #16
 8005a9a:	76a3      	strb	r3, [r4, #26]
 8005a9c:	9507      	str	r5, [sp, #28]
 8005a9e:	0035      	movs	r5, r6
 8005aa0:	782b      	ldrb	r3, [r5, #0]
 8005aa2:	2b00      	cmp	r3, #0
 8005aa4:	d001      	beq.n	8005aaa <_svfiprintf_r+0x52>
 8005aa6:	2b25      	cmp	r3, #37	; 0x25
 8005aa8:	d147      	bne.n	8005b3a <_svfiprintf_r+0xe2>
 8005aaa:	1bab      	subs	r3, r5, r6
 8005aac:	9305      	str	r3, [sp, #20]
 8005aae:	42b5      	cmp	r5, r6
 8005ab0:	d00c      	beq.n	8005acc <_svfiprintf_r+0x74>
 8005ab2:	0032      	movs	r2, r6
 8005ab4:	0039      	movs	r1, r7
 8005ab6:	9803      	ldr	r0, [sp, #12]
 8005ab8:	f7ff ff6c 	bl	8005994 <__ssputs_r>
 8005abc:	1c43      	adds	r3, r0, #1
 8005abe:	d100      	bne.n	8005ac2 <_svfiprintf_r+0x6a>
 8005ac0:	e0ae      	b.n	8005c20 <_svfiprintf_r+0x1c8>
 8005ac2:	6962      	ldr	r2, [r4, #20]
 8005ac4:	9b05      	ldr	r3, [sp, #20]
 8005ac6:	4694      	mov	ip, r2
 8005ac8:	4463      	add	r3, ip
 8005aca:	6163      	str	r3, [r4, #20]
 8005acc:	782b      	ldrb	r3, [r5, #0]
 8005ace:	2b00      	cmp	r3, #0
 8005ad0:	d100      	bne.n	8005ad4 <_svfiprintf_r+0x7c>
 8005ad2:	e0a5      	b.n	8005c20 <_svfiprintf_r+0x1c8>
 8005ad4:	2201      	movs	r2, #1
 8005ad6:	2300      	movs	r3, #0
 8005ad8:	4252      	negs	r2, r2
 8005ada:	6062      	str	r2, [r4, #4]
 8005adc:	a904      	add	r1, sp, #16
 8005ade:	3254      	adds	r2, #84	; 0x54
 8005ae0:	1852      	adds	r2, r2, r1
 8005ae2:	1c6e      	adds	r6, r5, #1
 8005ae4:	6023      	str	r3, [r4, #0]
 8005ae6:	60e3      	str	r3, [r4, #12]
 8005ae8:	60a3      	str	r3, [r4, #8]
 8005aea:	7013      	strb	r3, [r2, #0]
 8005aec:	65a3      	str	r3, [r4, #88]	; 0x58
 8005aee:	2205      	movs	r2, #5
 8005af0:	7831      	ldrb	r1, [r6, #0]
 8005af2:	4854      	ldr	r0, [pc, #336]	; (8005c44 <_svfiprintf_r+0x1ec>)
 8005af4:	f000 ff06 	bl	8006904 <memchr>
 8005af8:	1c75      	adds	r5, r6, #1
 8005afa:	2800      	cmp	r0, #0
 8005afc:	d11f      	bne.n	8005b3e <_svfiprintf_r+0xe6>
 8005afe:	6822      	ldr	r2, [r4, #0]
 8005b00:	06d3      	lsls	r3, r2, #27
 8005b02:	d504      	bpl.n	8005b0e <_svfiprintf_r+0xb6>
 8005b04:	2353      	movs	r3, #83	; 0x53
 8005b06:	a904      	add	r1, sp, #16
 8005b08:	185b      	adds	r3, r3, r1
 8005b0a:	2120      	movs	r1, #32
 8005b0c:	7019      	strb	r1, [r3, #0]
 8005b0e:	0713      	lsls	r3, r2, #28
 8005b10:	d504      	bpl.n	8005b1c <_svfiprintf_r+0xc4>
 8005b12:	2353      	movs	r3, #83	; 0x53
 8005b14:	a904      	add	r1, sp, #16
 8005b16:	185b      	adds	r3, r3, r1
 8005b18:	212b      	movs	r1, #43	; 0x2b
 8005b1a:	7019      	strb	r1, [r3, #0]
 8005b1c:	7833      	ldrb	r3, [r6, #0]
 8005b1e:	2b2a      	cmp	r3, #42	; 0x2a
 8005b20:	d016      	beq.n	8005b50 <_svfiprintf_r+0xf8>
 8005b22:	0035      	movs	r5, r6
 8005b24:	2100      	movs	r1, #0
 8005b26:	200a      	movs	r0, #10
 8005b28:	68e3      	ldr	r3, [r4, #12]
 8005b2a:	782a      	ldrb	r2, [r5, #0]
 8005b2c:	1c6e      	adds	r6, r5, #1
 8005b2e:	3a30      	subs	r2, #48	; 0x30
 8005b30:	2a09      	cmp	r2, #9
 8005b32:	d94e      	bls.n	8005bd2 <_svfiprintf_r+0x17a>
 8005b34:	2900      	cmp	r1, #0
 8005b36:	d111      	bne.n	8005b5c <_svfiprintf_r+0x104>
 8005b38:	e017      	b.n	8005b6a <_svfiprintf_r+0x112>
 8005b3a:	3501      	adds	r5, #1
 8005b3c:	e7b0      	b.n	8005aa0 <_svfiprintf_r+0x48>
 8005b3e:	4b41      	ldr	r3, [pc, #260]	; (8005c44 <_svfiprintf_r+0x1ec>)
 8005b40:	6822      	ldr	r2, [r4, #0]
 8005b42:	1ac0      	subs	r0, r0, r3
 8005b44:	2301      	movs	r3, #1
 8005b46:	4083      	lsls	r3, r0
 8005b48:	4313      	orrs	r3, r2
 8005b4a:	002e      	movs	r6, r5
 8005b4c:	6023      	str	r3, [r4, #0]
 8005b4e:	e7ce      	b.n	8005aee <_svfiprintf_r+0x96>
 8005b50:	9b07      	ldr	r3, [sp, #28]
 8005b52:	1d19      	adds	r1, r3, #4
 8005b54:	681b      	ldr	r3, [r3, #0]
 8005b56:	9107      	str	r1, [sp, #28]
 8005b58:	2b00      	cmp	r3, #0
 8005b5a:	db01      	blt.n	8005b60 <_svfiprintf_r+0x108>
 8005b5c:	930b      	str	r3, [sp, #44]	; 0x2c
 8005b5e:	e004      	b.n	8005b6a <_svfiprintf_r+0x112>
 8005b60:	425b      	negs	r3, r3
 8005b62:	60e3      	str	r3, [r4, #12]
 8005b64:	2302      	movs	r3, #2
 8005b66:	4313      	orrs	r3, r2
 8005b68:	6023      	str	r3, [r4, #0]
 8005b6a:	782b      	ldrb	r3, [r5, #0]
 8005b6c:	2b2e      	cmp	r3, #46	; 0x2e
 8005b6e:	d10a      	bne.n	8005b86 <_svfiprintf_r+0x12e>
 8005b70:	786b      	ldrb	r3, [r5, #1]
 8005b72:	2b2a      	cmp	r3, #42	; 0x2a
 8005b74:	d135      	bne.n	8005be2 <_svfiprintf_r+0x18a>
 8005b76:	9b07      	ldr	r3, [sp, #28]
 8005b78:	3502      	adds	r5, #2
 8005b7a:	1d1a      	adds	r2, r3, #4
 8005b7c:	681b      	ldr	r3, [r3, #0]
 8005b7e:	9207      	str	r2, [sp, #28]
 8005b80:	2b00      	cmp	r3, #0
 8005b82:	db2b      	blt.n	8005bdc <_svfiprintf_r+0x184>
 8005b84:	9309      	str	r3, [sp, #36]	; 0x24
 8005b86:	4e30      	ldr	r6, [pc, #192]	; (8005c48 <_svfiprintf_r+0x1f0>)
 8005b88:	2203      	movs	r2, #3
 8005b8a:	0030      	movs	r0, r6
 8005b8c:	7829      	ldrb	r1, [r5, #0]
 8005b8e:	f000 feb9 	bl	8006904 <memchr>
 8005b92:	2800      	cmp	r0, #0
 8005b94:	d006      	beq.n	8005ba4 <_svfiprintf_r+0x14c>
 8005b96:	2340      	movs	r3, #64	; 0x40
 8005b98:	1b80      	subs	r0, r0, r6
 8005b9a:	4083      	lsls	r3, r0
 8005b9c:	6822      	ldr	r2, [r4, #0]
 8005b9e:	3501      	adds	r5, #1
 8005ba0:	4313      	orrs	r3, r2
 8005ba2:	6023      	str	r3, [r4, #0]
 8005ba4:	7829      	ldrb	r1, [r5, #0]
 8005ba6:	2206      	movs	r2, #6
 8005ba8:	4828      	ldr	r0, [pc, #160]	; (8005c4c <_svfiprintf_r+0x1f4>)
 8005baa:	1c6e      	adds	r6, r5, #1
 8005bac:	7621      	strb	r1, [r4, #24]
 8005bae:	f000 fea9 	bl	8006904 <memchr>
 8005bb2:	2800      	cmp	r0, #0
 8005bb4:	d03c      	beq.n	8005c30 <_svfiprintf_r+0x1d8>
 8005bb6:	4b26      	ldr	r3, [pc, #152]	; (8005c50 <_svfiprintf_r+0x1f8>)
 8005bb8:	2b00      	cmp	r3, #0
 8005bba:	d125      	bne.n	8005c08 <_svfiprintf_r+0x1b0>
 8005bbc:	2207      	movs	r2, #7
 8005bbe:	9b07      	ldr	r3, [sp, #28]
 8005bc0:	3307      	adds	r3, #7
 8005bc2:	4393      	bics	r3, r2
 8005bc4:	3308      	adds	r3, #8
 8005bc6:	9307      	str	r3, [sp, #28]
 8005bc8:	6963      	ldr	r3, [r4, #20]
 8005bca:	9a04      	ldr	r2, [sp, #16]
 8005bcc:	189b      	adds	r3, r3, r2
 8005bce:	6163      	str	r3, [r4, #20]
 8005bd0:	e765      	b.n	8005a9e <_svfiprintf_r+0x46>
 8005bd2:	4343      	muls	r3, r0
 8005bd4:	0035      	movs	r5, r6
 8005bd6:	2101      	movs	r1, #1
 8005bd8:	189b      	adds	r3, r3, r2
 8005bda:	e7a6      	b.n	8005b2a <_svfiprintf_r+0xd2>
 8005bdc:	2301      	movs	r3, #1
 8005bde:	425b      	negs	r3, r3
 8005be0:	e7d0      	b.n	8005b84 <_svfiprintf_r+0x12c>
 8005be2:	2300      	movs	r3, #0
 8005be4:	200a      	movs	r0, #10
 8005be6:	001a      	movs	r2, r3
 8005be8:	3501      	adds	r5, #1
 8005bea:	6063      	str	r3, [r4, #4]
 8005bec:	7829      	ldrb	r1, [r5, #0]
 8005bee:	1c6e      	adds	r6, r5, #1
 8005bf0:	3930      	subs	r1, #48	; 0x30
 8005bf2:	2909      	cmp	r1, #9
 8005bf4:	d903      	bls.n	8005bfe <_svfiprintf_r+0x1a6>
 8005bf6:	2b00      	cmp	r3, #0
 8005bf8:	d0c5      	beq.n	8005b86 <_svfiprintf_r+0x12e>
 8005bfa:	9209      	str	r2, [sp, #36]	; 0x24
 8005bfc:	e7c3      	b.n	8005b86 <_svfiprintf_r+0x12e>
 8005bfe:	4342      	muls	r2, r0
 8005c00:	0035      	movs	r5, r6
 8005c02:	2301      	movs	r3, #1
 8005c04:	1852      	adds	r2, r2, r1
 8005c06:	e7f1      	b.n	8005bec <_svfiprintf_r+0x194>
 8005c08:	ab07      	add	r3, sp, #28
 8005c0a:	9300      	str	r3, [sp, #0]
 8005c0c:	003a      	movs	r2, r7
 8005c0e:	0021      	movs	r1, r4
 8005c10:	4b10      	ldr	r3, [pc, #64]	; (8005c54 <_svfiprintf_r+0x1fc>)
 8005c12:	9803      	ldr	r0, [sp, #12]
 8005c14:	e000      	b.n	8005c18 <_svfiprintf_r+0x1c0>
 8005c16:	bf00      	nop
 8005c18:	9004      	str	r0, [sp, #16]
 8005c1a:	9b04      	ldr	r3, [sp, #16]
 8005c1c:	3301      	adds	r3, #1
 8005c1e:	d1d3      	bne.n	8005bc8 <_svfiprintf_r+0x170>
 8005c20:	89bb      	ldrh	r3, [r7, #12]
 8005c22:	980d      	ldr	r0, [sp, #52]	; 0x34
 8005c24:	065b      	lsls	r3, r3, #25
 8005c26:	d400      	bmi.n	8005c2a <_svfiprintf_r+0x1d2>
 8005c28:	e72d      	b.n	8005a86 <_svfiprintf_r+0x2e>
 8005c2a:	2001      	movs	r0, #1
 8005c2c:	4240      	negs	r0, r0
 8005c2e:	e72a      	b.n	8005a86 <_svfiprintf_r+0x2e>
 8005c30:	ab07      	add	r3, sp, #28
 8005c32:	9300      	str	r3, [sp, #0]
 8005c34:	003a      	movs	r2, r7
 8005c36:	0021      	movs	r1, r4
 8005c38:	4b06      	ldr	r3, [pc, #24]	; (8005c54 <_svfiprintf_r+0x1fc>)
 8005c3a:	9803      	ldr	r0, [sp, #12]
 8005c3c:	f000 fa50 	bl	80060e0 <_printf_i>
 8005c40:	e7ea      	b.n	8005c18 <_svfiprintf_r+0x1c0>
 8005c42:	46c0      	nop			; (mov r8, r8)
 8005c44:	08006c64 	.word	0x08006c64
 8005c48:	08006c6a 	.word	0x08006c6a
 8005c4c:	08006c6e 	.word	0x08006c6e
 8005c50:	00000000 	.word	0x00000000
 8005c54:	08005995 	.word	0x08005995

08005c58 <_sungetc_r>:
 8005c58:	b570      	push	{r4, r5, r6, lr}
 8005c5a:	0014      	movs	r4, r2
 8005c5c:	1c4b      	adds	r3, r1, #1
 8005c5e:	d103      	bne.n	8005c68 <_sungetc_r+0x10>
 8005c60:	2501      	movs	r5, #1
 8005c62:	426d      	negs	r5, r5
 8005c64:	0028      	movs	r0, r5
 8005c66:	bd70      	pop	{r4, r5, r6, pc}
 8005c68:	8993      	ldrh	r3, [r2, #12]
 8005c6a:	2220      	movs	r2, #32
 8005c6c:	4393      	bics	r3, r2
 8005c6e:	6b62      	ldr	r2, [r4, #52]	; 0x34
 8005c70:	81a3      	strh	r3, [r4, #12]
 8005c72:	b2ce      	uxtb	r6, r1
 8005c74:	6863      	ldr	r3, [r4, #4]
 8005c76:	b2cd      	uxtb	r5, r1
 8005c78:	2a00      	cmp	r2, #0
 8005c7a:	d010      	beq.n	8005c9e <_sungetc_r+0x46>
 8005c7c:	6ba2      	ldr	r2, [r4, #56]	; 0x38
 8005c7e:	429a      	cmp	r2, r3
 8005c80:	dd07      	ble.n	8005c92 <_sungetc_r+0x3a>
 8005c82:	6823      	ldr	r3, [r4, #0]
 8005c84:	3b01      	subs	r3, #1
 8005c86:	6023      	str	r3, [r4, #0]
 8005c88:	701e      	strb	r6, [r3, #0]
 8005c8a:	6863      	ldr	r3, [r4, #4]
 8005c8c:	3301      	adds	r3, #1
 8005c8e:	6063      	str	r3, [r4, #4]
 8005c90:	e7e8      	b.n	8005c64 <_sungetc_r+0xc>
 8005c92:	0021      	movs	r1, r4
 8005c94:	f000 fdf6 	bl	8006884 <__submore>
 8005c98:	2800      	cmp	r0, #0
 8005c9a:	d0f2      	beq.n	8005c82 <_sungetc_r+0x2a>
 8005c9c:	e7e0      	b.n	8005c60 <_sungetc_r+0x8>
 8005c9e:	6921      	ldr	r1, [r4, #16]
 8005ca0:	6822      	ldr	r2, [r4, #0]
 8005ca2:	2900      	cmp	r1, #0
 8005ca4:	d007      	beq.n	8005cb6 <_sungetc_r+0x5e>
 8005ca6:	4291      	cmp	r1, r2
 8005ca8:	d205      	bcs.n	8005cb6 <_sungetc_r+0x5e>
 8005caa:	1e51      	subs	r1, r2, #1
 8005cac:	7808      	ldrb	r0, [r1, #0]
 8005cae:	42a8      	cmp	r0, r5
 8005cb0:	d101      	bne.n	8005cb6 <_sungetc_r+0x5e>
 8005cb2:	6021      	str	r1, [r4, #0]
 8005cb4:	e7ea      	b.n	8005c8c <_sungetc_r+0x34>
 8005cb6:	6423      	str	r3, [r4, #64]	; 0x40
 8005cb8:	0023      	movs	r3, r4
 8005cba:	3344      	adds	r3, #68	; 0x44
 8005cbc:	6363      	str	r3, [r4, #52]	; 0x34
 8005cbe:	2303      	movs	r3, #3
 8005cc0:	63a3      	str	r3, [r4, #56]	; 0x38
 8005cc2:	0023      	movs	r3, r4
 8005cc4:	3346      	adds	r3, #70	; 0x46
 8005cc6:	63e2      	str	r2, [r4, #60]	; 0x3c
 8005cc8:	701e      	strb	r6, [r3, #0]
 8005cca:	6023      	str	r3, [r4, #0]
 8005ccc:	2301      	movs	r3, #1
 8005cce:	e7de      	b.n	8005c8e <_sungetc_r+0x36>

08005cd0 <__ssrefill_r>:
 8005cd0:	b510      	push	{r4, lr}
 8005cd2:	000c      	movs	r4, r1
 8005cd4:	6b49      	ldr	r1, [r1, #52]	; 0x34
 8005cd6:	2900      	cmp	r1, #0
 8005cd8:	d00e      	beq.n	8005cf8 <__ssrefill_r+0x28>
 8005cda:	0023      	movs	r3, r4
 8005cdc:	3344      	adds	r3, #68	; 0x44
 8005cde:	4299      	cmp	r1, r3
 8005ce0:	d001      	beq.n	8005ce6 <__ssrefill_r+0x16>
 8005ce2:	f000 fe2d 	bl	8006940 <_free_r>
 8005ce6:	2000      	movs	r0, #0
 8005ce8:	6c23      	ldr	r3, [r4, #64]	; 0x40
 8005cea:	6360      	str	r0, [r4, #52]	; 0x34
 8005cec:	6063      	str	r3, [r4, #4]
 8005cee:	4283      	cmp	r3, r0
 8005cf0:	d002      	beq.n	8005cf8 <__ssrefill_r+0x28>
 8005cf2:	6be3      	ldr	r3, [r4, #60]	; 0x3c
 8005cf4:	6023      	str	r3, [r4, #0]
 8005cf6:	bd10      	pop	{r4, pc}
 8005cf8:	6923      	ldr	r3, [r4, #16]
 8005cfa:	2001      	movs	r0, #1
 8005cfc:	6023      	str	r3, [r4, #0]
 8005cfe:	2300      	movs	r3, #0
 8005d00:	89a2      	ldrh	r2, [r4, #12]
 8005d02:	6063      	str	r3, [r4, #4]
 8005d04:	3320      	adds	r3, #32
 8005d06:	4313      	orrs	r3, r2
 8005d08:	81a3      	strh	r3, [r4, #12]
 8005d0a:	4240      	negs	r0, r0
 8005d0c:	e7f3      	b.n	8005cf6 <__ssrefill_r+0x26>
	...

08005d10 <__ssvfiscanf_r>:
 8005d10:	b5f0      	push	{r4, r5, r6, r7, lr}
 8005d12:	4cb5      	ldr	r4, [pc, #724]	; (8005fe8 <__ssvfiscanf_r+0x2d8>)
 8005d14:	0005      	movs	r5, r0
 8005d16:	44a5      	add	sp, r4
 8005d18:	000c      	movs	r4, r1
 8005d1a:	2100      	movs	r1, #0
 8005d1c:	9148      	str	r1, [sp, #288]	; 0x120
 8005d1e:	9149      	str	r1, [sp, #292]	; 0x124
 8005d20:	a905      	add	r1, sp, #20
 8005d22:	914a      	str	r1, [sp, #296]	; 0x128
 8005d24:	21be      	movs	r1, #190	; 0xbe
 8005d26:	48b1      	ldr	r0, [pc, #708]	; (8005fec <__ssvfiscanf_r+0x2dc>)
 8005d28:	0049      	lsls	r1, r1, #1
 8005d2a:	ae45      	add	r6, sp, #276	; 0x114
 8005d2c:	5070      	str	r0, [r6, r1]
 8005d2e:	48b0      	ldr	r0, [pc, #704]	; (8005ff0 <__ssvfiscanf_r+0x2e0>)
 8005d30:	3104      	adds	r1, #4
 8005d32:	ae45      	add	r6, sp, #276	; 0x114
 8005d34:	5070      	str	r0, [r6, r1]
 8005d36:	9304      	str	r3, [sp, #16]
 8005d38:	9101      	str	r1, [sp, #4]
 8005d3a:	7813      	ldrb	r3, [r2, #0]
 8005d3c:	9300      	str	r3, [sp, #0]
 8005d3e:	2b00      	cmp	r3, #0
 8005d40:	d100      	bne.n	8005d44 <__ssvfiscanf_r+0x34>
 8005d42:	e14f      	b.n	8005fe4 <__ssvfiscanf_r+0x2d4>
 8005d44:	4fab      	ldr	r7, [pc, #684]	; (8005ff4 <__ssvfiscanf_r+0x2e4>)
 8005d46:	2008      	movs	r0, #8
 8005d48:	5cf9      	ldrb	r1, [r7, r3]
 8005d4a:	2308      	movs	r3, #8
 8005d4c:	1c56      	adds	r6, r2, #1
 8005d4e:	400b      	ands	r3, r1
 8005d50:	4201      	tst	r1, r0
 8005d52:	d01e      	beq.n	8005d92 <__ssvfiscanf_r+0x82>
 8005d54:	6863      	ldr	r3, [r4, #4]
 8005d56:	2b00      	cmp	r3, #0
 8005d58:	dd11      	ble.n	8005d7e <__ssvfiscanf_r+0x6e>
 8005d5a:	2108      	movs	r1, #8
 8005d5c:	6823      	ldr	r3, [r4, #0]
 8005d5e:	781a      	ldrb	r2, [r3, #0]
 8005d60:	5cba      	ldrb	r2, [r7, r2]
 8005d62:	420a      	tst	r2, r1
 8005d64:	d101      	bne.n	8005d6a <__ssvfiscanf_r+0x5a>
 8005d66:	0032      	movs	r2, r6
 8005d68:	e7e7      	b.n	8005d3a <__ssvfiscanf_r+0x2a>
 8005d6a:	9a49      	ldr	r2, [sp, #292]	; 0x124
 8005d6c:	3301      	adds	r3, #1
 8005d6e:	9200      	str	r2, [sp, #0]
 8005d70:	3201      	adds	r2, #1
 8005d72:	9249      	str	r2, [sp, #292]	; 0x124
 8005d74:	6862      	ldr	r2, [r4, #4]
 8005d76:	6023      	str	r3, [r4, #0]
 8005d78:	3a01      	subs	r2, #1
 8005d7a:	6062      	str	r2, [r4, #4]
 8005d7c:	e7ea      	b.n	8005d54 <__ssvfiscanf_r+0x44>
 8005d7e:	9a01      	ldr	r2, [sp, #4]
 8005d80:	ab45      	add	r3, sp, #276	; 0x114
 8005d82:	589b      	ldr	r3, [r3, r2]
 8005d84:	0021      	movs	r1, r4
 8005d86:	0028      	movs	r0, r5
 8005d88:	9300      	str	r3, [sp, #0]
 8005d8a:	4798      	blx	r3
 8005d8c:	2800      	cmp	r0, #0
 8005d8e:	d0e4      	beq.n	8005d5a <__ssvfiscanf_r+0x4a>
 8005d90:	e7e9      	b.n	8005d66 <__ssvfiscanf_r+0x56>
 8005d92:	9900      	ldr	r1, [sp, #0]
 8005d94:	2925      	cmp	r1, #37	; 0x25
 8005d96:	d164      	bne.n	8005e62 <__ssvfiscanf_r+0x152>
 8005d98:	9347      	str	r3, [sp, #284]	; 0x11c
 8005d9a:	9345      	str	r3, [sp, #276]	; 0x114
 8005d9c:	7853      	ldrb	r3, [r2, #1]
 8005d9e:	2b2a      	cmp	r3, #42	; 0x2a
 8005da0:	d102      	bne.n	8005da8 <__ssvfiscanf_r+0x98>
 8005da2:	3b1a      	subs	r3, #26
 8005da4:	9345      	str	r3, [sp, #276]	; 0x114
 8005da6:	1c96      	adds	r6, r2, #2
 8005da8:	0037      	movs	r7, r6
 8005daa:	200a      	movs	r0, #10
 8005dac:	7839      	ldrb	r1, [r7, #0]
 8005dae:	1c7b      	adds	r3, r7, #1
 8005db0:	9302      	str	r3, [sp, #8]
 8005db2:	000b      	movs	r3, r1
 8005db4:	3b30      	subs	r3, #48	; 0x30
 8005db6:	2b09      	cmp	r3, #9
 8005db8:	d91f      	bls.n	8005dfa <__ssvfiscanf_r+0xea>
 8005dba:	4e8f      	ldr	r6, [pc, #572]	; (8005ff8 <__ssvfiscanf_r+0x2e8>)
 8005dbc:	2203      	movs	r2, #3
 8005dbe:	0030      	movs	r0, r6
 8005dc0:	f000 fda0 	bl	8006904 <memchr>
 8005dc4:	2800      	cmp	r0, #0
 8005dc6:	d007      	beq.n	8005dd8 <__ssvfiscanf_r+0xc8>
 8005dc8:	2301      	movs	r3, #1
 8005dca:	1b80      	subs	r0, r0, r6
 8005dcc:	4083      	lsls	r3, r0
 8005dce:	9a45      	ldr	r2, [sp, #276]	; 0x114
 8005dd0:	9f02      	ldr	r7, [sp, #8]
 8005dd2:	4313      	orrs	r3, r2
 8005dd4:	9203      	str	r2, [sp, #12]
 8005dd6:	9345      	str	r3, [sp, #276]	; 0x114
 8005dd8:	783b      	ldrb	r3, [r7, #0]
 8005dda:	1c7e      	adds	r6, r7, #1
 8005ddc:	2b78      	cmp	r3, #120	; 0x78
 8005dde:	d807      	bhi.n	8005df0 <__ssvfiscanf_r+0xe0>
 8005de0:	2b57      	cmp	r3, #87	; 0x57
 8005de2:	d812      	bhi.n	8005e0a <__ssvfiscanf_r+0xfa>
 8005de4:	2b25      	cmp	r3, #37	; 0x25
 8005de6:	d03c      	beq.n	8005e62 <__ssvfiscanf_r+0x152>
 8005de8:	d836      	bhi.n	8005e58 <__ssvfiscanf_r+0x148>
 8005dea:	2b00      	cmp	r3, #0
 8005dec:	d100      	bne.n	8005df0 <__ssvfiscanf_r+0xe0>
 8005dee:	e0f6      	b.n	8005fde <__ssvfiscanf_r+0x2ce>
 8005df0:	2303      	movs	r3, #3
 8005df2:	934b      	str	r3, [sp, #300]	; 0x12c
 8005df4:	3307      	adds	r3, #7
 8005df6:	9346      	str	r3, [sp, #280]	; 0x118
 8005df8:	e076      	b.n	8005ee8 <__ssvfiscanf_r+0x1d8>
 8005dfa:	9b47      	ldr	r3, [sp, #284]	; 0x11c
 8005dfc:	9f02      	ldr	r7, [sp, #8]
 8005dfe:	9303      	str	r3, [sp, #12]
 8005e00:	4343      	muls	r3, r0
 8005e02:	3b30      	subs	r3, #48	; 0x30
 8005e04:	185b      	adds	r3, r3, r1
 8005e06:	9347      	str	r3, [sp, #284]	; 0x11c
 8005e08:	e7d0      	b.n	8005dac <__ssvfiscanf_r+0x9c>
 8005e0a:	0018      	movs	r0, r3
 8005e0c:	3858      	subs	r0, #88	; 0x58
 8005e0e:	2820      	cmp	r0, #32
 8005e10:	d8ee      	bhi.n	8005df0 <__ssvfiscanf_r+0xe0>
 8005e12:	f7fa f981 	bl	8000118 <__gnu_thumb1_case_shi>
 8005e16:	0051      	.short	0x0051
 8005e18:	ffedffed 	.word	0xffedffed
 8005e1c:	ffed0086 	.word	0xffed0086
 8005e20:	ffedffed 	.word	0xffedffed
 8005e24:	ffedffed 	.word	0xffedffed
 8005e28:	ffedffed 	.word	0xffedffed
 8005e2c:	00600093 	.word	0x00600093
 8005e30:	00240024 	.word	0x00240024
 8005e34:	ffed0024 	.word	0xffed0024
 8005e38:	ffed0062 	.word	0xffed0062
 8005e3c:	ffedffed 	.word	0xffedffed
 8005e40:	009dffed 	.word	0x009dffed
 8005e44:	004b0065 	.word	0x004b0065
 8005e48:	ffedffed 	.word	0xffedffed
 8005e4c:	ffed009b 	.word	0xffed009b
 8005e50:	ffed0060 	.word	0xffed0060
 8005e54:	0051ffed 	.word	0x0051ffed
 8005e58:	3b45      	subs	r3, #69	; 0x45
 8005e5a:	2b02      	cmp	r3, #2
 8005e5c:	d8c8      	bhi.n	8005df0 <__ssvfiscanf_r+0xe0>
 8005e5e:	2305      	movs	r3, #5
 8005e60:	e041      	b.n	8005ee6 <__ssvfiscanf_r+0x1d6>
 8005e62:	6863      	ldr	r3, [r4, #4]
 8005e64:	2b00      	cmp	r3, #0
 8005e66:	dd0f      	ble.n	8005e88 <__ssvfiscanf_r+0x178>
 8005e68:	6823      	ldr	r3, [r4, #0]
 8005e6a:	9900      	ldr	r1, [sp, #0]
 8005e6c:	781a      	ldrb	r2, [r3, #0]
 8005e6e:	428a      	cmp	r2, r1
 8005e70:	d000      	beq.n	8005e74 <__ssvfiscanf_r+0x164>
 8005e72:	e0b7      	b.n	8005fe4 <__ssvfiscanf_r+0x2d4>
 8005e74:	3301      	adds	r3, #1
 8005e76:	6862      	ldr	r2, [r4, #4]
 8005e78:	6023      	str	r3, [r4, #0]
 8005e7a:	9b49      	ldr	r3, [sp, #292]	; 0x124
 8005e7c:	3a01      	subs	r2, #1
 8005e7e:	9300      	str	r3, [sp, #0]
 8005e80:	3301      	adds	r3, #1
 8005e82:	6062      	str	r2, [r4, #4]
 8005e84:	9349      	str	r3, [sp, #292]	; 0x124
 8005e86:	e76e      	b.n	8005d66 <__ssvfiscanf_r+0x56>
 8005e88:	9a01      	ldr	r2, [sp, #4]
 8005e8a:	ab45      	add	r3, sp, #276	; 0x114
 8005e8c:	589b      	ldr	r3, [r3, r2]
 8005e8e:	0021      	movs	r1, r4
 8005e90:	0028      	movs	r0, r5
 8005e92:	9302      	str	r3, [sp, #8]
 8005e94:	4798      	blx	r3
 8005e96:	2800      	cmp	r0, #0
 8005e98:	d0e6      	beq.n	8005e68 <__ssvfiscanf_r+0x158>
 8005e9a:	9848      	ldr	r0, [sp, #288]	; 0x120
 8005e9c:	2800      	cmp	r0, #0
 8005e9e:	d000      	beq.n	8005ea2 <__ssvfiscanf_r+0x192>
 8005ea0:	e099      	b.n	8005fd6 <__ssvfiscanf_r+0x2c6>
 8005ea2:	3801      	subs	r0, #1
 8005ea4:	23a7      	movs	r3, #167	; 0xa7
 8005ea6:	009b      	lsls	r3, r3, #2
 8005ea8:	449d      	add	sp, r3
 8005eaa:	bdf0      	pop	{r4, r5, r6, r7, pc}
 8005eac:	9a45      	ldr	r2, [sp, #276]	; 0x114
 8005eae:	9200      	str	r2, [sp, #0]
 8005eb0:	2220      	movs	r2, #32
 8005eb2:	9900      	ldr	r1, [sp, #0]
 8005eb4:	430a      	orrs	r2, r1
 8005eb6:	9245      	str	r2, [sp, #276]	; 0x114
 8005eb8:	9a45      	ldr	r2, [sp, #276]	; 0x114
 8005eba:	9200      	str	r2, [sp, #0]
 8005ebc:	2280      	movs	r2, #128	; 0x80
 8005ebe:	9900      	ldr	r1, [sp, #0]
 8005ec0:	0092      	lsls	r2, r2, #2
 8005ec2:	430a      	orrs	r2, r1
 8005ec4:	9245      	str	r2, [sp, #276]	; 0x114
 8005ec6:	2210      	movs	r2, #16
 8005ec8:	9246      	str	r2, [sp, #280]	; 0x118
 8005eca:	226e      	movs	r2, #110	; 0x6e
 8005ecc:	429a      	cmp	r2, r3
 8005ece:	419b      	sbcs	r3, r3
 8005ed0:	425b      	negs	r3, r3
 8005ed2:	3303      	adds	r3, #3
 8005ed4:	e007      	b.n	8005ee6 <__ssvfiscanf_r+0x1d6>
 8005ed6:	220a      	movs	r2, #10
 8005ed8:	e7f6      	b.n	8005ec8 <__ssvfiscanf_r+0x1b8>
 8005eda:	2300      	movs	r3, #0
 8005edc:	9346      	str	r3, [sp, #280]	; 0x118
 8005ede:	e7f8      	b.n	8005ed2 <__ssvfiscanf_r+0x1c2>
 8005ee0:	2308      	movs	r3, #8
 8005ee2:	9346      	str	r3, [sp, #280]	; 0x118
 8005ee4:	3b04      	subs	r3, #4
 8005ee6:	934b      	str	r3, [sp, #300]	; 0x12c
 8005ee8:	6863      	ldr	r3, [r4, #4]
 8005eea:	2b00      	cmp	r3, #0
 8005eec:	dd3f      	ble.n	8005f6e <__ssvfiscanf_r+0x25e>
 8005eee:	9b45      	ldr	r3, [sp, #276]	; 0x114
 8005ef0:	9300      	str	r3, [sp, #0]
 8005ef2:	065b      	lsls	r3, r3, #25
 8005ef4:	d406      	bmi.n	8005f04 <__ssvfiscanf_r+0x1f4>
 8005ef6:	6823      	ldr	r3, [r4, #0]
 8005ef8:	493e      	ldr	r1, [pc, #248]	; (8005ff4 <__ssvfiscanf_r+0x2e4>)
 8005efa:	781a      	ldrb	r2, [r3, #0]
 8005efc:	5c8a      	ldrb	r2, [r1, r2]
 8005efe:	2108      	movs	r1, #8
 8005f00:	420a      	tst	r2, r1
 8005f02:	d13e      	bne.n	8005f82 <__ssvfiscanf_r+0x272>
 8005f04:	9b4b      	ldr	r3, [sp, #300]	; 0x12c
 8005f06:	2b02      	cmp	r3, #2
 8005f08:	dc51      	bgt.n	8005fae <__ssvfiscanf_r+0x29e>
 8005f0a:	0022      	movs	r2, r4
 8005f0c:	0028      	movs	r0, r5
 8005f0e:	ab04      	add	r3, sp, #16
 8005f10:	a945      	add	r1, sp, #276	; 0x114
 8005f12:	f000 f9f7 	bl	8006304 <_scanf_chars>
 8005f16:	2801      	cmp	r0, #1
 8005f18:	d064      	beq.n	8005fe4 <__ssvfiscanf_r+0x2d4>
 8005f1a:	2802      	cmp	r0, #2
 8005f1c:	d000      	beq.n	8005f20 <__ssvfiscanf_r+0x210>
 8005f1e:	e722      	b.n	8005d66 <__ssvfiscanf_r+0x56>
 8005f20:	e7bb      	b.n	8005e9a <__ssvfiscanf_r+0x18a>
 8005f22:	0031      	movs	r1, r6
 8005f24:	a805      	add	r0, sp, #20
 8005f26:	f000 fb4f 	bl	80065c8 <__sccl>
 8005f2a:	9b45      	ldr	r3, [sp, #276]	; 0x114
 8005f2c:	0006      	movs	r6, r0
 8005f2e:	9300      	str	r3, [sp, #0]
 8005f30:	2340      	movs	r3, #64	; 0x40
 8005f32:	9a00      	ldr	r2, [sp, #0]
 8005f34:	4313      	orrs	r3, r2
 8005f36:	9345      	str	r3, [sp, #276]	; 0x114
 8005f38:	2301      	movs	r3, #1
 8005f3a:	e7d4      	b.n	8005ee6 <__ssvfiscanf_r+0x1d6>
 8005f3c:	9b45      	ldr	r3, [sp, #276]	; 0x114
 8005f3e:	9300      	str	r3, [sp, #0]
 8005f40:	2340      	movs	r3, #64	; 0x40
 8005f42:	9a00      	ldr	r2, [sp, #0]
 8005f44:	4313      	orrs	r3, r2
 8005f46:	9345      	str	r3, [sp, #276]	; 0x114
 8005f48:	2300      	movs	r3, #0
 8005f4a:	e7cc      	b.n	8005ee6 <__ssvfiscanf_r+0x1d6>
 8005f4c:	2302      	movs	r3, #2
 8005f4e:	e7ca      	b.n	8005ee6 <__ssvfiscanf_r+0x1d6>
 8005f50:	9845      	ldr	r0, [sp, #276]	; 0x114
 8005f52:	06c3      	lsls	r3, r0, #27
 8005f54:	d500      	bpl.n	8005f58 <__ssvfiscanf_r+0x248>
 8005f56:	e706      	b.n	8005d66 <__ssvfiscanf_r+0x56>
 8005f58:	9b04      	ldr	r3, [sp, #16]
 8005f5a:	9a49      	ldr	r2, [sp, #292]	; 0x124
 8005f5c:	1d19      	adds	r1, r3, #4
 8005f5e:	9104      	str	r1, [sp, #16]
 8005f60:	681b      	ldr	r3, [r3, #0]
 8005f62:	07c7      	lsls	r7, r0, #31
 8005f64:	d501      	bpl.n	8005f6a <__ssvfiscanf_r+0x25a>
 8005f66:	801a      	strh	r2, [r3, #0]
 8005f68:	e6fd      	b.n	8005d66 <__ssvfiscanf_r+0x56>
 8005f6a:	601a      	str	r2, [r3, #0]
 8005f6c:	e6fb      	b.n	8005d66 <__ssvfiscanf_r+0x56>
 8005f6e:	9a01      	ldr	r2, [sp, #4]
 8005f70:	ab45      	add	r3, sp, #276	; 0x114
 8005f72:	589b      	ldr	r3, [r3, r2]
 8005f74:	0021      	movs	r1, r4
 8005f76:	0028      	movs	r0, r5
 8005f78:	9300      	str	r3, [sp, #0]
 8005f7a:	4798      	blx	r3
 8005f7c:	2800      	cmp	r0, #0
 8005f7e:	d0b6      	beq.n	8005eee <__ssvfiscanf_r+0x1de>
 8005f80:	e78b      	b.n	8005e9a <__ssvfiscanf_r+0x18a>
 8005f82:	9a49      	ldr	r2, [sp, #292]	; 0x124
 8005f84:	9200      	str	r2, [sp, #0]
 8005f86:	3201      	adds	r2, #1
 8005f88:	9249      	str	r2, [sp, #292]	; 0x124
 8005f8a:	6862      	ldr	r2, [r4, #4]
 8005f8c:	3a01      	subs	r2, #1
 8005f8e:	6062      	str	r2, [r4, #4]
 8005f90:	2a00      	cmp	r2, #0
 8005f92:	dd02      	ble.n	8005f9a <__ssvfiscanf_r+0x28a>
 8005f94:	3301      	adds	r3, #1
 8005f96:	6023      	str	r3, [r4, #0]
 8005f98:	e7ad      	b.n	8005ef6 <__ssvfiscanf_r+0x1e6>
 8005f9a:	9a01      	ldr	r2, [sp, #4]
 8005f9c:	ab45      	add	r3, sp, #276	; 0x114
 8005f9e:	589b      	ldr	r3, [r3, r2]
 8005fa0:	0021      	movs	r1, r4
 8005fa2:	0028      	movs	r0, r5
 8005fa4:	9300      	str	r3, [sp, #0]
 8005fa6:	4798      	blx	r3
 8005fa8:	2800      	cmp	r0, #0
 8005faa:	d0a4      	beq.n	8005ef6 <__ssvfiscanf_r+0x1e6>
 8005fac:	e775      	b.n	8005e9a <__ssvfiscanf_r+0x18a>
 8005fae:	2b04      	cmp	r3, #4
 8005fb0:	dc06      	bgt.n	8005fc0 <__ssvfiscanf_r+0x2b0>
 8005fb2:	0022      	movs	r2, r4
 8005fb4:	0028      	movs	r0, r5
 8005fb6:	ab04      	add	r3, sp, #16
 8005fb8:	a945      	add	r1, sp, #276	; 0x114
 8005fba:	f000 fa01 	bl	80063c0 <_scanf_i>
 8005fbe:	e7aa      	b.n	8005f16 <__ssvfiscanf_r+0x206>
 8005fc0:	4b0e      	ldr	r3, [pc, #56]	; (8005ffc <__ssvfiscanf_r+0x2ec>)
 8005fc2:	2b00      	cmp	r3, #0
 8005fc4:	d100      	bne.n	8005fc8 <__ssvfiscanf_r+0x2b8>
 8005fc6:	e6ce      	b.n	8005d66 <__ssvfiscanf_r+0x56>
 8005fc8:	0022      	movs	r2, r4
 8005fca:	0028      	movs	r0, r5
 8005fcc:	ab04      	add	r3, sp, #16
 8005fce:	a945      	add	r1, sp, #276	; 0x114
 8005fd0:	e000      	b.n	8005fd4 <__ssvfiscanf_r+0x2c4>
 8005fd2:	bf00      	nop
 8005fd4:	e79f      	b.n	8005f16 <__ssvfiscanf_r+0x206>
 8005fd6:	89a3      	ldrh	r3, [r4, #12]
 8005fd8:	065b      	lsls	r3, r3, #25
 8005fda:	d400      	bmi.n	8005fde <__ssvfiscanf_r+0x2ce>
 8005fdc:	e762      	b.n	8005ea4 <__ssvfiscanf_r+0x194>
 8005fde:	2001      	movs	r0, #1
 8005fe0:	4240      	negs	r0, r0
 8005fe2:	e75f      	b.n	8005ea4 <__ssvfiscanf_r+0x194>
 8005fe4:	9848      	ldr	r0, [sp, #288]	; 0x120
 8005fe6:	e75d      	b.n	8005ea4 <__ssvfiscanf_r+0x194>
 8005fe8:	fffffd64 	.word	0xfffffd64
 8005fec:	08005c59 	.word	0x08005c59
 8005ff0:	08005cd1 	.word	0x08005cd1
 8005ff4:	08006cb3 	.word	0x08006cb3
 8005ff8:	08006c6a 	.word	0x08006c6a
 8005ffc:	00000000 	.word	0x00000000

08006000 <_printf_common>:
 8006000:	b5f7      	push	{r0, r1, r2, r4, r5, r6, r7, lr}
 8006002:	0015      	movs	r5, r2
 8006004:	9301      	str	r3, [sp, #4]
 8006006:	688a      	ldr	r2, [r1, #8]
 8006008:	690b      	ldr	r3, [r1, #16]
 800600a:	000c      	movs	r4, r1
 800600c:	9000      	str	r0, [sp, #0]
 800600e:	4293      	cmp	r3, r2
 8006010:	da00      	bge.n	8006014 <_printf_common+0x14>
 8006012:	0013      	movs	r3, r2
 8006014:	0022      	movs	r2, r4
 8006016:	602b      	str	r3, [r5, #0]
 8006018:	3243      	adds	r2, #67	; 0x43
 800601a:	7812      	ldrb	r2, [r2, #0]
 800601c:	2a00      	cmp	r2, #0
 800601e:	d001      	beq.n	8006024 <_printf_common+0x24>
 8006020:	3301      	adds	r3, #1
 8006022:	602b      	str	r3, [r5, #0]
 8006024:	6823      	ldr	r3, [r4, #0]
 8006026:	069b      	lsls	r3, r3, #26
 8006028:	d502      	bpl.n	8006030 <_printf_common+0x30>
 800602a:	682b      	ldr	r3, [r5, #0]
 800602c:	3302      	adds	r3, #2
 800602e:	602b      	str	r3, [r5, #0]
 8006030:	6822      	ldr	r2, [r4, #0]
 8006032:	2306      	movs	r3, #6
 8006034:	0017      	movs	r7, r2
 8006036:	401f      	ands	r7, r3
 8006038:	421a      	tst	r2, r3
 800603a:	d027      	beq.n	800608c <_printf_common+0x8c>
 800603c:	0023      	movs	r3, r4
 800603e:	3343      	adds	r3, #67	; 0x43
 8006040:	781b      	ldrb	r3, [r3, #0]
 8006042:	1e5a      	subs	r2, r3, #1
 8006044:	4193      	sbcs	r3, r2
 8006046:	6822      	ldr	r2, [r4, #0]
 8006048:	0692      	lsls	r2, r2, #26
 800604a:	d430      	bmi.n	80060ae <_printf_common+0xae>
 800604c:	0022      	movs	r2, r4
 800604e:	9901      	ldr	r1, [sp, #4]
 8006050:	9800      	ldr	r0, [sp, #0]
 8006052:	9e08      	ldr	r6, [sp, #32]
 8006054:	3243      	adds	r2, #67	; 0x43
 8006056:	47b0      	blx	r6
 8006058:	1c43      	adds	r3, r0, #1
 800605a:	d025      	beq.n	80060a8 <_printf_common+0xa8>
 800605c:	2306      	movs	r3, #6
 800605e:	6820      	ldr	r0, [r4, #0]
 8006060:	682a      	ldr	r2, [r5, #0]
 8006062:	68e1      	ldr	r1, [r4, #12]
 8006064:	2500      	movs	r5, #0
 8006066:	4003      	ands	r3, r0
 8006068:	2b04      	cmp	r3, #4
 800606a:	d103      	bne.n	8006074 <_printf_common+0x74>
 800606c:	1a8d      	subs	r5, r1, r2
 800606e:	43eb      	mvns	r3, r5
 8006070:	17db      	asrs	r3, r3, #31
 8006072:	401d      	ands	r5, r3
 8006074:	68a3      	ldr	r3, [r4, #8]
 8006076:	6922      	ldr	r2, [r4, #16]
 8006078:	4293      	cmp	r3, r2
 800607a:	dd01      	ble.n	8006080 <_printf_common+0x80>
 800607c:	1a9b      	subs	r3, r3, r2
 800607e:	18ed      	adds	r5, r5, r3
 8006080:	2700      	movs	r7, #0
 8006082:	42bd      	cmp	r5, r7
 8006084:	d120      	bne.n	80060c8 <_printf_common+0xc8>
 8006086:	2000      	movs	r0, #0
 8006088:	e010      	b.n	80060ac <_printf_common+0xac>
 800608a:	3701      	adds	r7, #1
 800608c:	68e3      	ldr	r3, [r4, #12]
 800608e:	682a      	ldr	r2, [r5, #0]
 8006090:	1a9b      	subs	r3, r3, r2
 8006092:	42bb      	cmp	r3, r7
 8006094:	ddd2      	ble.n	800603c <_printf_common+0x3c>
 8006096:	0022      	movs	r2, r4
 8006098:	2301      	movs	r3, #1
 800609a:	9901      	ldr	r1, [sp, #4]
 800609c:	9800      	ldr	r0, [sp, #0]
 800609e:	9e08      	ldr	r6, [sp, #32]
 80060a0:	3219      	adds	r2, #25
 80060a2:	47b0      	blx	r6
 80060a4:	1c43      	adds	r3, r0, #1
 80060a6:	d1f0      	bne.n	800608a <_printf_common+0x8a>
 80060a8:	2001      	movs	r0, #1
 80060aa:	4240      	negs	r0, r0
 80060ac:	bdfe      	pop	{r1, r2, r3, r4, r5, r6, r7, pc}
 80060ae:	2030      	movs	r0, #48	; 0x30
 80060b0:	18e1      	adds	r1, r4, r3
 80060b2:	3143      	adds	r1, #67	; 0x43
 80060b4:	7008      	strb	r0, [r1, #0]
 80060b6:	0021      	movs	r1, r4
 80060b8:	1c5a      	adds	r2, r3, #1
 80060ba:	3145      	adds	r1, #69	; 0x45
 80060bc:	7809      	ldrb	r1, [r1, #0]
 80060be:	18a2      	adds	r2, r4, r2
 80060c0:	3243      	adds	r2, #67	; 0x43
 80060c2:	3302      	adds	r3, #2
 80060c4:	7011      	strb	r1, [r2, #0]
 80060c6:	e7c1      	b.n	800604c <_printf_common+0x4c>
 80060c8:	0022      	movs	r2, r4
 80060ca:	2301      	movs	r3, #1
 80060cc:	9901      	ldr	r1, [sp, #4]
 80060ce:	9800      	ldr	r0, [sp, #0]
 80060d0:	9e08      	ldr	r6, [sp, #32]
 80060d2:	321a      	adds	r2, #26
 80060d4:	47b0      	blx	r6
 80060d6:	1c43      	adds	r3, r0, #1
 80060d8:	d0e6      	beq.n	80060a8 <_printf_common+0xa8>
 80060da:	3701      	adds	r7, #1
 80060dc:	e7d1      	b.n	8006082 <_printf_common+0x82>
	...

080060e0 <_printf_i>:
 80060e0:	b5f0      	push	{r4, r5, r6, r7, lr}
 80060e2:	b08b      	sub	sp, #44	; 0x2c
 80060e4:	9206      	str	r2, [sp, #24]
 80060e6:	000a      	movs	r2, r1
 80060e8:	3243      	adds	r2, #67	; 0x43
 80060ea:	9307      	str	r3, [sp, #28]
 80060ec:	9005      	str	r0, [sp, #20]
 80060ee:	9204      	str	r2, [sp, #16]
 80060f0:	7e0a      	ldrb	r2, [r1, #24]
 80060f2:	000c      	movs	r4, r1
 80060f4:	9b10      	ldr	r3, [sp, #64]	; 0x40
 80060f6:	2a78      	cmp	r2, #120	; 0x78
 80060f8:	d806      	bhi.n	8006108 <_printf_i+0x28>
 80060fa:	2a62      	cmp	r2, #98	; 0x62
 80060fc:	d808      	bhi.n	8006110 <_printf_i+0x30>
 80060fe:	2a00      	cmp	r2, #0
 8006100:	d100      	bne.n	8006104 <_printf_i+0x24>
 8006102:	e0c0      	b.n	8006286 <_printf_i+0x1a6>
 8006104:	2a58      	cmp	r2, #88	; 0x58
 8006106:	d052      	beq.n	80061ae <_printf_i+0xce>
 8006108:	0026      	movs	r6, r4
 800610a:	3642      	adds	r6, #66	; 0x42
 800610c:	7032      	strb	r2, [r6, #0]
 800610e:	e022      	b.n	8006156 <_printf_i+0x76>
 8006110:	0010      	movs	r0, r2
 8006112:	3863      	subs	r0, #99	; 0x63
 8006114:	2815      	cmp	r0, #21
 8006116:	d8f7      	bhi.n	8006108 <_printf_i+0x28>
 8006118:	f7f9 fffe 	bl	8000118 <__gnu_thumb1_case_shi>
 800611c:	001f0016 	.word	0x001f0016
 8006120:	fff6fff6 	.word	0xfff6fff6
 8006124:	fff6fff6 	.word	0xfff6fff6
 8006128:	fff6001f 	.word	0xfff6001f
 800612c:	fff6fff6 	.word	0xfff6fff6
 8006130:	00a8fff6 	.word	0x00a8fff6
 8006134:	009a0036 	.word	0x009a0036
 8006138:	fff6fff6 	.word	0xfff6fff6
 800613c:	fff600b9 	.word	0xfff600b9
 8006140:	fff60036 	.word	0xfff60036
 8006144:	009efff6 	.word	0x009efff6
 8006148:	0026      	movs	r6, r4
 800614a:	681a      	ldr	r2, [r3, #0]
 800614c:	3642      	adds	r6, #66	; 0x42
 800614e:	1d11      	adds	r1, r2, #4
 8006150:	6019      	str	r1, [r3, #0]
 8006152:	6813      	ldr	r3, [r2, #0]
 8006154:	7033      	strb	r3, [r6, #0]
 8006156:	2301      	movs	r3, #1
 8006158:	e0a7      	b.n	80062aa <_printf_i+0x1ca>
 800615a:	6808      	ldr	r0, [r1, #0]
 800615c:	6819      	ldr	r1, [r3, #0]
 800615e:	1d0a      	adds	r2, r1, #4
 8006160:	0605      	lsls	r5, r0, #24
 8006162:	d50b      	bpl.n	800617c <_printf_i+0x9c>
 8006164:	680d      	ldr	r5, [r1, #0]
 8006166:	601a      	str	r2, [r3, #0]
 8006168:	2d00      	cmp	r5, #0
 800616a:	da03      	bge.n	8006174 <_printf_i+0x94>
 800616c:	232d      	movs	r3, #45	; 0x2d
 800616e:	9a04      	ldr	r2, [sp, #16]
 8006170:	426d      	negs	r5, r5
 8006172:	7013      	strb	r3, [r2, #0]
 8006174:	4b61      	ldr	r3, [pc, #388]	; (80062fc <_printf_i+0x21c>)
 8006176:	270a      	movs	r7, #10
 8006178:	9303      	str	r3, [sp, #12]
 800617a:	e032      	b.n	80061e2 <_printf_i+0x102>
 800617c:	680d      	ldr	r5, [r1, #0]
 800617e:	601a      	str	r2, [r3, #0]
 8006180:	0641      	lsls	r1, r0, #25
 8006182:	d5f1      	bpl.n	8006168 <_printf_i+0x88>
 8006184:	b22d      	sxth	r5, r5
 8006186:	e7ef      	b.n	8006168 <_printf_i+0x88>
 8006188:	680d      	ldr	r5, [r1, #0]
 800618a:	6819      	ldr	r1, [r3, #0]
 800618c:	1d08      	adds	r0, r1, #4
 800618e:	6018      	str	r0, [r3, #0]
 8006190:	062e      	lsls	r6, r5, #24
 8006192:	d501      	bpl.n	8006198 <_printf_i+0xb8>
 8006194:	680d      	ldr	r5, [r1, #0]
 8006196:	e003      	b.n	80061a0 <_printf_i+0xc0>
 8006198:	066d      	lsls	r5, r5, #25
 800619a:	d5fb      	bpl.n	8006194 <_printf_i+0xb4>
 800619c:	680d      	ldr	r5, [r1, #0]
 800619e:	b2ad      	uxth	r5, r5
 80061a0:	4b56      	ldr	r3, [pc, #344]	; (80062fc <_printf_i+0x21c>)
 80061a2:	270a      	movs	r7, #10
 80061a4:	9303      	str	r3, [sp, #12]
 80061a6:	2a6f      	cmp	r2, #111	; 0x6f
 80061a8:	d117      	bne.n	80061da <_printf_i+0xfa>
 80061aa:	2708      	movs	r7, #8
 80061ac:	e015      	b.n	80061da <_printf_i+0xfa>
 80061ae:	3145      	adds	r1, #69	; 0x45
 80061b0:	700a      	strb	r2, [r1, #0]
 80061b2:	4a52      	ldr	r2, [pc, #328]	; (80062fc <_printf_i+0x21c>)
 80061b4:	9203      	str	r2, [sp, #12]
 80061b6:	681a      	ldr	r2, [r3, #0]
 80061b8:	6821      	ldr	r1, [r4, #0]
 80061ba:	ca20      	ldmia	r2!, {r5}
 80061bc:	601a      	str	r2, [r3, #0]
 80061be:	0608      	lsls	r0, r1, #24
 80061c0:	d550      	bpl.n	8006264 <_printf_i+0x184>
 80061c2:	07cb      	lsls	r3, r1, #31
 80061c4:	d502      	bpl.n	80061cc <_printf_i+0xec>
 80061c6:	2320      	movs	r3, #32
 80061c8:	4319      	orrs	r1, r3
 80061ca:	6021      	str	r1, [r4, #0]
 80061cc:	2710      	movs	r7, #16
 80061ce:	2d00      	cmp	r5, #0
 80061d0:	d103      	bne.n	80061da <_printf_i+0xfa>
 80061d2:	2320      	movs	r3, #32
 80061d4:	6822      	ldr	r2, [r4, #0]
 80061d6:	439a      	bics	r2, r3
 80061d8:	6022      	str	r2, [r4, #0]
 80061da:	0023      	movs	r3, r4
 80061dc:	2200      	movs	r2, #0
 80061de:	3343      	adds	r3, #67	; 0x43
 80061e0:	701a      	strb	r2, [r3, #0]
 80061e2:	6863      	ldr	r3, [r4, #4]
 80061e4:	60a3      	str	r3, [r4, #8]
 80061e6:	2b00      	cmp	r3, #0
 80061e8:	db03      	blt.n	80061f2 <_printf_i+0x112>
 80061ea:	2204      	movs	r2, #4
 80061ec:	6821      	ldr	r1, [r4, #0]
 80061ee:	4391      	bics	r1, r2
 80061f0:	6021      	str	r1, [r4, #0]
 80061f2:	2d00      	cmp	r5, #0
 80061f4:	d102      	bne.n	80061fc <_printf_i+0x11c>
 80061f6:	9e04      	ldr	r6, [sp, #16]
 80061f8:	2b00      	cmp	r3, #0
 80061fa:	d00c      	beq.n	8006216 <_printf_i+0x136>
 80061fc:	9e04      	ldr	r6, [sp, #16]
 80061fe:	0028      	movs	r0, r5
 8006200:	0039      	movs	r1, r7
 8006202:	f7fa f819 	bl	8000238 <__aeabi_uidivmod>
 8006206:	9b03      	ldr	r3, [sp, #12]
 8006208:	3e01      	subs	r6, #1
 800620a:	5c5b      	ldrb	r3, [r3, r1]
 800620c:	7033      	strb	r3, [r6, #0]
 800620e:	002b      	movs	r3, r5
 8006210:	0005      	movs	r5, r0
 8006212:	429f      	cmp	r7, r3
 8006214:	d9f3      	bls.n	80061fe <_printf_i+0x11e>
 8006216:	2f08      	cmp	r7, #8
 8006218:	d109      	bne.n	800622e <_printf_i+0x14e>
 800621a:	6823      	ldr	r3, [r4, #0]
 800621c:	07db      	lsls	r3, r3, #31
 800621e:	d506      	bpl.n	800622e <_printf_i+0x14e>
 8006220:	6863      	ldr	r3, [r4, #4]
 8006222:	6922      	ldr	r2, [r4, #16]
 8006224:	4293      	cmp	r3, r2
 8006226:	dc02      	bgt.n	800622e <_printf_i+0x14e>
 8006228:	2330      	movs	r3, #48	; 0x30
 800622a:	3e01      	subs	r6, #1
 800622c:	7033      	strb	r3, [r6, #0]
 800622e:	9b04      	ldr	r3, [sp, #16]
 8006230:	1b9b      	subs	r3, r3, r6
 8006232:	6123      	str	r3, [r4, #16]
 8006234:	9b07      	ldr	r3, [sp, #28]
 8006236:	0021      	movs	r1, r4
 8006238:	9300      	str	r3, [sp, #0]
 800623a:	9805      	ldr	r0, [sp, #20]
 800623c:	9b06      	ldr	r3, [sp, #24]
 800623e:	aa09      	add	r2, sp, #36	; 0x24
 8006240:	f7ff fede 	bl	8006000 <_printf_common>
 8006244:	1c43      	adds	r3, r0, #1
 8006246:	d135      	bne.n	80062b4 <_printf_i+0x1d4>
 8006248:	2001      	movs	r0, #1
 800624a:	4240      	negs	r0, r0
 800624c:	b00b      	add	sp, #44	; 0x2c
 800624e:	bdf0      	pop	{r4, r5, r6, r7, pc}
 8006250:	2220      	movs	r2, #32
 8006252:	6809      	ldr	r1, [r1, #0]
 8006254:	430a      	orrs	r2, r1
 8006256:	6022      	str	r2, [r4, #0]
 8006258:	0022      	movs	r2, r4
 800625a:	2178      	movs	r1, #120	; 0x78
 800625c:	3245      	adds	r2, #69	; 0x45
 800625e:	7011      	strb	r1, [r2, #0]
 8006260:	4a27      	ldr	r2, [pc, #156]	; (8006300 <_printf_i+0x220>)
 8006262:	e7a7      	b.n	80061b4 <_printf_i+0xd4>
 8006264:	0648      	lsls	r0, r1, #25
 8006266:	d5ac      	bpl.n	80061c2 <_printf_i+0xe2>
 8006268:	b2ad      	uxth	r5, r5
 800626a:	e7aa      	b.n	80061c2 <_printf_i+0xe2>
 800626c:	681a      	ldr	r2, [r3, #0]
 800626e:	680d      	ldr	r5, [r1, #0]
 8006270:	1d10      	adds	r0, r2, #4
 8006272:	6949      	ldr	r1, [r1, #20]
 8006274:	6018      	str	r0, [r3, #0]
 8006276:	6813      	ldr	r3, [r2, #0]
 8006278:	062e      	lsls	r6, r5, #24
 800627a:	d501      	bpl.n	8006280 <_printf_i+0x1a0>
 800627c:	6019      	str	r1, [r3, #0]
 800627e:	e002      	b.n	8006286 <_printf_i+0x1a6>
 8006280:	066d      	lsls	r5, r5, #25
 8006282:	d5fb      	bpl.n	800627c <_printf_i+0x19c>
 8006284:	8019      	strh	r1, [r3, #0]
 8006286:	2300      	movs	r3, #0
 8006288:	9e04      	ldr	r6, [sp, #16]
 800628a:	6123      	str	r3, [r4, #16]
 800628c:	e7d2      	b.n	8006234 <_printf_i+0x154>
 800628e:	681a      	ldr	r2, [r3, #0]
 8006290:	1d11      	adds	r1, r2, #4
 8006292:	6019      	str	r1, [r3, #0]
 8006294:	6816      	ldr	r6, [r2, #0]
 8006296:	2100      	movs	r1, #0
 8006298:	0030      	movs	r0, r6
 800629a:	6862      	ldr	r2, [r4, #4]
 800629c:	f000 fb32 	bl	8006904 <memchr>
 80062a0:	2800      	cmp	r0, #0
 80062a2:	d001      	beq.n	80062a8 <_printf_i+0x1c8>
 80062a4:	1b80      	subs	r0, r0, r6
 80062a6:	6060      	str	r0, [r4, #4]
 80062a8:	6863      	ldr	r3, [r4, #4]
 80062aa:	6123      	str	r3, [r4, #16]
 80062ac:	2300      	movs	r3, #0
 80062ae:	9a04      	ldr	r2, [sp, #16]
 80062b0:	7013      	strb	r3, [r2, #0]
 80062b2:	e7bf      	b.n	8006234 <_printf_i+0x154>
 80062b4:	6923      	ldr	r3, [r4, #16]
 80062b6:	0032      	movs	r2, r6
 80062b8:	9906      	ldr	r1, [sp, #24]
 80062ba:	9805      	ldr	r0, [sp, #20]
 80062bc:	9d07      	ldr	r5, [sp, #28]
 80062be:	47a8      	blx	r5
 80062c0:	1c43      	adds	r3, r0, #1
 80062c2:	d0c1      	beq.n	8006248 <_printf_i+0x168>
 80062c4:	6823      	ldr	r3, [r4, #0]
 80062c6:	079b      	lsls	r3, r3, #30
 80062c8:	d415      	bmi.n	80062f6 <_printf_i+0x216>
 80062ca:	9b09      	ldr	r3, [sp, #36]	; 0x24
 80062cc:	68e0      	ldr	r0, [r4, #12]
 80062ce:	4298      	cmp	r0, r3
 80062d0:	dabc      	bge.n	800624c <_printf_i+0x16c>
 80062d2:	0018      	movs	r0, r3
 80062d4:	e7ba      	b.n	800624c <_printf_i+0x16c>
 80062d6:	0022      	movs	r2, r4
 80062d8:	2301      	movs	r3, #1
 80062da:	9906      	ldr	r1, [sp, #24]
 80062dc:	9805      	ldr	r0, [sp, #20]
 80062de:	9e07      	ldr	r6, [sp, #28]
 80062e0:	3219      	adds	r2, #25
 80062e2:	47b0      	blx	r6
 80062e4:	1c43      	adds	r3, r0, #1
 80062e6:	d0af      	beq.n	8006248 <_printf_i+0x168>
 80062e8:	3501      	adds	r5, #1
 80062ea:	68e3      	ldr	r3, [r4, #12]
 80062ec:	9a09      	ldr	r2, [sp, #36]	; 0x24
 80062ee:	1a9b      	subs	r3, r3, r2
 80062f0:	42ab      	cmp	r3, r5
 80062f2:	dcf0      	bgt.n	80062d6 <_printf_i+0x1f6>
 80062f4:	e7e9      	b.n	80062ca <_printf_i+0x1ea>
 80062f6:	2500      	movs	r5, #0
 80062f8:	e7f7      	b.n	80062ea <_printf_i+0x20a>
 80062fa:	46c0      	nop			; (mov r8, r8)
 80062fc:	08006c75 	.word	0x08006c75
 8006300:	08006c86 	.word	0x08006c86

08006304 <_scanf_chars>:
 8006304:	b5f7      	push	{r0, r1, r2, r4, r5, r6, r7, lr}
 8006306:	0015      	movs	r5, r2
 8006308:	688a      	ldr	r2, [r1, #8]
 800630a:	000c      	movs	r4, r1
 800630c:	9001      	str	r0, [sp, #4]
 800630e:	2a00      	cmp	r2, #0
 8006310:	d105      	bne.n	800631e <_scanf_chars+0x1a>
 8006312:	6989      	ldr	r1, [r1, #24]
 8006314:	3201      	adds	r2, #1
 8006316:	2900      	cmp	r1, #0
 8006318:	d000      	beq.n	800631c <_scanf_chars+0x18>
 800631a:	3a02      	subs	r2, #2
 800631c:	60a2      	str	r2, [r4, #8]
 800631e:	6822      	ldr	r2, [r4, #0]
 8006320:	06d2      	lsls	r2, r2, #27
 8006322:	d403      	bmi.n	800632c <_scanf_chars+0x28>
 8006324:	681a      	ldr	r2, [r3, #0]
 8006326:	1d11      	adds	r1, r2, #4
 8006328:	6019      	str	r1, [r3, #0]
 800632a:	6817      	ldr	r7, [r2, #0]
 800632c:	2600      	movs	r6, #0
 800632e:	69a0      	ldr	r0, [r4, #24]
 8006330:	2800      	cmp	r0, #0
 8006332:	d013      	beq.n	800635c <_scanf_chars+0x58>
 8006334:	2801      	cmp	r0, #1
 8006336:	d108      	bne.n	800634a <_scanf_chars+0x46>
 8006338:	682b      	ldr	r3, [r5, #0]
 800633a:	6962      	ldr	r2, [r4, #20]
 800633c:	781b      	ldrb	r3, [r3, #0]
 800633e:	5cd3      	ldrb	r3, [r2, r3]
 8006340:	2b00      	cmp	r3, #0
 8006342:	d10b      	bne.n	800635c <_scanf_chars+0x58>
 8006344:	2e00      	cmp	r6, #0
 8006346:	d127      	bne.n	8006398 <_scanf_chars+0x94>
 8006348:	bdfe      	pop	{r1, r2, r3, r4, r5, r6, r7, pc}
 800634a:	2802      	cmp	r0, #2
 800634c:	d124      	bne.n	8006398 <_scanf_chars+0x94>
 800634e:	682b      	ldr	r3, [r5, #0]
 8006350:	4a1a      	ldr	r2, [pc, #104]	; (80063bc <_scanf_chars+0xb8>)
 8006352:	781b      	ldrb	r3, [r3, #0]
 8006354:	5cd3      	ldrb	r3, [r2, r3]
 8006356:	2208      	movs	r2, #8
 8006358:	4213      	tst	r3, r2
 800635a:	d11d      	bne.n	8006398 <_scanf_chars+0x94>
 800635c:	2210      	movs	r2, #16
 800635e:	6823      	ldr	r3, [r4, #0]
 8006360:	3601      	adds	r6, #1
 8006362:	4213      	tst	r3, r2
 8006364:	d103      	bne.n	800636e <_scanf_chars+0x6a>
 8006366:	682b      	ldr	r3, [r5, #0]
 8006368:	781b      	ldrb	r3, [r3, #0]
 800636a:	703b      	strb	r3, [r7, #0]
 800636c:	3701      	adds	r7, #1
 800636e:	682a      	ldr	r2, [r5, #0]
 8006370:	686b      	ldr	r3, [r5, #4]
 8006372:	3201      	adds	r2, #1
 8006374:	602a      	str	r2, [r5, #0]
 8006376:	68a2      	ldr	r2, [r4, #8]
 8006378:	3b01      	subs	r3, #1
 800637a:	3a01      	subs	r2, #1
 800637c:	606b      	str	r3, [r5, #4]
 800637e:	60a2      	str	r2, [r4, #8]
 8006380:	2a00      	cmp	r2, #0
 8006382:	d009      	beq.n	8006398 <_scanf_chars+0x94>
 8006384:	2b00      	cmp	r3, #0
 8006386:	dcd2      	bgt.n	800632e <_scanf_chars+0x2a>
 8006388:	23c0      	movs	r3, #192	; 0xc0
 800638a:	005b      	lsls	r3, r3, #1
 800638c:	0029      	movs	r1, r5
 800638e:	58e3      	ldr	r3, [r4, r3]
 8006390:	9801      	ldr	r0, [sp, #4]
 8006392:	4798      	blx	r3
 8006394:	2800      	cmp	r0, #0
 8006396:	d0ca      	beq.n	800632e <_scanf_chars+0x2a>
 8006398:	6822      	ldr	r2, [r4, #0]
 800639a:	2310      	movs	r3, #16
 800639c:	0011      	movs	r1, r2
 800639e:	4019      	ands	r1, r3
 80063a0:	421a      	tst	r2, r3
 80063a2:	d106      	bne.n	80063b2 <_scanf_chars+0xae>
 80063a4:	68e3      	ldr	r3, [r4, #12]
 80063a6:	3301      	adds	r3, #1
 80063a8:	60e3      	str	r3, [r4, #12]
 80063aa:	69a3      	ldr	r3, [r4, #24]
 80063ac:	2b00      	cmp	r3, #0
 80063ae:	d000      	beq.n	80063b2 <_scanf_chars+0xae>
 80063b0:	7039      	strb	r1, [r7, #0]
 80063b2:	6923      	ldr	r3, [r4, #16]
 80063b4:	2000      	movs	r0, #0
 80063b6:	199e      	adds	r6, r3, r6
 80063b8:	6126      	str	r6, [r4, #16]
 80063ba:	e7c5      	b.n	8006348 <_scanf_chars+0x44>
 80063bc:	08006cb3 	.word	0x08006cb3

080063c0 <_scanf_i>:
 80063c0:	b5f0      	push	{r4, r5, r6, r7, lr}
 80063c2:	000c      	movs	r4, r1
 80063c4:	b08d      	sub	sp, #52	; 0x34
 80063c6:	9302      	str	r3, [sp, #8]
 80063c8:	4b79      	ldr	r3, [pc, #484]	; (80065b0 <_scanf_i+0x1f0>)
 80063ca:	0016      	movs	r6, r2
 80063cc:	9005      	str	r0, [sp, #20]
 80063ce:	aa09      	add	r2, sp, #36	; 0x24
 80063d0:	cb23      	ldmia	r3!, {r0, r1, r5}
 80063d2:	c223      	stmia	r2!, {r0, r1, r5}
 80063d4:	4b77      	ldr	r3, [pc, #476]	; (80065b4 <_scanf_i+0x1f4>)
 80063d6:	9306      	str	r3, [sp, #24]
 80063d8:	69a3      	ldr	r3, [r4, #24]
 80063da:	2b03      	cmp	r3, #3
 80063dc:	d001      	beq.n	80063e2 <_scanf_i+0x22>
 80063de:	4b76      	ldr	r3, [pc, #472]	; (80065b8 <_scanf_i+0x1f8>)
 80063e0:	9306      	str	r3, [sp, #24]
 80063e2:	22ae      	movs	r2, #174	; 0xae
 80063e4:	2000      	movs	r0, #0
 80063e6:	68a3      	ldr	r3, [r4, #8]
 80063e8:	0052      	lsls	r2, r2, #1
 80063ea:	1e59      	subs	r1, r3, #1
 80063ec:	9004      	str	r0, [sp, #16]
 80063ee:	4291      	cmp	r1, r2
 80063f0:	d905      	bls.n	80063fe <_scanf_i+0x3e>
 80063f2:	3b5e      	subs	r3, #94	; 0x5e
 80063f4:	3bff      	subs	r3, #255	; 0xff
 80063f6:	9304      	str	r3, [sp, #16]
 80063f8:	235e      	movs	r3, #94	; 0x5e
 80063fa:	33ff      	adds	r3, #255	; 0xff
 80063fc:	60a3      	str	r3, [r4, #8]
 80063fe:	0023      	movs	r3, r4
 8006400:	331c      	adds	r3, #28
 8006402:	9301      	str	r3, [sp, #4]
 8006404:	23d0      	movs	r3, #208	; 0xd0
 8006406:	2700      	movs	r7, #0
 8006408:	6822      	ldr	r2, [r4, #0]
 800640a:	011b      	lsls	r3, r3, #4
 800640c:	4313      	orrs	r3, r2
 800640e:	6023      	str	r3, [r4, #0]
 8006410:	9b01      	ldr	r3, [sp, #4]
 8006412:	9303      	str	r3, [sp, #12]
 8006414:	6833      	ldr	r3, [r6, #0]
 8006416:	a809      	add	r0, sp, #36	; 0x24
 8006418:	7819      	ldrb	r1, [r3, #0]
 800641a:	00bb      	lsls	r3, r7, #2
 800641c:	2202      	movs	r2, #2
 800641e:	5818      	ldr	r0, [r3, r0]
 8006420:	f000 fa70 	bl	8006904 <memchr>
 8006424:	2800      	cmp	r0, #0
 8006426:	d02b      	beq.n	8006480 <_scanf_i+0xc0>
 8006428:	2f01      	cmp	r7, #1
 800642a:	d162      	bne.n	80064f2 <_scanf_i+0x132>
 800642c:	6863      	ldr	r3, [r4, #4]
 800642e:	2b00      	cmp	r3, #0
 8006430:	d106      	bne.n	8006440 <_scanf_i+0x80>
 8006432:	3308      	adds	r3, #8
 8006434:	6822      	ldr	r2, [r4, #0]
 8006436:	6063      	str	r3, [r4, #4]
 8006438:	33f9      	adds	r3, #249	; 0xf9
 800643a:	33ff      	adds	r3, #255	; 0xff
 800643c:	4313      	orrs	r3, r2
 800643e:	6023      	str	r3, [r4, #0]
 8006440:	4b5e      	ldr	r3, [pc, #376]	; (80065bc <_scanf_i+0x1fc>)
 8006442:	6822      	ldr	r2, [r4, #0]
 8006444:	4013      	ands	r3, r2
 8006446:	6023      	str	r3, [r4, #0]
 8006448:	68a3      	ldr	r3, [r4, #8]
 800644a:	1e5a      	subs	r2, r3, #1
 800644c:	60a2      	str	r2, [r4, #8]
 800644e:	2b00      	cmp	r3, #0
 8006450:	d016      	beq.n	8006480 <_scanf_i+0xc0>
 8006452:	6833      	ldr	r3, [r6, #0]
 8006454:	1c5a      	adds	r2, r3, #1
 8006456:	6032      	str	r2, [r6, #0]
 8006458:	781b      	ldrb	r3, [r3, #0]
 800645a:	9a03      	ldr	r2, [sp, #12]
 800645c:	7013      	strb	r3, [r2, #0]
 800645e:	6873      	ldr	r3, [r6, #4]
 8006460:	1c55      	adds	r5, r2, #1
 8006462:	3b01      	subs	r3, #1
 8006464:	6073      	str	r3, [r6, #4]
 8006466:	9503      	str	r5, [sp, #12]
 8006468:	2b00      	cmp	r3, #0
 800646a:	dc09      	bgt.n	8006480 <_scanf_i+0xc0>
 800646c:	23c0      	movs	r3, #192	; 0xc0
 800646e:	005b      	lsls	r3, r3, #1
 8006470:	58e3      	ldr	r3, [r4, r3]
 8006472:	0031      	movs	r1, r6
 8006474:	9805      	ldr	r0, [sp, #20]
 8006476:	9307      	str	r3, [sp, #28]
 8006478:	4798      	blx	r3
 800647a:	2800      	cmp	r0, #0
 800647c:	d000      	beq.n	8006480 <_scanf_i+0xc0>
 800647e:	e081      	b.n	8006584 <_scanf_i+0x1c4>
 8006480:	3701      	adds	r7, #1
 8006482:	2f03      	cmp	r7, #3
 8006484:	d1c6      	bne.n	8006414 <_scanf_i+0x54>
 8006486:	6863      	ldr	r3, [r4, #4]
 8006488:	2b00      	cmp	r3, #0
 800648a:	d101      	bne.n	8006490 <_scanf_i+0xd0>
 800648c:	330a      	adds	r3, #10
 800648e:	6063      	str	r3, [r4, #4]
 8006490:	2110      	movs	r1, #16
 8006492:	2700      	movs	r7, #0
 8006494:	6863      	ldr	r3, [r4, #4]
 8006496:	6960      	ldr	r0, [r4, #20]
 8006498:	1ac9      	subs	r1, r1, r3
 800649a:	4b49      	ldr	r3, [pc, #292]	; (80065c0 <_scanf_i+0x200>)
 800649c:	18c9      	adds	r1, r1, r3
 800649e:	f000 f893 	bl	80065c8 <__sccl>
 80064a2:	9d03      	ldr	r5, [sp, #12]
 80064a4:	68a3      	ldr	r3, [r4, #8]
 80064a6:	6822      	ldr	r2, [r4, #0]
 80064a8:	9303      	str	r3, [sp, #12]
 80064aa:	2b00      	cmp	r3, #0
 80064ac:	d041      	beq.n	8006532 <_scanf_i+0x172>
 80064ae:	6831      	ldr	r1, [r6, #0]
 80064b0:	6963      	ldr	r3, [r4, #20]
 80064b2:	7808      	ldrb	r0, [r1, #0]
 80064b4:	5c1b      	ldrb	r3, [r3, r0]
 80064b6:	2b00      	cmp	r3, #0
 80064b8:	d03b      	beq.n	8006532 <_scanf_i+0x172>
 80064ba:	2830      	cmp	r0, #48	; 0x30
 80064bc:	d129      	bne.n	8006512 <_scanf_i+0x152>
 80064be:	2380      	movs	r3, #128	; 0x80
 80064c0:	011b      	lsls	r3, r3, #4
 80064c2:	421a      	tst	r2, r3
 80064c4:	d025      	beq.n	8006512 <_scanf_i+0x152>
 80064c6:	9b04      	ldr	r3, [sp, #16]
 80064c8:	3701      	adds	r7, #1
 80064ca:	2b00      	cmp	r3, #0
 80064cc:	d005      	beq.n	80064da <_scanf_i+0x11a>
 80064ce:	001a      	movs	r2, r3
 80064d0:	9b03      	ldr	r3, [sp, #12]
 80064d2:	3a01      	subs	r2, #1
 80064d4:	3301      	adds	r3, #1
 80064d6:	9204      	str	r2, [sp, #16]
 80064d8:	60a3      	str	r3, [r4, #8]
 80064da:	6873      	ldr	r3, [r6, #4]
 80064dc:	3b01      	subs	r3, #1
 80064de:	6073      	str	r3, [r6, #4]
 80064e0:	2b00      	cmp	r3, #0
 80064e2:	dd1d      	ble.n	8006520 <_scanf_i+0x160>
 80064e4:	6833      	ldr	r3, [r6, #0]
 80064e6:	3301      	adds	r3, #1
 80064e8:	6033      	str	r3, [r6, #0]
 80064ea:	68a3      	ldr	r3, [r4, #8]
 80064ec:	3b01      	subs	r3, #1
 80064ee:	60a3      	str	r3, [r4, #8]
 80064f0:	e7d8      	b.n	80064a4 <_scanf_i+0xe4>
 80064f2:	2f02      	cmp	r7, #2
 80064f4:	d1a8      	bne.n	8006448 <_scanf_i+0x88>
 80064f6:	21c0      	movs	r1, #192	; 0xc0
 80064f8:	2380      	movs	r3, #128	; 0x80
 80064fa:	6822      	ldr	r2, [r4, #0]
 80064fc:	00c9      	lsls	r1, r1, #3
 80064fe:	4011      	ands	r1, r2
 8006500:	009b      	lsls	r3, r3, #2
 8006502:	4299      	cmp	r1, r3
 8006504:	d1bf      	bne.n	8006486 <_scanf_i+0xc6>
 8006506:	3bf1      	subs	r3, #241	; 0xf1
 8006508:	3bff      	subs	r3, #255	; 0xff
 800650a:	6063      	str	r3, [r4, #4]
 800650c:	33f0      	adds	r3, #240	; 0xf0
 800650e:	4313      	orrs	r3, r2
 8006510:	e799      	b.n	8006446 <_scanf_i+0x86>
 8006512:	4b2c      	ldr	r3, [pc, #176]	; (80065c4 <_scanf_i+0x204>)
 8006514:	4013      	ands	r3, r2
 8006516:	6023      	str	r3, [r4, #0]
 8006518:	780b      	ldrb	r3, [r1, #0]
 800651a:	702b      	strb	r3, [r5, #0]
 800651c:	3501      	adds	r5, #1
 800651e:	e7dc      	b.n	80064da <_scanf_i+0x11a>
 8006520:	23c0      	movs	r3, #192	; 0xc0
 8006522:	005b      	lsls	r3, r3, #1
 8006524:	58e3      	ldr	r3, [r4, r3]
 8006526:	0031      	movs	r1, r6
 8006528:	9805      	ldr	r0, [sp, #20]
 800652a:	9303      	str	r3, [sp, #12]
 800652c:	4798      	blx	r3
 800652e:	2800      	cmp	r0, #0
 8006530:	d0db      	beq.n	80064ea <_scanf_i+0x12a>
 8006532:	6823      	ldr	r3, [r4, #0]
 8006534:	05db      	lsls	r3, r3, #23
 8006536:	d50e      	bpl.n	8006556 <_scanf_i+0x196>
 8006538:	9b01      	ldr	r3, [sp, #4]
 800653a:	429d      	cmp	r5, r3
 800653c:	d907      	bls.n	800654e <_scanf_i+0x18e>
 800653e:	23be      	movs	r3, #190	; 0xbe
 8006540:	3d01      	subs	r5, #1
 8006542:	005b      	lsls	r3, r3, #1
 8006544:	0032      	movs	r2, r6
 8006546:	7829      	ldrb	r1, [r5, #0]
 8006548:	58e3      	ldr	r3, [r4, r3]
 800654a:	9805      	ldr	r0, [sp, #20]
 800654c:	4798      	blx	r3
 800654e:	9b01      	ldr	r3, [sp, #4]
 8006550:	2001      	movs	r0, #1
 8006552:	429d      	cmp	r5, r3
 8006554:	d029      	beq.n	80065aa <_scanf_i+0x1ea>
 8006556:	6821      	ldr	r1, [r4, #0]
 8006558:	2310      	movs	r3, #16
 800655a:	000a      	movs	r2, r1
 800655c:	401a      	ands	r2, r3
 800655e:	4219      	tst	r1, r3
 8006560:	d11c      	bne.n	800659c <_scanf_i+0x1dc>
 8006562:	702a      	strb	r2, [r5, #0]
 8006564:	6863      	ldr	r3, [r4, #4]
 8006566:	9901      	ldr	r1, [sp, #4]
 8006568:	9805      	ldr	r0, [sp, #20]
 800656a:	9e06      	ldr	r6, [sp, #24]
 800656c:	47b0      	blx	r6
 800656e:	9b02      	ldr	r3, [sp, #8]
 8006570:	6821      	ldr	r1, [r4, #0]
 8006572:	681b      	ldr	r3, [r3, #0]
 8006574:	068a      	lsls	r2, r1, #26
 8006576:	d507      	bpl.n	8006588 <_scanf_i+0x1c8>
 8006578:	1d1a      	adds	r2, r3, #4
 800657a:	9902      	ldr	r1, [sp, #8]
 800657c:	600a      	str	r2, [r1, #0]
 800657e:	681b      	ldr	r3, [r3, #0]
 8006580:	6018      	str	r0, [r3, #0]
 8006582:	e008      	b.n	8006596 <_scanf_i+0x1d6>
 8006584:	2700      	movs	r7, #0
 8006586:	e7d4      	b.n	8006532 <_scanf_i+0x172>
 8006588:	1d1a      	adds	r2, r3, #4
 800658a:	07ce      	lsls	r6, r1, #31
 800658c:	d5f5      	bpl.n	800657a <_scanf_i+0x1ba>
 800658e:	9902      	ldr	r1, [sp, #8]
 8006590:	600a      	str	r2, [r1, #0]
 8006592:	681b      	ldr	r3, [r3, #0]
 8006594:	8018      	strh	r0, [r3, #0]
 8006596:	68e3      	ldr	r3, [r4, #12]
 8006598:	3301      	adds	r3, #1
 800659a:	60e3      	str	r3, [r4, #12]
 800659c:	2000      	movs	r0, #0
 800659e:	9b01      	ldr	r3, [sp, #4]
 80065a0:	1aed      	subs	r5, r5, r3
 80065a2:	6923      	ldr	r3, [r4, #16]
 80065a4:	19ef      	adds	r7, r5, r7
 80065a6:	19df      	adds	r7, r3, r7
 80065a8:	6127      	str	r7, [r4, #16]
 80065aa:	b00d      	add	sp, #52	; 0x34
 80065ac:	bdf0      	pop	{r4, r5, r6, r7, pc}
 80065ae:	46c0      	nop			; (mov r8, r8)
 80065b0:	08006b90 	.word	0x08006b90
 80065b4:	0800675d 	.word	0x0800675d
 80065b8:	0800687d 	.word	0x0800687d
 80065bc:	fffffaff 	.word	0xfffffaff
 80065c0:	08006ca0 	.word	0x08006ca0
 80065c4:	fffff6ff 	.word	0xfffff6ff

080065c8 <__sccl>:
 80065c8:	b5f0      	push	{r4, r5, r6, r7, lr}
 80065ca:	780b      	ldrb	r3, [r1, #0]
 80065cc:	0004      	movs	r4, r0
 80065ce:	2b5e      	cmp	r3, #94	; 0x5e
 80065d0:	d00c      	beq.n	80065ec <__sccl+0x24>
 80065d2:	1c48      	adds	r0, r1, #1
 80065d4:	2100      	movs	r1, #0
 80065d6:	0022      	movs	r2, r4
 80065d8:	1c65      	adds	r5, r4, #1
 80065da:	35ff      	adds	r5, #255	; 0xff
 80065dc:	7011      	strb	r1, [r2, #0]
 80065de:	3201      	adds	r2, #1
 80065e0:	42aa      	cmp	r2, r5
 80065e2:	d1fb      	bne.n	80065dc <__sccl+0x14>
 80065e4:	2b00      	cmp	r3, #0
 80065e6:	d105      	bne.n	80065f4 <__sccl+0x2c>
 80065e8:	3801      	subs	r0, #1
 80065ea:	bdf0      	pop	{r4, r5, r6, r7, pc}
 80065ec:	784b      	ldrb	r3, [r1, #1]
 80065ee:	1c88      	adds	r0, r1, #2
 80065f0:	2101      	movs	r1, #1
 80065f2:	e7f0      	b.n	80065d6 <__sccl+0xe>
 80065f4:	2201      	movs	r2, #1
 80065f6:	262d      	movs	r6, #45	; 0x2d
 80065f8:	4051      	eors	r1, r2
 80065fa:	0002      	movs	r2, r0
 80065fc:	54e1      	strb	r1, [r4, r3]
 80065fe:	7815      	ldrb	r5, [r2, #0]
 8006600:	1c50      	adds	r0, r2, #1
 8006602:	2d2d      	cmp	r5, #45	; 0x2d
 8006604:	d009      	beq.n	800661a <__sccl+0x52>
 8006606:	2d5d      	cmp	r5, #93	; 0x5d
 8006608:	d0ef      	beq.n	80065ea <__sccl+0x22>
 800660a:	2d00      	cmp	r5, #0
 800660c:	d101      	bne.n	8006612 <__sccl+0x4a>
 800660e:	0010      	movs	r0, r2
 8006610:	e7eb      	b.n	80065ea <__sccl+0x22>
 8006612:	002b      	movs	r3, r5
 8006614:	e7f1      	b.n	80065fa <__sccl+0x32>
 8006616:	0033      	movs	r3, r6
 8006618:	e7ef      	b.n	80065fa <__sccl+0x32>
 800661a:	7855      	ldrb	r5, [r2, #1]
 800661c:	2d5d      	cmp	r5, #93	; 0x5d
 800661e:	d0fa      	beq.n	8006616 <__sccl+0x4e>
 8006620:	42ab      	cmp	r3, r5
 8006622:	dcf8      	bgt.n	8006616 <__sccl+0x4e>
 8006624:	0018      	movs	r0, r3
 8006626:	3202      	adds	r2, #2
 8006628:	3001      	adds	r0, #1
 800662a:	5421      	strb	r1, [r4, r0]
 800662c:	4285      	cmp	r5, r0
 800662e:	dcfb      	bgt.n	8006628 <__sccl+0x60>
 8006630:	2000      	movs	r0, #0
 8006632:	1c5f      	adds	r7, r3, #1
 8006634:	42ab      	cmp	r3, r5
 8006636:	da01      	bge.n	800663c <__sccl+0x74>
 8006638:	1ae8      	subs	r0, r5, r3
 800663a:	3801      	subs	r0, #1
 800663c:	183b      	adds	r3, r7, r0
 800663e:	e7de      	b.n	80065fe <__sccl+0x36>

08006640 <_strtol_l.isra.0>:
 8006640:	b5f0      	push	{r4, r5, r6, r7, lr}
 8006642:	b087      	sub	sp, #28
 8006644:	001e      	movs	r6, r3
 8006646:	9005      	str	r0, [sp, #20]
 8006648:	9101      	str	r1, [sp, #4]
 800664a:	9202      	str	r2, [sp, #8]
 800664c:	2b01      	cmp	r3, #1
 800664e:	d045      	beq.n	80066dc <_strtol_l.isra.0+0x9c>
 8006650:	0008      	movs	r0, r1
 8006652:	2b24      	cmp	r3, #36	; 0x24
 8006654:	d842      	bhi.n	80066dc <_strtol_l.isra.0+0x9c>
 8006656:	4b3f      	ldr	r3, [pc, #252]	; (8006754 <_strtol_l.isra.0+0x114>)
 8006658:	2208      	movs	r2, #8
 800665a:	469c      	mov	ip, r3
 800665c:	0003      	movs	r3, r0
 800665e:	4661      	mov	r1, ip
 8006660:	781c      	ldrb	r4, [r3, #0]
 8006662:	1c45      	adds	r5, r0, #1
 8006664:	5d09      	ldrb	r1, [r1, r4]
 8006666:	0028      	movs	r0, r5
 8006668:	000f      	movs	r7, r1
 800666a:	4017      	ands	r7, r2
 800666c:	4211      	tst	r1, r2
 800666e:	d1f5      	bne.n	800665c <_strtol_l.isra.0+0x1c>
 8006670:	2c2d      	cmp	r4, #45	; 0x2d
 8006672:	d13a      	bne.n	80066ea <_strtol_l.isra.0+0xaa>
 8006674:	2701      	movs	r7, #1
 8006676:	782c      	ldrb	r4, [r5, #0]
 8006678:	1c9d      	adds	r5, r3, #2
 800667a:	2e00      	cmp	r6, #0
 800667c:	d065      	beq.n	800674a <_strtol_l.isra.0+0x10a>
 800667e:	2e10      	cmp	r6, #16
 8006680:	d109      	bne.n	8006696 <_strtol_l.isra.0+0x56>
 8006682:	2c30      	cmp	r4, #48	; 0x30
 8006684:	d107      	bne.n	8006696 <_strtol_l.isra.0+0x56>
 8006686:	2220      	movs	r2, #32
 8006688:	782b      	ldrb	r3, [r5, #0]
 800668a:	4393      	bics	r3, r2
 800668c:	2b58      	cmp	r3, #88	; 0x58
 800668e:	d157      	bne.n	8006740 <_strtol_l.isra.0+0x100>
 8006690:	2610      	movs	r6, #16
 8006692:	786c      	ldrb	r4, [r5, #1]
 8006694:	3502      	adds	r5, #2
 8006696:	4b30      	ldr	r3, [pc, #192]	; (8006758 <_strtol_l.isra.0+0x118>)
 8006698:	0031      	movs	r1, r6
 800669a:	18fb      	adds	r3, r7, r3
 800669c:	0018      	movs	r0, r3
 800669e:	9303      	str	r3, [sp, #12]
 80066a0:	f7f9 fdca 	bl	8000238 <__aeabi_uidivmod>
 80066a4:	2300      	movs	r3, #0
 80066a6:	2201      	movs	r2, #1
 80066a8:	4684      	mov	ip, r0
 80066aa:	0018      	movs	r0, r3
 80066ac:	9104      	str	r1, [sp, #16]
 80066ae:	4252      	negs	r2, r2
 80066b0:	0021      	movs	r1, r4
 80066b2:	3930      	subs	r1, #48	; 0x30
 80066b4:	2909      	cmp	r1, #9
 80066b6:	d81d      	bhi.n	80066f4 <_strtol_l.isra.0+0xb4>
 80066b8:	000c      	movs	r4, r1
 80066ba:	42a6      	cmp	r6, r4
 80066bc:	dd28      	ble.n	8006710 <_strtol_l.isra.0+0xd0>
 80066be:	2b00      	cmp	r3, #0
 80066c0:	db24      	blt.n	800670c <_strtol_l.isra.0+0xcc>
 80066c2:	0013      	movs	r3, r2
 80066c4:	4584      	cmp	ip, r0
 80066c6:	d306      	bcc.n	80066d6 <_strtol_l.isra.0+0x96>
 80066c8:	d102      	bne.n	80066d0 <_strtol_l.isra.0+0x90>
 80066ca:	9904      	ldr	r1, [sp, #16]
 80066cc:	42a1      	cmp	r1, r4
 80066ce:	db02      	blt.n	80066d6 <_strtol_l.isra.0+0x96>
 80066d0:	2301      	movs	r3, #1
 80066d2:	4370      	muls	r0, r6
 80066d4:	1820      	adds	r0, r4, r0
 80066d6:	782c      	ldrb	r4, [r5, #0]
 80066d8:	3501      	adds	r5, #1
 80066da:	e7e9      	b.n	80066b0 <_strtol_l.isra.0+0x70>
 80066dc:	f7ff f8c6 	bl	800586c <__errno>
 80066e0:	2316      	movs	r3, #22
 80066e2:	6003      	str	r3, [r0, #0]
 80066e4:	2000      	movs	r0, #0
 80066e6:	b007      	add	sp, #28
 80066e8:	bdf0      	pop	{r4, r5, r6, r7, pc}
 80066ea:	2c2b      	cmp	r4, #43	; 0x2b
 80066ec:	d1c5      	bne.n	800667a <_strtol_l.isra.0+0x3a>
 80066ee:	782c      	ldrb	r4, [r5, #0]
 80066f0:	1c9d      	adds	r5, r3, #2
 80066f2:	e7c2      	b.n	800667a <_strtol_l.isra.0+0x3a>
 80066f4:	0021      	movs	r1, r4
 80066f6:	3941      	subs	r1, #65	; 0x41
 80066f8:	2919      	cmp	r1, #25
 80066fa:	d801      	bhi.n	8006700 <_strtol_l.isra.0+0xc0>
 80066fc:	3c37      	subs	r4, #55	; 0x37
 80066fe:	e7dc      	b.n	80066ba <_strtol_l.isra.0+0x7a>
 8006700:	0021      	movs	r1, r4
 8006702:	3961      	subs	r1, #97	; 0x61
 8006704:	2919      	cmp	r1, #25
 8006706:	d803      	bhi.n	8006710 <_strtol_l.isra.0+0xd0>
 8006708:	3c57      	subs	r4, #87	; 0x57
 800670a:	e7d6      	b.n	80066ba <_strtol_l.isra.0+0x7a>
 800670c:	0013      	movs	r3, r2
 800670e:	e7e2      	b.n	80066d6 <_strtol_l.isra.0+0x96>
 8006710:	2b00      	cmp	r3, #0
 8006712:	da09      	bge.n	8006728 <_strtol_l.isra.0+0xe8>
 8006714:	2322      	movs	r3, #34	; 0x22
 8006716:	9a05      	ldr	r2, [sp, #20]
 8006718:	9803      	ldr	r0, [sp, #12]
 800671a:	6013      	str	r3, [r2, #0]
 800671c:	9b02      	ldr	r3, [sp, #8]
 800671e:	2b00      	cmp	r3, #0
 8006720:	d0e1      	beq.n	80066e6 <_strtol_l.isra.0+0xa6>
 8006722:	1e6b      	subs	r3, r5, #1
 8006724:	9301      	str	r3, [sp, #4]
 8006726:	e007      	b.n	8006738 <_strtol_l.isra.0+0xf8>
 8006728:	2f00      	cmp	r7, #0
 800672a:	d000      	beq.n	800672e <_strtol_l.isra.0+0xee>
 800672c:	4240      	negs	r0, r0
 800672e:	9a02      	ldr	r2, [sp, #8]
 8006730:	2a00      	cmp	r2, #0
 8006732:	d0d8      	beq.n	80066e6 <_strtol_l.isra.0+0xa6>
 8006734:	2b00      	cmp	r3, #0
 8006736:	d1f4      	bne.n	8006722 <_strtol_l.isra.0+0xe2>
 8006738:	9b02      	ldr	r3, [sp, #8]
 800673a:	9a01      	ldr	r2, [sp, #4]
 800673c:	601a      	str	r2, [r3, #0]
 800673e:	e7d2      	b.n	80066e6 <_strtol_l.isra.0+0xa6>
 8006740:	2430      	movs	r4, #48	; 0x30
 8006742:	2e00      	cmp	r6, #0
 8006744:	d1a7      	bne.n	8006696 <_strtol_l.isra.0+0x56>
 8006746:	3608      	adds	r6, #8
 8006748:	e7a5      	b.n	8006696 <_strtol_l.isra.0+0x56>
 800674a:	2c30      	cmp	r4, #48	; 0x30
 800674c:	d09b      	beq.n	8006686 <_strtol_l.isra.0+0x46>
 800674e:	260a      	movs	r6, #10
 8006750:	e7a1      	b.n	8006696 <_strtol_l.isra.0+0x56>
 8006752:	46c0      	nop			; (mov r8, r8)
 8006754:	08006cb3 	.word	0x08006cb3
 8006758:	7fffffff 	.word	0x7fffffff

0800675c <_strtol_r>:
 800675c:	b510      	push	{r4, lr}
 800675e:	f7ff ff6f 	bl	8006640 <_strtol_l.isra.0>
 8006762:	bd10      	pop	{r4, pc}

08006764 <_strtoul_l.isra.0>:
 8006764:	b5f0      	push	{r4, r5, r6, r7, lr}
 8006766:	001e      	movs	r6, r3
 8006768:	4b43      	ldr	r3, [pc, #268]	; (8006878 <_strtoul_l.isra.0+0x114>)
 800676a:	b087      	sub	sp, #28
 800676c:	000f      	movs	r7, r1
 800676e:	9101      	str	r1, [sp, #4]
 8006770:	469c      	mov	ip, r3
 8006772:	2108      	movs	r1, #8
 8006774:	9005      	str	r0, [sp, #20]
 8006776:	9202      	str	r2, [sp, #8]
 8006778:	003b      	movs	r3, r7
 800677a:	4662      	mov	r2, ip
 800677c:	781c      	ldrb	r4, [r3, #0]
 800677e:	1c7d      	adds	r5, r7, #1
 8006780:	5d10      	ldrb	r0, [r2, r4]
 8006782:	002f      	movs	r7, r5
 8006784:	0002      	movs	r2, r0
 8006786:	400a      	ands	r2, r1
 8006788:	4208      	tst	r0, r1
 800678a:	d1f5      	bne.n	8006778 <_strtoul_l.isra.0+0x14>
 800678c:	2c2d      	cmp	r4, #45	; 0x2d
 800678e:	d13a      	bne.n	8006806 <_strtoul_l.isra.0+0xa2>
 8006790:	2701      	movs	r7, #1
 8006792:	782c      	ldrb	r4, [r5, #0]
 8006794:	1c9d      	adds	r5, r3, #2
 8006796:	2e00      	cmp	r6, #0
 8006798:	d069      	beq.n	800686e <_strtoul_l.isra.0+0x10a>
 800679a:	2e10      	cmp	r6, #16
 800679c:	d109      	bne.n	80067b2 <_strtoul_l.isra.0+0x4e>
 800679e:	2c30      	cmp	r4, #48	; 0x30
 80067a0:	d107      	bne.n	80067b2 <_strtoul_l.isra.0+0x4e>
 80067a2:	2220      	movs	r2, #32
 80067a4:	782b      	ldrb	r3, [r5, #0]
 80067a6:	4393      	bics	r3, r2
 80067a8:	2b58      	cmp	r3, #88	; 0x58
 80067aa:	d15b      	bne.n	8006864 <_strtoul_l.isra.0+0x100>
 80067ac:	2610      	movs	r6, #16
 80067ae:	786c      	ldrb	r4, [r5, #1]
 80067b0:	3502      	adds	r5, #2
 80067b2:	2001      	movs	r0, #1
 80067b4:	0031      	movs	r1, r6
 80067b6:	4240      	negs	r0, r0
 80067b8:	f7f9 fcb8 	bl	800012c <__udivsi3>
 80067bc:	9003      	str	r0, [sp, #12]
 80067be:	2001      	movs	r0, #1
 80067c0:	0031      	movs	r1, r6
 80067c2:	4240      	negs	r0, r0
 80067c4:	f7f9 fd38 	bl	8000238 <__aeabi_uidivmod>
 80067c8:	2300      	movs	r3, #0
 80067ca:	9104      	str	r1, [sp, #16]
 80067cc:	2101      	movs	r1, #1
 80067ce:	2201      	movs	r2, #1
 80067d0:	0018      	movs	r0, r3
 80067d2:	468c      	mov	ip, r1
 80067d4:	4252      	negs	r2, r2
 80067d6:	0021      	movs	r1, r4
 80067d8:	3930      	subs	r1, #48	; 0x30
 80067da:	2909      	cmp	r1, #9
 80067dc:	d81a      	bhi.n	8006814 <_strtoul_l.isra.0+0xb0>
 80067de:	000c      	movs	r4, r1
 80067e0:	42a6      	cmp	r6, r4
 80067e2:	dd25      	ble.n	8006830 <_strtoul_l.isra.0+0xcc>
 80067e4:	2b00      	cmp	r3, #0
 80067e6:	db21      	blt.n	800682c <_strtoul_l.isra.0+0xc8>
 80067e8:	9903      	ldr	r1, [sp, #12]
 80067ea:	0013      	movs	r3, r2
 80067ec:	4281      	cmp	r1, r0
 80067ee:	d307      	bcc.n	8006800 <_strtoul_l.isra.0+0x9c>
 80067f0:	d103      	bne.n	80067fa <_strtoul_l.isra.0+0x96>
 80067f2:	9904      	ldr	r1, [sp, #16]
 80067f4:	0013      	movs	r3, r2
 80067f6:	42a1      	cmp	r1, r4
 80067f8:	db02      	blt.n	8006800 <_strtoul_l.isra.0+0x9c>
 80067fa:	4663      	mov	r3, ip
 80067fc:	4370      	muls	r0, r6
 80067fe:	1820      	adds	r0, r4, r0
 8006800:	782c      	ldrb	r4, [r5, #0]
 8006802:	3501      	adds	r5, #1
 8006804:	e7e7      	b.n	80067d6 <_strtoul_l.isra.0+0x72>
 8006806:	2c2b      	cmp	r4, #43	; 0x2b
 8006808:	d001      	beq.n	800680e <_strtoul_l.isra.0+0xaa>
 800680a:	0017      	movs	r7, r2
 800680c:	e7c3      	b.n	8006796 <_strtoul_l.isra.0+0x32>
 800680e:	782c      	ldrb	r4, [r5, #0]
 8006810:	1c9d      	adds	r5, r3, #2
 8006812:	e7fa      	b.n	800680a <_strtoul_l.isra.0+0xa6>
 8006814:	0021      	movs	r1, r4
 8006816:	3941      	subs	r1, #65	; 0x41
 8006818:	2919      	cmp	r1, #25
 800681a:	d801      	bhi.n	8006820 <_strtoul_l.isra.0+0xbc>
 800681c:	3c37      	subs	r4, #55	; 0x37
 800681e:	e7df      	b.n	80067e0 <_strtoul_l.isra.0+0x7c>
 8006820:	0021      	movs	r1, r4
 8006822:	3961      	subs	r1, #97	; 0x61
 8006824:	2919      	cmp	r1, #25
 8006826:	d803      	bhi.n	8006830 <_strtoul_l.isra.0+0xcc>
 8006828:	3c57      	subs	r4, #87	; 0x57
 800682a:	e7d9      	b.n	80067e0 <_strtoul_l.isra.0+0x7c>
 800682c:	0013      	movs	r3, r2
 800682e:	e7e7      	b.n	8006800 <_strtoul_l.isra.0+0x9c>
 8006830:	2b00      	cmp	r3, #0
 8006832:	da09      	bge.n	8006848 <_strtoul_l.isra.0+0xe4>
 8006834:	2322      	movs	r3, #34	; 0x22
 8006836:	2001      	movs	r0, #1
 8006838:	9a05      	ldr	r2, [sp, #20]
 800683a:	4240      	negs	r0, r0
 800683c:	6013      	str	r3, [r2, #0]
 800683e:	9b02      	ldr	r3, [sp, #8]
 8006840:	2b00      	cmp	r3, #0
 8006842:	d109      	bne.n	8006858 <_strtoul_l.isra.0+0xf4>
 8006844:	b007      	add	sp, #28
 8006846:	bdf0      	pop	{r4, r5, r6, r7, pc}
 8006848:	2f00      	cmp	r7, #0
 800684a:	d000      	beq.n	800684e <_strtoul_l.isra.0+0xea>
 800684c:	4240      	negs	r0, r0
 800684e:	9a02      	ldr	r2, [sp, #8]
 8006850:	2a00      	cmp	r2, #0
 8006852:	d0f7      	beq.n	8006844 <_strtoul_l.isra.0+0xe0>
 8006854:	2b00      	cmp	r3, #0
 8006856:	d001      	beq.n	800685c <_strtoul_l.isra.0+0xf8>
 8006858:	1e6b      	subs	r3, r5, #1
 800685a:	9301      	str	r3, [sp, #4]
 800685c:	9b02      	ldr	r3, [sp, #8]
 800685e:	9a01      	ldr	r2, [sp, #4]
 8006860:	601a      	str	r2, [r3, #0]
 8006862:	e7ef      	b.n	8006844 <_strtoul_l.isra.0+0xe0>
 8006864:	2430      	movs	r4, #48	; 0x30
 8006866:	2e00      	cmp	r6, #0
 8006868:	d1a3      	bne.n	80067b2 <_strtoul_l.isra.0+0x4e>
 800686a:	3608      	adds	r6, #8
 800686c:	e7a1      	b.n	80067b2 <_strtoul_l.isra.0+0x4e>
 800686e:	2c30      	cmp	r4, #48	; 0x30
 8006870:	d097      	beq.n	80067a2 <_strtoul_l.isra.0+0x3e>
 8006872:	260a      	movs	r6, #10
 8006874:	e79d      	b.n	80067b2 <_strtoul_l.isra.0+0x4e>
 8006876:	46c0      	nop			; (mov r8, r8)
 8006878:	08006cb3 	.word	0x08006cb3

0800687c <_strtoul_r>:
 800687c:	b510      	push	{r4, lr}
 800687e:	f7ff ff71 	bl	8006764 <_strtoul_l.isra.0>
 8006882:	bd10      	pop	{r4, pc}

08006884 <__submore>:
 8006884:	000b      	movs	r3, r1
 8006886:	b5f7      	push	{r0, r1, r2, r4, r5, r6, r7, lr}
 8006888:	6b4d      	ldr	r5, [r1, #52]	; 0x34
 800688a:	3344      	adds	r3, #68	; 0x44
 800688c:	000c      	movs	r4, r1
 800688e:	429d      	cmp	r5, r3
 8006890:	d11c      	bne.n	80068cc <__submore+0x48>
 8006892:	2680      	movs	r6, #128	; 0x80
 8006894:	00f6      	lsls	r6, r6, #3
 8006896:	0031      	movs	r1, r6
 8006898:	f000 f89c 	bl	80069d4 <_malloc_r>
 800689c:	2800      	cmp	r0, #0
 800689e:	d102      	bne.n	80068a6 <__submore+0x22>
 80068a0:	2001      	movs	r0, #1
 80068a2:	4240      	negs	r0, r0
 80068a4:	bdfe      	pop	{r1, r2, r3, r4, r5, r6, r7, pc}
 80068a6:	0023      	movs	r3, r4
 80068a8:	6360      	str	r0, [r4, #52]	; 0x34
 80068aa:	63a6      	str	r6, [r4, #56]	; 0x38
 80068ac:	3346      	adds	r3, #70	; 0x46
 80068ae:	781a      	ldrb	r2, [r3, #0]
 80068b0:	4b10      	ldr	r3, [pc, #64]	; (80068f4 <__submore+0x70>)
 80068b2:	54c2      	strb	r2, [r0, r3]
 80068b4:	0023      	movs	r3, r4
 80068b6:	3345      	adds	r3, #69	; 0x45
 80068b8:	781a      	ldrb	r2, [r3, #0]
 80068ba:	4b0f      	ldr	r3, [pc, #60]	; (80068f8 <__submore+0x74>)
 80068bc:	54c2      	strb	r2, [r0, r3]
 80068be:	782a      	ldrb	r2, [r5, #0]
 80068c0:	4b0e      	ldr	r3, [pc, #56]	; (80068fc <__submore+0x78>)
 80068c2:	54c2      	strb	r2, [r0, r3]
 80068c4:	18c0      	adds	r0, r0, r3
 80068c6:	6020      	str	r0, [r4, #0]
 80068c8:	2000      	movs	r0, #0
 80068ca:	e7eb      	b.n	80068a4 <__submore+0x20>
 80068cc:	6b8e      	ldr	r6, [r1, #56]	; 0x38
 80068ce:	0029      	movs	r1, r5
 80068d0:	0073      	lsls	r3, r6, #1
 80068d2:	001a      	movs	r2, r3
 80068d4:	9301      	str	r3, [sp, #4]
 80068d6:	f000 f8db 	bl	8006a90 <_realloc_r>
 80068da:	1e05      	subs	r5, r0, #0
 80068dc:	d0e0      	beq.n	80068a0 <__submore+0x1c>
 80068de:	1987      	adds	r7, r0, r6
 80068e0:	0001      	movs	r1, r0
 80068e2:	0032      	movs	r2, r6
 80068e4:	0038      	movs	r0, r7
 80068e6:	f7fe fff9 	bl	80058dc <memcpy>
 80068ea:	9b01      	ldr	r3, [sp, #4]
 80068ec:	6027      	str	r7, [r4, #0]
 80068ee:	6365      	str	r5, [r4, #52]	; 0x34
 80068f0:	63a3      	str	r3, [r4, #56]	; 0x38
 80068f2:	e7e9      	b.n	80068c8 <__submore+0x44>
 80068f4:	000003ff 	.word	0x000003ff
 80068f8:	000003fe 	.word	0x000003fe
 80068fc:	000003fd 	.word	0x000003fd

08006900 <__retarget_lock_acquire_recursive>:
 8006900:	4770      	bx	lr

08006902 <__retarget_lock_release_recursive>:
 8006902:	4770      	bx	lr

08006904 <memchr>:
 8006904:	b2c9      	uxtb	r1, r1
 8006906:	1882      	adds	r2, r0, r2
 8006908:	4290      	cmp	r0, r2
 800690a:	d101      	bne.n	8006910 <memchr+0xc>
 800690c:	2000      	movs	r0, #0
 800690e:	4770      	bx	lr
 8006910:	7803      	ldrb	r3, [r0, #0]
 8006912:	428b      	cmp	r3, r1
 8006914:	d0fb      	beq.n	800690e <memchr+0xa>
 8006916:	3001      	adds	r0, #1
 8006918:	e7f6      	b.n	8006908 <memchr+0x4>

0800691a <memmove>:
 800691a:	b510      	push	{r4, lr}
 800691c:	4288      	cmp	r0, r1
 800691e:	d902      	bls.n	8006926 <memmove+0xc>
 8006920:	188b      	adds	r3, r1, r2
 8006922:	4298      	cmp	r0, r3
 8006924:	d303      	bcc.n	800692e <memmove+0x14>
 8006926:	2300      	movs	r3, #0
 8006928:	e007      	b.n	800693a <memmove+0x20>
 800692a:	5c8b      	ldrb	r3, [r1, r2]
 800692c:	5483      	strb	r3, [r0, r2]
 800692e:	3a01      	subs	r2, #1
 8006930:	d2fb      	bcs.n	800692a <memmove+0x10>
 8006932:	bd10      	pop	{r4, pc}
 8006934:	5ccc      	ldrb	r4, [r1, r3]
 8006936:	54c4      	strb	r4, [r0, r3]
 8006938:	3301      	adds	r3, #1
 800693a:	429a      	cmp	r2, r3
 800693c:	d1fa      	bne.n	8006934 <memmove+0x1a>
 800693e:	e7f8      	b.n	8006932 <memmove+0x18>

08006940 <_free_r>:
 8006940:	b570      	push	{r4, r5, r6, lr}
 8006942:	0005      	movs	r5, r0
 8006944:	2900      	cmp	r1, #0
 8006946:	d010      	beq.n	800696a <_free_r+0x2a>
 8006948:	1f0c      	subs	r4, r1, #4
 800694a:	6823      	ldr	r3, [r4, #0]
 800694c:	2b00      	cmp	r3, #0
 800694e:	da00      	bge.n	8006952 <_free_r+0x12>
 8006950:	18e4      	adds	r4, r4, r3
 8006952:	0028      	movs	r0, r5
 8006954:	f000 f8d4 	bl	8006b00 <__malloc_lock>
 8006958:	4a1d      	ldr	r2, [pc, #116]	; (80069d0 <_free_r+0x90>)
 800695a:	6813      	ldr	r3, [r2, #0]
 800695c:	2b00      	cmp	r3, #0
 800695e:	d105      	bne.n	800696c <_free_r+0x2c>
 8006960:	6063      	str	r3, [r4, #4]
 8006962:	6014      	str	r4, [r2, #0]
 8006964:	0028      	movs	r0, r5
 8006966:	f000 f8d3 	bl	8006b10 <__malloc_unlock>
 800696a:	bd70      	pop	{r4, r5, r6, pc}
 800696c:	42a3      	cmp	r3, r4
 800696e:	d908      	bls.n	8006982 <_free_r+0x42>
 8006970:	6821      	ldr	r1, [r4, #0]
 8006972:	1860      	adds	r0, r4, r1
 8006974:	4283      	cmp	r3, r0
 8006976:	d1f3      	bne.n	8006960 <_free_r+0x20>
 8006978:	6818      	ldr	r0, [r3, #0]
 800697a:	685b      	ldr	r3, [r3, #4]
 800697c:	1841      	adds	r1, r0, r1
 800697e:	6021      	str	r1, [r4, #0]
 8006980:	e7ee      	b.n	8006960 <_free_r+0x20>
 8006982:	001a      	movs	r2, r3
 8006984:	685b      	ldr	r3, [r3, #4]
 8006986:	2b00      	cmp	r3, #0
 8006988:	d001      	beq.n	800698e <_free_r+0x4e>
 800698a:	42a3      	cmp	r3, r4
 800698c:	d9f9      	bls.n	8006982 <_free_r+0x42>
 800698e:	6811      	ldr	r1, [r2, #0]
 8006990:	1850      	adds	r0, r2, r1
 8006992:	42a0      	cmp	r0, r4
 8006994:	d10b      	bne.n	80069ae <_free_r+0x6e>
 8006996:	6820      	ldr	r0, [r4, #0]
 8006998:	1809      	adds	r1, r1, r0
 800699a:	1850      	adds	r0, r2, r1
 800699c:	6011      	str	r1, [r2, #0]
 800699e:	4283      	cmp	r3, r0
 80069a0:	d1e0      	bne.n	8006964 <_free_r+0x24>
 80069a2:	6818      	ldr	r0, [r3, #0]
 80069a4:	685b      	ldr	r3, [r3, #4]
 80069a6:	1841      	adds	r1, r0, r1
 80069a8:	6011      	str	r1, [r2, #0]
 80069aa:	6053      	str	r3, [r2, #4]
 80069ac:	e7da      	b.n	8006964 <_free_r+0x24>
 80069ae:	42a0      	cmp	r0, r4
 80069b0:	d902      	bls.n	80069b8 <_free_r+0x78>
 80069b2:	230c      	movs	r3, #12
 80069b4:	602b      	str	r3, [r5, #0]
 80069b6:	e7d5      	b.n	8006964 <_free_r+0x24>
 80069b8:	6821      	ldr	r1, [r4, #0]
 80069ba:	1860      	adds	r0, r4, r1
 80069bc:	4283      	cmp	r3, r0
 80069be:	d103      	bne.n	80069c8 <_free_r+0x88>
 80069c0:	6818      	ldr	r0, [r3, #0]
 80069c2:	685b      	ldr	r3, [r3, #4]
 80069c4:	1841      	adds	r1, r0, r1
 80069c6:	6021      	str	r1, [r4, #0]
 80069c8:	6063      	str	r3, [r4, #4]
 80069ca:	6054      	str	r4, [r2, #4]
 80069cc:	e7ca      	b.n	8006964 <_free_r+0x24>
 80069ce:	46c0      	nop			; (mov r8, r8)
 80069d0:	20000560 	.word	0x20000560

080069d4 <_malloc_r>:
 80069d4:	b5f8      	push	{r3, r4, r5, r6, r7, lr}
 80069d6:	2303      	movs	r3, #3
 80069d8:	1ccd      	adds	r5, r1, #3
 80069da:	439d      	bics	r5, r3
 80069dc:	3508      	adds	r5, #8
 80069de:	0006      	movs	r6, r0
 80069e0:	2d0c      	cmp	r5, #12
 80069e2:	d21f      	bcs.n	8006a24 <_malloc_r+0x50>
 80069e4:	250c      	movs	r5, #12
 80069e6:	42a9      	cmp	r1, r5
 80069e8:	d81e      	bhi.n	8006a28 <_malloc_r+0x54>
 80069ea:	0030      	movs	r0, r6
 80069ec:	f000 f888 	bl	8006b00 <__malloc_lock>
 80069f0:	4925      	ldr	r1, [pc, #148]	; (8006a88 <_malloc_r+0xb4>)
 80069f2:	680a      	ldr	r2, [r1, #0]
 80069f4:	0014      	movs	r4, r2
 80069f6:	2c00      	cmp	r4, #0
 80069f8:	d11a      	bne.n	8006a30 <_malloc_r+0x5c>
 80069fa:	4f24      	ldr	r7, [pc, #144]	; (8006a8c <_malloc_r+0xb8>)
 80069fc:	683b      	ldr	r3, [r7, #0]
 80069fe:	2b00      	cmp	r3, #0
 8006a00:	d104      	bne.n	8006a0c <_malloc_r+0x38>
 8006a02:	0021      	movs	r1, r4
 8006a04:	0030      	movs	r0, r6
 8006a06:	f000 f869 	bl	8006adc <_sbrk_r>
 8006a0a:	6038      	str	r0, [r7, #0]
 8006a0c:	0029      	movs	r1, r5
 8006a0e:	0030      	movs	r0, r6
 8006a10:	f000 f864 	bl	8006adc <_sbrk_r>
 8006a14:	1c43      	adds	r3, r0, #1
 8006a16:	d12b      	bne.n	8006a70 <_malloc_r+0x9c>
 8006a18:	230c      	movs	r3, #12
 8006a1a:	0030      	movs	r0, r6
 8006a1c:	6033      	str	r3, [r6, #0]
 8006a1e:	f000 f877 	bl	8006b10 <__malloc_unlock>
 8006a22:	e003      	b.n	8006a2c <_malloc_r+0x58>
 8006a24:	2d00      	cmp	r5, #0
 8006a26:	dade      	bge.n	80069e6 <_malloc_r+0x12>
 8006a28:	230c      	movs	r3, #12
 8006a2a:	6033      	str	r3, [r6, #0]
 8006a2c:	2000      	movs	r0, #0
 8006a2e:	bdf8      	pop	{r3, r4, r5, r6, r7, pc}
 8006a30:	6823      	ldr	r3, [r4, #0]
 8006a32:	1b5b      	subs	r3, r3, r5
 8006a34:	d419      	bmi.n	8006a6a <_malloc_r+0x96>
 8006a36:	2b0b      	cmp	r3, #11
 8006a38:	d903      	bls.n	8006a42 <_malloc_r+0x6e>
 8006a3a:	6023      	str	r3, [r4, #0]
 8006a3c:	18e4      	adds	r4, r4, r3
 8006a3e:	6025      	str	r5, [r4, #0]
 8006a40:	e003      	b.n	8006a4a <_malloc_r+0x76>
 8006a42:	6863      	ldr	r3, [r4, #4]
 8006a44:	42a2      	cmp	r2, r4
 8006a46:	d10e      	bne.n	8006a66 <_malloc_r+0x92>
 8006a48:	600b      	str	r3, [r1, #0]
 8006a4a:	0030      	movs	r0, r6
 8006a4c:	f000 f860 	bl	8006b10 <__malloc_unlock>
 8006a50:	0020      	movs	r0, r4
 8006a52:	2207      	movs	r2, #7
 8006a54:	300b      	adds	r0, #11
 8006a56:	1d23      	adds	r3, r4, #4
 8006a58:	4390      	bics	r0, r2
 8006a5a:	1ac2      	subs	r2, r0, r3
 8006a5c:	4298      	cmp	r0, r3
 8006a5e:	d0e6      	beq.n	8006a2e <_malloc_r+0x5a>
 8006a60:	1a1b      	subs	r3, r3, r0
 8006a62:	50a3      	str	r3, [r4, r2]
 8006a64:	e7e3      	b.n	8006a2e <_malloc_r+0x5a>
 8006a66:	6053      	str	r3, [r2, #4]
 8006a68:	e7ef      	b.n	8006a4a <_malloc_r+0x76>
 8006a6a:	0022      	movs	r2, r4
 8006a6c:	6864      	ldr	r4, [r4, #4]
 8006a6e:	e7c2      	b.n	80069f6 <_malloc_r+0x22>
 8006a70:	2303      	movs	r3, #3
 8006a72:	1cc4      	adds	r4, r0, #3
 8006a74:	439c      	bics	r4, r3
 8006a76:	42a0      	cmp	r0, r4
 8006a78:	d0e1      	beq.n	8006a3e <_malloc_r+0x6a>
 8006a7a:	1a21      	subs	r1, r4, r0
 8006a7c:	0030      	movs	r0, r6
 8006a7e:	f000 f82d 	bl	8006adc <_sbrk_r>
 8006a82:	1c43      	adds	r3, r0, #1
 8006a84:	d1db      	bne.n	8006a3e <_malloc_r+0x6a>
 8006a86:	e7c7      	b.n	8006a18 <_malloc_r+0x44>
 8006a88:	20000560 	.word	0x20000560
 8006a8c:	20000564 	.word	0x20000564

08006a90 <_realloc_r>:
 8006a90:	b5f8      	push	{r3, r4, r5, r6, r7, lr}
 8006a92:	0007      	movs	r7, r0
 8006a94:	000d      	movs	r5, r1
 8006a96:	0016      	movs	r6, r2
 8006a98:	2900      	cmp	r1, #0
 8006a9a:	d105      	bne.n	8006aa8 <_realloc_r+0x18>
 8006a9c:	0011      	movs	r1, r2
 8006a9e:	f7ff ff99 	bl	80069d4 <_malloc_r>
 8006aa2:	0004      	movs	r4, r0
 8006aa4:	0020      	movs	r0, r4
 8006aa6:	bdf8      	pop	{r3, r4, r5, r6, r7, pc}
 8006aa8:	2a00      	cmp	r2, #0
 8006aaa:	d103      	bne.n	8006ab4 <_realloc_r+0x24>
 8006aac:	f7ff ff48 	bl	8006940 <_free_r>
 8006ab0:	0034      	movs	r4, r6
 8006ab2:	e7f7      	b.n	8006aa4 <_realloc_r+0x14>
 8006ab4:	f000 f834 	bl	8006b20 <_malloc_usable_size_r>
 8006ab8:	002c      	movs	r4, r5
 8006aba:	42b0      	cmp	r0, r6
 8006abc:	d2f2      	bcs.n	8006aa4 <_realloc_r+0x14>
 8006abe:	0031      	movs	r1, r6
 8006ac0:	0038      	movs	r0, r7
 8006ac2:	f7ff ff87 	bl	80069d4 <_malloc_r>
 8006ac6:	1e04      	subs	r4, r0, #0
 8006ac8:	d0ec      	beq.n	8006aa4 <_realloc_r+0x14>
 8006aca:	0029      	movs	r1, r5
 8006acc:	0032      	movs	r2, r6
 8006ace:	f7fe ff05 	bl	80058dc <memcpy>
 8006ad2:	0029      	movs	r1, r5
 8006ad4:	0038      	movs	r0, r7
 8006ad6:	f7ff ff33 	bl	8006940 <_free_r>
 8006ada:	e7e3      	b.n	8006aa4 <_realloc_r+0x14>

08006adc <_sbrk_r>:
 8006adc:	2300      	movs	r3, #0
 8006ade:	b570      	push	{r4, r5, r6, lr}
 8006ae0:	4d06      	ldr	r5, [pc, #24]	; (8006afc <_sbrk_r+0x20>)
 8006ae2:	0004      	movs	r4, r0
 8006ae4:	0008      	movs	r0, r1
 8006ae6:	602b      	str	r3, [r5, #0]
 8006ae8:	f7fb fb2c 	bl	8002144 <_sbrk>
 8006aec:	1c43      	adds	r3, r0, #1
 8006aee:	d103      	bne.n	8006af8 <_sbrk_r+0x1c>
 8006af0:	682b      	ldr	r3, [r5, #0]
 8006af2:	2b00      	cmp	r3, #0
 8006af4:	d000      	beq.n	8006af8 <_sbrk_r+0x1c>
 8006af6:	6023      	str	r3, [r4, #0]
 8006af8:	bd70      	pop	{r4, r5, r6, pc}
 8006afa:	46c0      	nop			; (mov r8, r8)
 8006afc:	20000754 	.word	0x20000754

08006b00 <__malloc_lock>:
 8006b00:	b510      	push	{r4, lr}
 8006b02:	4802      	ldr	r0, [pc, #8]	; (8006b0c <__malloc_lock+0xc>)
 8006b04:	f7ff fefc 	bl	8006900 <__retarget_lock_acquire_recursive>
 8006b08:	bd10      	pop	{r4, pc}
 8006b0a:	46c0      	nop			; (mov r8, r8)
 8006b0c:	2000075c 	.word	0x2000075c

08006b10 <__malloc_unlock>:
 8006b10:	b510      	push	{r4, lr}
 8006b12:	4802      	ldr	r0, [pc, #8]	; (8006b1c <__malloc_unlock+0xc>)
 8006b14:	f7ff fef5 	bl	8006902 <__retarget_lock_release_recursive>
 8006b18:	bd10      	pop	{r4, pc}
 8006b1a:	46c0      	nop			; (mov r8, r8)
 8006b1c:	2000075c 	.word	0x2000075c

08006b20 <_malloc_usable_size_r>:
 8006b20:	1f0b      	subs	r3, r1, #4
 8006b22:	681b      	ldr	r3, [r3, #0]
 8006b24:	1f18      	subs	r0, r3, #4
 8006b26:	2b00      	cmp	r3, #0
 8006b28:	da01      	bge.n	8006b2e <_malloc_usable_size_r+0xe>
 8006b2a:	580b      	ldr	r3, [r1, r0]
 8006b2c:	18c0      	adds	r0, r0, r3
 8006b2e:	4770      	bx	lr

08006b30 <_init>:
 8006b30:	b5f8      	push	{r3, r4, r5, r6, r7, lr}
 8006b32:	46c0      	nop			; (mov r8, r8)
 8006b34:	bcf8      	pop	{r3, r4, r5, r6, r7}
 8006b36:	bc08      	pop	{r3}
 8006b38:	469e      	mov	lr, r3
 8006b3a:	4770      	bx	lr

08006b3c <_fini>:
 8006b3c:	b5f8      	push	{r3, r4, r5, r6, r7, lr}
 8006b3e:	46c0      	nop			; (mov r8, r8)
 8006b40:	bcf8      	pop	{r3, r4, r5, r6, r7}
 8006b42:	bc08      	pop	{r3}
 8006b44:	469e      	mov	lr, r3
 8006b46:	4770      	bx	lr
